(dp1
S'grupo'
p2
(dp3
S'type'
p4
S'reference grupos'
p5
sS'sortable'
p6
I2
sS'sql'
p7
S'INTEGER REFERENCES grupos (id) ON DELETE CASCADE'
p8
ssS'id'
p9
(dp10
g4
S'id'
p11
sg6
I1
sg7
S'INTEGER PRIMARY KEY AUTOINCREMENT'
p12
ssS'tipo'
p13
(dp14
g4
S'string'
p15
sg6
I3
sg7
S'CHAR(512)'
p16
ss.