(dp1
S'grupo'
p2
(dp3
S'type'
p4
S'reference grupos'
p5
sS'sortable'
p6
I2
sS'sql'
p7
S'INTEGER REFERENCES grupos (id) ON DELETE CASCADE'
p8
ssS'estado'
p9
(dp10
g4
S'string'
p11
sg6
I3
sg7
S'CHAR(512) NOT NULL'
p12
ssS'id'
p13
(dp14
g4
g13
sg6
I1
sg7
S'INTEGER PRIMARY KEY AUTOINCREMENT'
p15
ss.