(dp1
S'output'
p2
S"<type 'exceptions.AttributeError'> 'Table' object has no attribute 'onservacion'"
p3
sS'layer'
p4
S'/home/emp2web/webcast/web2py/applications/proyectos/controllers/configuracion.py'
p5
sS'code'
p6
S'# coding: utf8\n# intente algo como\ndef index(): return dict(message="hello from configuracion.py")\n\ndef grupos():\n    formulario=SQLFORM.grid(db.grupos)\n    return locals()\n    \ndef estados():\n    formulario=SQLFORM.grid(db.estados)\n    return locals()\n    \ndef tipos():\n    formulario=SQLFORM.grid(db.tipos)\n    return locals()\n\n\ndef clientes():\n    formulario=SQLFORM.smartgrid(db.clientes)\n    return locals()\n    \ndef proyectos():\n    formulario=SQLFORM.smartgrid(db.proyecto)\n    return locals()\n\nresponse._vars=response._caller(proyectos)\n'
p7
sS'snapshot'
p8
(dp9
S'exception'
p10
(dp11
S'__hash__'
p12
S"<method-wrapper '__hash__' of exceptions.AttributeError object>"
p13
sS'__setattr__'
p14
S"<method-wrapper '__setattr__' of exceptions.AttributeError object>"
p15
sS'__reduce_ex__'
p16
S'<built-in method __reduce_ex__ of exceptions.AttributeError object>'
p17
sS'__getslice__'
p18
S"<method-wrapper '__getslice__' of exceptions.AttributeError object>"
p19
sS'__getitem__'
p20
S"<method-wrapper '__getitem__' of exceptions.AttributeError object>"
p21
sS'__setstate__'
p22
S'<built-in method __setstate__ of exceptions.AttributeError object>'
p23
sS'__reduce__'
p24
S'<built-in method __reduce__ of exceptions.AttributeError object>'
p25
sS'__str__'
p26
S"<method-wrapper '__str__' of exceptions.AttributeError object>"
p27
sS'__format__'
p28
S'<built-in method __format__ of exceptions.AttributeError object>'
p29
sS'__getattribute__'
p30
S"<method-wrapper '__getattribute__' of exceptions.AttributeError object>"
p31
sS'__class__'
p32
S"<type 'exceptions.AttributeError'>"
p33
sS'__unicode__'
p34
S'<built-in method __unicode__ of exceptions.AttributeError object>'
p35
sS'__delattr__'
p36
S"<method-wrapper '__delattr__' of exceptions.AttributeError object>"
p37
sS'__subclasshook__'
p38
S'<built-in method __subclasshook__ of type object>'
p39
sS'__repr__'
p40
S"<method-wrapper '__repr__' of exceptions.AttributeError object>"
p41
sS'args'
p42
S'("\'Table\' object has no attribute \'onservacion\'",)'
p43
sS'__dict__'
p44
S'{}'
p45
sS'__sizeof__'
p46
S'<built-in method __sizeof__ of exceptions.AttributeError object>'
p47
sS'__doc__'
p48
S"'Attribute not found.'"
p49
sS'__init__'
p50
S"<method-wrapper '__init__' of exceptions.AttributeError object>"
p51
sS'__new__'
p52
S'<built-in method __new__ of type object>'
p53
ssS'evalue'
p54
S"'Table' object has no attribute 'onservacion'"
p55
sS'request'
p56
ccopy_reg
_reconstructor
p57
(cgluon.html
BEAUTIFY
p58
c__builtin__
object
p59
NtRp60
(dp61
S'attributes'
p62
(dp63
sS'components'
p64
(lp65
g57
(cgluon.html
TABLE
p66
g59
NtRp67
(dp68
g62
(dp69
S'level'
p70
I5
ssS'parent'
p71
Nsg64
(lp72
g57
(cgluon.html
TR
p73
g59
NtRp74
(dp75
g62
(dp76
sg71
g67
sg64
(lp77
g57
(cgluon.html
TD
p78
g59
NtRp79
(dp80
g62
(dp81
S'_style'
p82
S'font-weight:bold;vertical-align:top'
p83
ssg71
g74
sg64
(lp84
S'ajax'
p85
asbag57
(g78
g59
NtRp86
(dp87
g62
(dp88
S'_valign'
p89
S'top'
p90
ssg71
g74
sg64
(lp91
S':'
asbag57
(g78
g59
NtRp92
(dp93
g62
(dp94
sg71
g74
sg64
(lp95
g57
(g58
g59
NtRp96
(dp97
g62
(dp98
g70
I5
ssg71
g92
sg64
(lp99
S'False'
p100
asbasbasbag57
(g73
g59
NtRp101
(dp102
g62
(dp103
sg71
g67
sg64
(lp104
g57
(g78
g59
NtRp105
(dp106
g62
(dp107
g82
g83
ssg71
g101
sg64
(lp108
S'application'
p109
asbag57
(g78
g59
NtRp110
(dp111
g62
(dp112
g89
g90
ssg71
g101
sg64
(lp113
S':'
asbag57
(g78
g59
NtRp114
(dp115
g62
(dp116
sg71
g101
sg64
(lp117
g57
(g58
g59
NtRp118
(dp119
g62
(dp120
g70
I5
ssg71
g114
sg64
(lp121
S'proyectos'
p122
asbasbasbag57
(g73
g59
NtRp123
(dp124
g62
(dp125
sg71
g67
sg64
(lp126
g57
(g78
g59
NtRp127
(dp128
g62
(dp129
g82
g83
ssg71
g123
sg64
(lp130
g42
asbag57
(g78
g59
NtRp131
(dp132
g62
(dp133
g89
g90
ssg71
g123
sg64
(lp134
S':'
asbag57
(g78
g59
NtRp135
(dp136
g62
(dp137
sg71
g123
sg64
(lp138
g57
(g58
g59
NtRp139
(dp140
g62
(dp141
g70
I5
ssg71
g135
sg64
(lp142
g57
(g66
g59
NtRp143
(dp144
g62
(dp145
g70
I4
ssg71
Nsg64
(lp146
g57
(g73
g59
NtRp147
(dp148
g62
(dp149
sg71
g143
sg64
(lp150
g57
(g78
g59
NtRp151
(dp152
g62
(dp153
sg71
g147
sg64
(lp154
g57
(g58
g59
NtRp155
(dp156
g62
(dp157
g70
I4
ssg71
g151
sg64
(lp158
S'proyecto'
p159
asbasbasbag57
(g73
g59
NtRp160
(dp161
g62
(dp162
sg71
g143
sg64
(lp163
g57
(g78
g59
NtRp164
(dp165
g62
(dp166
sg71
g160
sg64
(lp167
g57
(g58
g59
NtRp168
(dp169
g62
(dp170
g70
I4
ssg71
g164
sg64
(lp171
S'new'
p172
asbasbasbag57
(g73
g59
NtRp173
(dp174
g62
(dp175
sg71
g143
sg64
(lp176
g57
(g78
g59
NtRp177
(dp178
g62
(dp179
sg71
g173
sg64
(lp180
g57
(g58
g59
NtRp181
(dp182
g62
(dp183
g70
I4
ssg71
g177
sg64
(lp184
S'proyecto'
p185
asbasbasbasbasbasbasbag57
(g73
g59
NtRp186
(dp187
g62
(dp188
sg71
g67
sg64
(lp189
g57
(g78
g59
NtRp190
(dp191
g62
(dp192
g82
g83
ssg71
g186
sg64
(lp193
S'body'
p194
asbag57
(g78
g59
NtRp195
(dp196
g62
(dp197
g89
g90
ssg71
g186
sg64
(lp198
S':'
asbag57
(g78
g59
NtRp199
(dp200
g62
(dp201
sg71
g186
sg64
(lp202
g57
(g58
g59
NtRp203
(dp204
g62
(dp205
g70
I5
ssg71
g199
sg64
(lp206
S'<cStringIO.StringO object at 0xad62f6e0>'
p207
asbasbasbag57
(g73
g59
NtRp208
(dp209
g62
(dp210
sg71
g67
sg64
(lp211
g57
(g78
g59
NtRp212
(dp213
g62
(dp214
g82
g83
ssg71
g208
sg64
(lp215
S'cid'
p216
asbag57
(g78
g59
NtRp217
(dp218
g62
(dp219
g89
g90
ssg71
g208
sg64
(lp220
S':'
asbag57
(g78
g59
NtRp221
(dp222
g62
(dp223
sg71
g208
sg64
(lp224
g57
(g58
g59
NtRp225
(dp226
g62
(dp227
g70
I5
ssg71
g221
sg64
(lp228
S'None'
p229
asbasbasbag57
(g73
g59
NtRp230
(dp231
g62
(dp232
sg71
g67
sg64
(lp233
g57
(g78
g59
NtRp234
(dp235
g62
(dp236
g82
g83
ssg71
g230
sg64
(lp237
S'client'
p238
asbag57
(g78
g59
NtRp239
(dp240
g62
(dp241
g89
g90
ssg71
g230
sg64
(lp242
S':'
asbag57
(g78
g59
NtRp243
(dp244
g62
(dp245
sg71
g230
sg64
(lp246
g57
(g58
g59
NtRp247
(dp248
g62
(dp249
g70
I5
ssg71
g243
sg64
(lp250
S'127.0.0.1'
p251
asbasbasbag57
(g73
g59
NtRp252
(dp253
g62
(dp254
sg71
g67
sg64
(lp255
g57
(g78
g59
NtRp256
(dp257
g62
(dp258
g82
g83
ssg71
g252
sg64
(lp259
S'controller'
p260
asbag57
(g78
g59
NtRp261
(dp262
g62
(dp263
g89
g90
ssg71
g252
sg64
(lp264
S':'
asbag57
(g78
g59
NtRp265
(dp266
g62
(dp267
sg71
g252
sg64
(lp268
g57
(g58
g59
NtRp269
(dp270
g62
(dp271
g70
I5
ssg71
g265
sg64
(lp272
S'configuracion'
p273
asbasbasbag57
(g73
g59
NtRp274
(dp275
g62
(dp276
sg71
g67
sg64
(lp277
g57
(g78
g59
NtRp278
(dp279
g62
(dp280
g82
g83
ssg71
g274
sg64
(lp281
S'cookies'
p282
asbag57
(g78
g59
NtRp283
(dp284
g62
(dp285
g89
g90
ssg71
g274
sg64
(lp286
S':'
asbag57
(g78
g59
NtRp287
(dp288
g62
(dp289
sg71
g274
sg64
(lp290
g57
(g58
g59
NtRp291
(dp292
g62
(dp293
g70
I5
ssg71
g287
sg64
(lp294
g57
(g66
g59
NtRp295
(dp296
g62
(dp297
g70
I4
ssg71
Nsg64
(lp298
g57
(g73
g59
NtRp299
(dp300
g62
(dp301
sg71
g295
sg64
(lp302
g57
(g78
g59
NtRp303
(dp304
g62
(dp305
g82
g83
ssg71
g299
sg64
(lp306
S'CP.mode'
p307
asbag57
(g78
g59
NtRp308
(dp309
g62
(dp310
g89
g90
ssg71
g299
sg64
(lp311
S':'
asbag57
(g78
g59
NtRp312
(dp313
g62
(dp314
sg71
g299
sg64
(lp315
g57
(g58
g59
NtRp316
(dp317
g62
(dp318
g70
I4
ssg71
g312
sg64
(lp319
S'B'
ag57
(g66
g59
NtRp320
(dp321
g62
(dp322
g70
I3
ssg71
Nsg64
(lp323
g57
(g73
g59
NtRp324
(dp325
g62
(dp326
sg71
g320
sg64
(lp327
g57
(g78
g59
NtRp328
(dp329
g62
(dp330
g82
g83
ssg71
g324
sg64
(lp331
S'comment'
p332
asbag57
(g78
g59
NtRp333
(dp334
g62
(dp335
g89
g90
ssg71
g324
sg64
(lp336
S':'
asbag57
(g78
g59
NtRp337
(dp338
g62
(dp339
sg71
g324
sg64
(lp340
g57
(g58
g59
NtRp341
(dp342
g62
(dp343
g70
I3
ssg71
g337
sg64
(lp344
S''
asbasbasbag57
(g73
g59
NtRp345
(dp346
g62
(dp347
sg71
g320
sg64
(lp348
g57
(g78
g59
NtRp349
(dp350
g62
(dp351
g82
g83
ssg71
g345
sg64
(lp352
S'domain'
p353
asbag57
(g78
g59
NtRp354
(dp355
g62
(dp356
g89
g90
ssg71
g345
sg64
(lp357
S':'
asbag57
(g78
g59
NtRp358
(dp359
g62
(dp360
sg71
g345
sg64
(lp361
g57
(g58
g59
NtRp362
(dp363
g62
(dp364
g70
I3
ssg71
g358
sg64
(lp365
S''
asbasbasbag57
(g73
g59
NtRp366
(dp367
g62
(dp368
sg71
g320
sg64
(lp369
g57
(g78
g59
NtRp370
(dp371
g62
(dp372
g82
g83
ssg71
g366
sg64
(lp373
S'expires'
p374
asbag57
(g78
g59
NtRp375
(dp376
g62
(dp377
g89
g90
ssg71
g366
sg64
(lp378
S':'
asbag57
(g78
g59
NtRp379
(dp380
g62
(dp381
sg71
g366
sg64
(lp382
g57
(g58
g59
NtRp383
(dp384
g62
(dp385
g70
I3
ssg71
g379
sg64
(lp386
S''
asbasbasbag57
(g73
g59
NtRp387
(dp388
g62
(dp389
sg71
g320
sg64
(lp390
g57
(g78
g59
NtRp391
(dp392
g62
(dp393
g82
g83
ssg71
g387
sg64
(lp394
S'httponly'
p395
asbag57
(g78
g59
NtRp396
(dp397
g62
(dp398
g89
g90
ssg71
g387
sg64
(lp399
S':'
asbag57
(g78
g59
NtRp400
(dp401
g62
(dp402
sg71
g387
sg64
(lp403
g57
(g58
g59
NtRp404
(dp405
g62
(dp406
g70
I3
ssg71
g400
sg64
(lp407
S''
asbasbasbag57
(g73
g59
NtRp408
(dp409
g62
(dp410
sg71
g320
sg64
(lp411
g57
(g78
g59
NtRp412
(dp413
g62
(dp414
g82
g83
ssg71
g408
sg64
(lp415
S'max-age'
p416
asbag57
(g78
g59
NtRp417
(dp418
g62
(dp419
g89
g90
ssg71
g408
sg64
(lp420
S':'
asbag57
(g78
g59
NtRp421
(dp422
g62
(dp423
sg71
g408
sg64
(lp424
g57
(g58
g59
NtRp425
(dp426
g62
(dp427
g70
I3
ssg71
g421
sg64
(lp428
S''
asbasbasbag57
(g73
g59
NtRp429
(dp430
g62
(dp431
sg71
g320
sg64
(lp432
g57
(g78
g59
NtRp433
(dp434
g62
(dp435
g82
g83
ssg71
g429
sg64
(lp436
S'path'
p437
asbag57
(g78
g59
NtRp438
(dp439
g62
(dp440
g89
g90
ssg71
g429
sg64
(lp441
S':'
asbag57
(g78
g59
NtRp442
(dp443
g62
(dp444
sg71
g429
sg64
(lp445
g57
(g58
g59
NtRp446
(dp447
g62
(dp448
g70
I3
ssg71
g442
sg64
(lp449
S''
asbasbasbag57
(g73
g59
NtRp450
(dp451
g62
(dp452
sg71
g320
sg64
(lp453
g57
(g78
g59
NtRp454
(dp455
g62
(dp456
g82
g83
ssg71
g450
sg64
(lp457
S'secure'
p458
asbag57
(g78
g59
NtRp459
(dp460
g62
(dp461
g89
g90
ssg71
g450
sg64
(lp462
S':'
asbag57
(g78
g59
NtRp463
(dp464
g62
(dp465
sg71
g450
sg64
(lp466
g57
(g58
g59
NtRp467
(dp468
g62
(dp469
g70
I3
ssg71
g463
sg64
(lp470
S''
asbasbasbag57
(g73
g59
NtRp471
(dp472
g62
(dp473
sg71
g320
sg64
(lp474
g57
(g78
g59
NtRp475
(dp476
g62
(dp477
g82
g83
ssg71
g471
sg64
(lp478
S'version'
p479
asbag57
(g78
g59
NtRp480
(dp481
g62
(dp482
g89
g90
ssg71
g471
sg64
(lp483
S':'
asbag57
(g78
g59
NtRp484
(dp485
g62
(dp486
sg71
g471
sg64
(lp487
g57
(g58
g59
NtRp488
(dp489
g62
(dp490
g70
I3
ssg71
g484
sg64
(lp491
S''
asbasbasbasbasbasbasbag57
(g73
g59
NtRp492
(dp493
g62
(dp494
sg71
g295
sg64
(lp495
g57
(g78
g59
NtRp496
(dp497
g62
(dp498
g82
g83
ssg71
g492
sg64
(lp499
S'session_id_admin'
p500
asbag57
(g78
g59
NtRp501
(dp502
g62
(dp503
g89
g90
ssg71
g492
sg64
(lp504
S':'
asbag57
(g78
g59
NtRp505
(dp506
g62
(dp507
sg71
g492
sg64
(lp508
g57
(g58
g59
NtRp509
(dp510
g62
(dp511
g70
I4
ssg71
g505
sg64
(lp512
S'127.0.0.1-59d830b7-3426-4408-b007-2063f315657f'
p513
ag57
(g66
g59
NtRp514
(dp515
g62
(dp516
g70
I3
ssg71
Nsg64
(lp517
g57
(g73
g59
NtRp518
(dp519
g62
(dp520
sg71
g514
sg64
(lp521
g57
(g78
g59
NtRp522
(dp523
g62
(dp524
g82
g83
ssg71
g518
sg64
(lp525
g332
asbag57
(g78
g59
NtRp526
(dp527
g62
(dp528
g89
g90
ssg71
g518
sg64
(lp529
S':'
asbag57
(g78
g59
NtRp530
(dp531
g62
(dp532
sg71
g518
sg64
(lp533
g57
(g58
g59
NtRp534
(dp535
g62
(dp536
g70
I3
ssg71
g530
sg64
(lp537
S''
asbasbasbag57
(g73
g59
NtRp538
(dp539
g62
(dp540
sg71
g514
sg64
(lp541
g57
(g78
g59
NtRp542
(dp543
g62
(dp544
g82
g83
ssg71
g538
sg64
(lp545
g353
asbag57
(g78
g59
NtRp546
(dp547
g62
(dp548
g89
g90
ssg71
g538
sg64
(lp549
S':'
asbag57
(g78
g59
NtRp550
(dp551
g62
(dp552
sg71
g538
sg64
(lp553
g57
(g58
g59
NtRp554
(dp555
g62
(dp556
g70
I3
ssg71
g550
sg64
(lp557
S''
asbasbasbag57
(g73
g59
NtRp558
(dp559
g62
(dp560
sg71
g514
sg64
(lp561
g57
(g78
g59
NtRp562
(dp563
g62
(dp564
g82
g83
ssg71
g558
sg64
(lp565
g374
asbag57
(g78
g59
NtRp566
(dp567
g62
(dp568
g89
g90
ssg71
g558
sg64
(lp569
S':'
asbag57
(g78
g59
NtRp570
(dp571
g62
(dp572
sg71
g558
sg64
(lp573
g57
(g58
g59
NtRp574
(dp575
g62
(dp576
g70
I3
ssg71
g570
sg64
(lp577
S''
asbasbasbag57
(g73
g59
NtRp578
(dp579
g62
(dp580
sg71
g514
sg64
(lp581
g57
(g78
g59
NtRp582
(dp583
g62
(dp584
g82
g83
ssg71
g578
sg64
(lp585
g395
asbag57
(g78
g59
NtRp586
(dp587
g62
(dp588
g89
g90
ssg71
g578
sg64
(lp589
S':'
asbag57
(g78
g59
NtRp590
(dp591
g62
(dp592
sg71
g578
sg64
(lp593
g57
(g58
g59
NtRp594
(dp595
g62
(dp596
g70
I3
ssg71
g590
sg64
(lp597
S''
asbasbasbag57
(g73
g59
NtRp598
(dp599
g62
(dp600
sg71
g514
sg64
(lp601
g57
(g78
g59
NtRp602
(dp603
g62
(dp604
g82
g83
ssg71
g598
sg64
(lp605
g416
asbag57
(g78
g59
NtRp606
(dp607
g62
(dp608
g89
g90
ssg71
g598
sg64
(lp609
S':'
asbag57
(g78
g59
NtRp610
(dp611
g62
(dp612
sg71
g598
sg64
(lp613
g57
(g58
g59
NtRp614
(dp615
g62
(dp616
g70
I3
ssg71
g610
sg64
(lp617
S''
asbasbasbag57
(g73
g59
NtRp618
(dp619
g62
(dp620
sg71
g514
sg64
(lp621
g57
(g78
g59
NtRp622
(dp623
g62
(dp624
g82
g83
ssg71
g618
sg64
(lp625
g437
asbag57
(g78
g59
NtRp626
(dp627
g62
(dp628
g89
g90
ssg71
g618
sg64
(lp629
S':'
asbag57
(g78
g59
NtRp630
(dp631
g62
(dp632
sg71
g618
sg64
(lp633
g57
(g58
g59
NtRp634
(dp635
g62
(dp636
g70
I3
ssg71
g630
sg64
(lp637
S''
asbasbasbag57
(g73
g59
NtRp638
(dp639
g62
(dp640
sg71
g514
sg64
(lp641
g57
(g78
g59
NtRp642
(dp643
g62
(dp644
g82
g83
ssg71
g638
sg64
(lp645
g458
asbag57
(g78
g59
NtRp646
(dp647
g62
(dp648
g89
g90
ssg71
g638
sg64
(lp649
S':'
asbag57
(g78
g59
NtRp650
(dp651
g62
(dp652
sg71
g638
sg64
(lp653
g57
(g58
g59
NtRp654
(dp655
g62
(dp656
g70
I3
ssg71
g650
sg64
(lp657
S''
asbasbasbag57
(g73
g59
NtRp658
(dp659
g62
(dp660
sg71
g514
sg64
(lp661
g57
(g78
g59
NtRp662
(dp663
g62
(dp664
g82
g83
ssg71
g658
sg64
(lp665
g479
asbag57
(g78
g59
NtRp666
(dp667
g62
(dp668
g89
g90
ssg71
g658
sg64
(lp669
S':'
asbag57
(g78
g59
NtRp670
(dp671
g62
(dp672
sg71
g658
sg64
(lp673
g57
(g58
g59
NtRp674
(dp675
g62
(dp676
g70
I3
ssg71
g670
sg64
(lp677
S''
asbasbasbasbasbasbasbag57
(g73
g59
NtRp678
(dp679
g62
(dp680
sg71
g295
sg64
(lp681
g57
(g78
g59
NtRp682
(dp683
g62
(dp684
g82
g83
ssg71
g678
sg64
(lp685
S'session_id_proyectos'
p686
asbag57
(g78
g59
NtRp687
(dp688
g62
(dp689
g89
g90
ssg71
g678
sg64
(lp690
S':'
asbag57
(g78
g59
NtRp691
(dp692
g62
(dp693
sg71
g678
sg64
(lp694
g57
(g58
g59
NtRp695
(dp696
g62
(dp697
g70
I4
ssg71
g691
sg64
(lp698
S'127.0.0.1-be82b3d9-4d64-4bfc-8d3a-c456e8044ba2'
p699
ag57
(g66
g59
NtRp700
(dp701
g62
(dp702
g70
I3
ssg71
Nsg64
(lp703
g57
(g73
g59
NtRp704
(dp705
g62
(dp706
sg71
g700
sg64
(lp707
g57
(g78
g59
NtRp708
(dp709
g62
(dp710
g82
g83
ssg71
g704
sg64
(lp711
g332
asbag57
(g78
g59
NtRp712
(dp713
g62
(dp714
g89
g90
ssg71
g704
sg64
(lp715
S':'
asbag57
(g78
g59
NtRp716
(dp717
g62
(dp718
sg71
g704
sg64
(lp719
g57
(g58
g59
NtRp720
(dp721
g62
(dp722
g70
I3
ssg71
g716
sg64
(lp723
S''
asbasbasbag57
(g73
g59
NtRp724
(dp725
g62
(dp726
sg71
g700
sg64
(lp727
g57
(g78
g59
NtRp728
(dp729
g62
(dp730
g82
g83
ssg71
g724
sg64
(lp731
g353
asbag57
(g78
g59
NtRp732
(dp733
g62
(dp734
g89
g90
ssg71
g724
sg64
(lp735
S':'
asbag57
(g78
g59
NtRp736
(dp737
g62
(dp738
sg71
g724
sg64
(lp739
g57
(g58
g59
NtRp740
(dp741
g62
(dp742
g70
I3
ssg71
g736
sg64
(lp743
S''
asbasbasbag57
(g73
g59
NtRp744
(dp745
g62
(dp746
sg71
g700
sg64
(lp747
g57
(g78
g59
NtRp748
(dp749
g62
(dp750
g82
g83
ssg71
g744
sg64
(lp751
g374
asbag57
(g78
g59
NtRp752
(dp753
g62
(dp754
g89
g90
ssg71
g744
sg64
(lp755
S':'
asbag57
(g78
g59
NtRp756
(dp757
g62
(dp758
sg71
g744
sg64
(lp759
g57
(g58
g59
NtRp760
(dp761
g62
(dp762
g70
I3
ssg71
g756
sg64
(lp763
S''
asbasbasbag57
(g73
g59
NtRp764
(dp765
g62
(dp766
sg71
g700
sg64
(lp767
g57
(g78
g59
NtRp768
(dp769
g62
(dp770
g82
g83
ssg71
g764
sg64
(lp771
g395
asbag57
(g78
g59
NtRp772
(dp773
g62
(dp774
g89
g90
ssg71
g764
sg64
(lp775
S':'
asbag57
(g78
g59
NtRp776
(dp777
g62
(dp778
sg71
g764
sg64
(lp779
g57
(g58
g59
NtRp780
(dp781
g62
(dp782
g70
I3
ssg71
g776
sg64
(lp783
S''
asbasbasbag57
(g73
g59
NtRp784
(dp785
g62
(dp786
sg71
g700
sg64
(lp787
g57
(g78
g59
NtRp788
(dp789
g62
(dp790
g82
g83
ssg71
g784
sg64
(lp791
g416
asbag57
(g78
g59
NtRp792
(dp793
g62
(dp794
g89
g90
ssg71
g784
sg64
(lp795
S':'
asbag57
(g78
g59
NtRp796
(dp797
g62
(dp798
sg71
g784
sg64
(lp799
g57
(g58
g59
NtRp800
(dp801
g62
(dp802
g70
I3
ssg71
g796
sg64
(lp803
S''
asbasbasbag57
(g73
g59
NtRp804
(dp805
g62
(dp806
sg71
g700
sg64
(lp807
g57
(g78
g59
NtRp808
(dp809
g62
(dp810
g82
g83
ssg71
g804
sg64
(lp811
g437
asbag57
(g78
g59
NtRp812
(dp813
g62
(dp814
g89
g90
ssg71
g804
sg64
(lp815
S':'
asbag57
(g78
g59
NtRp816
(dp817
g62
(dp818
sg71
g804
sg64
(lp819
g57
(g58
g59
NtRp820
(dp821
g62
(dp822
g70
I3
ssg71
g816
sg64
(lp823
S''
asbasbasbag57
(g73
g59
NtRp824
(dp825
g62
(dp826
sg71
g700
sg64
(lp827
g57
(g78
g59
NtRp828
(dp829
g62
(dp830
g82
g83
ssg71
g824
sg64
(lp831
g458
asbag57
(g78
g59
NtRp832
(dp833
g62
(dp834
g89
g90
ssg71
g824
sg64
(lp835
S':'
asbag57
(g78
g59
NtRp836
(dp837
g62
(dp838
sg71
g824
sg64
(lp839
g57
(g58
g59
NtRp840
(dp841
g62
(dp842
g70
I3
ssg71
g836
sg64
(lp843
S''
asbasbasbag57
(g73
g59
NtRp844
(dp845
g62
(dp846
sg71
g700
sg64
(lp847
g57
(g78
g59
NtRp848
(dp849
g62
(dp850
g82
g83
ssg71
g844
sg64
(lp851
g479
asbag57
(g78
g59
NtRp852
(dp853
g62
(dp854
g89
g90
ssg71
g844
sg64
(lp855
S':'
asbag57
(g78
g59
NtRp856
(dp857
g62
(dp858
sg71
g844
sg64
(lp859
g57
(g58
g59
NtRp860
(dp861
g62
(dp862
g70
I3
ssg71
g856
sg64
(lp863
S''
asbasbasbasbasbasbasbag57
(g73
g59
NtRp864
(dp865
g62
(dp866
sg71
g295
sg64
(lp867
g57
(g78
g59
NtRp868
(dp869
g62
(dp870
g82
g83
ssg71
g864
sg64
(lp871
S'session_id_welcome'
p872
asbag57
(g78
g59
NtRp873
(dp874
g62
(dp875
g89
g90
ssg71
g864
sg64
(lp876
S':'
asbag57
(g78
g59
NtRp877
(dp878
g62
(dp879
sg71
g864
sg64
(lp880
g57
(g58
g59
NtRp881
(dp882
g62
(dp883
g70
I4
ssg71
g877
sg64
(lp884
S'127.0.0.1-c8e186f8-735f-483e-9656-57e94bd318d4'
p885
ag57
(g66
g59
NtRp886
(dp887
g62
(dp888
g70
I3
ssg71
Nsg64
(lp889
g57
(g73
g59
NtRp890
(dp891
g62
(dp892
sg71
g886
sg64
(lp893
g57
(g78
g59
NtRp894
(dp895
g62
(dp896
g82
g83
ssg71
g890
sg64
(lp897
g332
asbag57
(g78
g59
NtRp898
(dp899
g62
(dp900
g89
g90
ssg71
g890
sg64
(lp901
S':'
asbag57
(g78
g59
NtRp902
(dp903
g62
(dp904
sg71
g890
sg64
(lp905
g57
(g58
g59
NtRp906
(dp907
g62
(dp908
g70
I3
ssg71
g902
sg64
(lp909
S''
asbasbasbag57
(g73
g59
NtRp910
(dp911
g62
(dp912
sg71
g886
sg64
(lp913
g57
(g78
g59
NtRp914
(dp915
g62
(dp916
g82
g83
ssg71
g910
sg64
(lp917
g353
asbag57
(g78
g59
NtRp918
(dp919
g62
(dp920
g89
g90
ssg71
g910
sg64
(lp921
S':'
asbag57
(g78
g59
NtRp922
(dp923
g62
(dp924
sg71
g910
sg64
(lp925
g57
(g58
g59
NtRp926
(dp927
g62
(dp928
g70
I3
ssg71
g922
sg64
(lp929
S''
asbasbasbag57
(g73
g59
NtRp930
(dp931
g62
(dp932
sg71
g886
sg64
(lp933
g57
(g78
g59
NtRp934
(dp935
g62
(dp936
g82
g83
ssg71
g930
sg64
(lp937
g374
asbag57
(g78
g59
NtRp938
(dp939
g62
(dp940
g89
g90
ssg71
g930
sg64
(lp941
S':'
asbag57
(g78
g59
NtRp942
(dp943
g62
(dp944
sg71
g930
sg64
(lp945
g57
(g58
g59
NtRp946
(dp947
g62
(dp948
g70
I3
ssg71
g942
sg64
(lp949
S''
asbasbasbag57
(g73
g59
NtRp950
(dp951
g62
(dp952
sg71
g886
sg64
(lp953
g57
(g78
g59
NtRp954
(dp955
g62
(dp956
g82
g83
ssg71
g950
sg64
(lp957
g395
asbag57
(g78
g59
NtRp958
(dp959
g62
(dp960
g89
g90
ssg71
g950
sg64
(lp961
S':'
asbag57
(g78
g59
NtRp962
(dp963
g62
(dp964
sg71
g950
sg64
(lp965
g57
(g58
g59
NtRp966
(dp967
g62
(dp968
g70
I3
ssg71
g962
sg64
(lp969
S''
asbasbasbag57
(g73
g59
NtRp970
(dp971
g62
(dp972
sg71
g886
sg64
(lp973
g57
(g78
g59
NtRp974
(dp975
g62
(dp976
g82
g83
ssg71
g970
sg64
(lp977
g416
asbag57
(g78
g59
NtRp978
(dp979
g62
(dp980
g89
g90
ssg71
g970
sg64
(lp981
S':'
asbag57
(g78
g59
NtRp982
(dp983
g62
(dp984
sg71
g970
sg64
(lp985
g57
(g58
g59
NtRp986
(dp987
g62
(dp988
g70
I3
ssg71
g982
sg64
(lp989
S''
asbasbasbag57
(g73
g59
NtRp990
(dp991
g62
(dp992
sg71
g886
sg64
(lp993
g57
(g78
g59
NtRp994
(dp995
g62
(dp996
g82
g83
ssg71
g990
sg64
(lp997
g437
asbag57
(g78
g59
NtRp998
(dp999
g62
(dp1000
g89
g90
ssg71
g990
sg64
(lp1001
S':'
asbag57
(g78
g59
NtRp1002
(dp1003
g62
(dp1004
sg71
g990
sg64
(lp1005
g57
(g58
g59
NtRp1006
(dp1007
g62
(dp1008
g70
I3
ssg71
g1002
sg64
(lp1009
S''
asbasbasbag57
(g73
g59
NtRp1010
(dp1011
g62
(dp1012
sg71
g886
sg64
(lp1013
g57
(g78
g59
NtRp1014
(dp1015
g62
(dp1016
g82
g83
ssg71
g1010
sg64
(lp1017
g458
asbag57
(g78
g59
NtRp1018
(dp1019
g62
(dp1020
g89
g90
ssg71
g1010
sg64
(lp1021
S':'
asbag57
(g78
g59
NtRp1022
(dp1023
g62
(dp1024
sg71
g1010
sg64
(lp1025
g57
(g58
g59
NtRp1026
(dp1027
g62
(dp1028
g70
I3
ssg71
g1022
sg64
(lp1029
S''
asbasbasbag57
(g73
g59
NtRp1030
(dp1031
g62
(dp1032
sg71
g886
sg64
(lp1033
g57
(g78
g59
NtRp1034
(dp1035
g62
(dp1036
g82
g83
ssg71
g1030
sg64
(lp1037
g479
asbag57
(g78
g59
NtRp1038
(dp1039
g62
(dp1040
g89
g90
ssg71
g1030
sg64
(lp1041
S':'
asbag57
(g78
g59
NtRp1042
(dp1043
g62
(dp1044
sg71
g1030
sg64
(lp1045
g57
(g58
g59
NtRp1046
(dp1047
g62
(dp1048
g70
I3
ssg71
g1042
sg64
(lp1049
S''
asbasbasbasbasbasbasbag57
(g73
g59
NtRp1050
(dp1051
g62
(dp1052
sg71
g295
sg64
(lp1053
g57
(g78
g59
NtRp1054
(dp1055
g62
(dp1056
g82
g83
ssg71
g1050
sg64
(lp1057
S'size'
p1058
asbag57
(g78
g59
NtRp1059
(dp1060
g62
(dp1061
g89
g90
ssg71
g1050
sg64
(lp1062
S':'
asbag57
(g78
g59
NtRp1063
(dp1064
g62
(dp1065
sg71
g1050
sg64
(lp1066
g57
(g58
g59
NtRp1067
(dp1068
g62
(dp1069
g70
I4
ssg71
g1063
sg64
(lp1070
S'4'
ag57
(g66
g59
NtRp1071
(dp1072
g62
(dp1073
g70
I3
ssg71
Nsg64
(lp1074
g57
(g73
g59
NtRp1075
(dp1076
g62
(dp1077
sg71
g1071
sg64
(lp1078
g57
(g78
g59
NtRp1079
(dp1080
g62
(dp1081
g82
g83
ssg71
g1075
sg64
(lp1082
g332
asbag57
(g78
g59
NtRp1083
(dp1084
g62
(dp1085
g89
g90
ssg71
g1075
sg64
(lp1086
S':'
asbag57
(g78
g59
NtRp1087
(dp1088
g62
(dp1089
sg71
g1075
sg64
(lp1090
g57
(g58
g59
NtRp1091
(dp1092
g62
(dp1093
g70
I3
ssg71
g1087
sg64
(lp1094
S''
asbasbasbag57
(g73
g59
NtRp1095
(dp1096
g62
(dp1097
sg71
g1071
sg64
(lp1098
g57
(g78
g59
NtRp1099
(dp1100
g62
(dp1101
g82
g83
ssg71
g1095
sg64
(lp1102
g353
asbag57
(g78
g59
NtRp1103
(dp1104
g62
(dp1105
g89
g90
ssg71
g1095
sg64
(lp1106
S':'
asbag57
(g78
g59
NtRp1107
(dp1108
g62
(dp1109
sg71
g1095
sg64
(lp1110
g57
(g58
g59
NtRp1111
(dp1112
g62
(dp1113
g70
I3
ssg71
g1107
sg64
(lp1114
S''
asbasbasbag57
(g73
g59
NtRp1115
(dp1116
g62
(dp1117
sg71
g1071
sg64
(lp1118
g57
(g78
g59
NtRp1119
(dp1120
g62
(dp1121
g82
g83
ssg71
g1115
sg64
(lp1122
g374
asbag57
(g78
g59
NtRp1123
(dp1124
g62
(dp1125
g89
g90
ssg71
g1115
sg64
(lp1126
S':'
asbag57
(g78
g59
NtRp1127
(dp1128
g62
(dp1129
sg71
g1115
sg64
(lp1130
g57
(g58
g59
NtRp1131
(dp1132
g62
(dp1133
g70
I3
ssg71
g1127
sg64
(lp1134
S''
asbasbasbag57
(g73
g59
NtRp1135
(dp1136
g62
(dp1137
sg71
g1071
sg64
(lp1138
g57
(g78
g59
NtRp1139
(dp1140
g62
(dp1141
g82
g83
ssg71
g1135
sg64
(lp1142
g395
asbag57
(g78
g59
NtRp1143
(dp1144
g62
(dp1145
g89
g90
ssg71
g1135
sg64
(lp1146
S':'
asbag57
(g78
g59
NtRp1147
(dp1148
g62
(dp1149
sg71
g1135
sg64
(lp1150
g57
(g58
g59
NtRp1151
(dp1152
g62
(dp1153
g70
I3
ssg71
g1147
sg64
(lp1154
S''
asbasbasbag57
(g73
g59
NtRp1155
(dp1156
g62
(dp1157
sg71
g1071
sg64
(lp1158
g57
(g78
g59
NtRp1159
(dp1160
g62
(dp1161
g82
g83
ssg71
g1155
sg64
(lp1162
g416
asbag57
(g78
g59
NtRp1163
(dp1164
g62
(dp1165
g89
g90
ssg71
g1155
sg64
(lp1166
S':'
asbag57
(g78
g59
NtRp1167
(dp1168
g62
(dp1169
sg71
g1155
sg64
(lp1170
g57
(g58
g59
NtRp1171
(dp1172
g62
(dp1173
g70
I3
ssg71
g1167
sg64
(lp1174
S''
asbasbasbag57
(g73
g59
NtRp1175
(dp1176
g62
(dp1177
sg71
g1071
sg64
(lp1178
g57
(g78
g59
NtRp1179
(dp1180
g62
(dp1181
g82
g83
ssg71
g1175
sg64
(lp1182
g437
asbag57
(g78
g59
NtRp1183
(dp1184
g62
(dp1185
g89
g90
ssg71
g1175
sg64
(lp1186
S':'
asbag57
(g78
g59
NtRp1187
(dp1188
g62
(dp1189
sg71
g1175
sg64
(lp1190
g57
(g58
g59
NtRp1191
(dp1192
g62
(dp1193
g70
I3
ssg71
g1187
sg64
(lp1194
S''
asbasbasbag57
(g73
g59
NtRp1195
(dp1196
g62
(dp1197
sg71
g1071
sg64
(lp1198
g57
(g78
g59
NtRp1199
(dp1200
g62
(dp1201
g82
g83
ssg71
g1195
sg64
(lp1202
g458
asbag57
(g78
g59
NtRp1203
(dp1204
g62
(dp1205
g89
g90
ssg71
g1195
sg64
(lp1206
S':'
asbag57
(g78
g59
NtRp1207
(dp1208
g62
(dp1209
sg71
g1195
sg64
(lp1210
g57
(g58
g59
NtRp1211
(dp1212
g62
(dp1213
g70
I3
ssg71
g1207
sg64
(lp1214
S''
asbasbasbag57
(g73
g59
NtRp1215
(dp1216
g62
(dp1217
sg71
g1071
sg64
(lp1218
g57
(g78
g59
NtRp1219
(dp1220
g62
(dp1221
g82
g83
ssg71
g1215
sg64
(lp1222
g479
asbag57
(g78
g59
NtRp1223
(dp1224
g62
(dp1225
g89
g90
ssg71
g1215
sg64
(lp1226
S':'
asbag57
(g78
g59
NtRp1227
(dp1228
g62
(dp1229
sg71
g1215
sg64
(lp1230
g57
(g58
g59
NtRp1231
(dp1232
g62
(dp1233
g70
I3
ssg71
g1227
sg64
(lp1234
S''
asbasbasbasbasbasbasbasbasbasbasbag57
(g73
g59
NtRp1235
(dp1236
g62
(dp1237
sg71
g67
sg64
(lp1238
g57
(g78
g59
NtRp1239
(dp1240
g62
(dp1241
g82
g83
ssg71
g1235
sg64
(lp1242
S'env'
p1243
asbag57
(g78
g59
NtRp1244
(dp1245
g62
(dp1246
g89
g90
ssg71
g1235
sg64
(lp1247
S':'
asbag57
(g78
g59
NtRp1248
(dp1249
g62
(dp1250
sg71
g1235
sg64
(lp1251
g57
(g58
g59
NtRp1252
(dp1253
g62
(dp1254
g70
I5
ssg71
g1248
sg64
(lp1255
g57
(g66
g59
NtRp1256
(dp1257
g62
(dp1258
g70
I4
ssg71
Nsg64
(lp1259
g57
(g73
g59
NtRp1260
(dp1261
g62
(dp1262
sg71
g1256
sg64
(lp1263
g57
(g78
g59
NtRp1264
(dp1265
g62
(dp1266
g82
g83
ssg71
g1260
sg64
(lp1267
S'app_folders'
p1268
asbag57
(g78
g59
NtRp1269
(dp1270
g62
(dp1271
g89
g90
ssg71
g1260
sg64
(lp1272
S':'
asbag57
(g78
g59
NtRp1273
(dp1274
g62
(dp1275
sg71
g1260
sg64
(lp1276
g57
(g58
g59
NtRp1277
(dp1278
g62
(dp1279
g70
I4
ssg71
g1273
sg64
(lp1280
S"set(['/home/emp2web/webcast/web2py/applications/examples/', '/home/emp2web/webcast/web2py/applications/welcome/', '/home/emp2web/webcast/web2py/applications/admin/', '/home/emp2web/webcast/web2py/applications/proyectos/'])"
p1281
asbasbasbag57
(g73
g59
NtRp1282
(dp1283
g62
(dp1284
sg71
g1256
sg64
(lp1285
g57
(g78
g59
NtRp1286
(dp1287
g62
(dp1288
g82
g83
ssg71
g1282
sg64
(lp1289
S'applications_parent'
p1290
asbag57
(g78
g59
NtRp1291
(dp1292
g62
(dp1293
g89
g90
ssg71
g1282
sg64
(lp1294
S':'
asbag57
(g78
g59
NtRp1295
(dp1296
g62
(dp1297
sg71
g1282
sg64
(lp1298
g57
(g58
g59
NtRp1299
(dp1300
g62
(dp1301
g70
I4
ssg71
g1295
sg64
(lp1302
S'/home/emp2web/webcast/web2py'
p1303
asbasbasbag57
(g73
g59
NtRp1304
(dp1305
g62
(dp1306
sg71
g1256
sg64
(lp1307
g57
(g78
g59
NtRp1308
(dp1309
g62
(dp1310
g82
g83
ssg71
g1304
sg64
(lp1311
S'cmd_args'
p1312
asbag57
(g78
g59
NtRp1313
(dp1314
g62
(dp1315
g89
g90
ssg71
g1304
sg64
(lp1316
S':'
asbag57
(g78
g59
NtRp1317
(dp1318
g62
(dp1319
sg71
g1304
sg64
(lp1320
g57
(g58
g59
NtRp1321
(dp1322
g62
(dp1323
g70
I4
ssg71
g1317
sg64
(lp1324
g57
(g66
g59
NtRp1325
(dp1326
g62
(dp1327
g70
I3
ssg71
Nsg64
(lp1328
sbasbasbasbag57
(g73
g59
NtRp1329
(dp1330
g62
(dp1331
sg71
g1256
sg64
(lp1332
g57
(g78
g59
NtRp1333
(dp1334
g62
(dp1335
g82
g83
ssg71
g1329
sg64
(lp1336
S'cmd_options'
p1337
asbag57
(g78
g59
NtRp1338
(dp1339
g62
(dp1340
g89
g90
ssg71
g1329
sg64
(lp1341
S':'
asbag57
(g78
g59
NtRp1342
(dp1343
g62
(dp1344
sg71
g1329
sg64
(lp1345
g57
(g58
g59
NtRp1346
(dp1347
g62
(dp1348
g70
I4
ssg71
g1342
sg64
(lp1349
S"<Values at 0xa03ad8c: {'verbose': False, 'ip': '127.0.0.1', 'with_scheduler': False, 'ips': ['127.0.1.1'], 'shutdown_timeout': 5, 'taskbar': False, 'port': 8000, 'maxthreads': None, 'softcron': False, 'server_name': 'emp2web-300E4A-300E5A-300E7A-3430EA-3530EA', 'bpython': False, 'nogui': False, 'nocron': False, 'extcron': False, 'run_system_tests': False, 'test': None, 'folder': '/home/emp2web/webcast/web2py', 'config': '', 'import_models': False, 'winservice': '', 'shell': None, 'run': '', 'log_filename': 'httpserver.log', 'debuglevel': 30, 'args': [''], 'socket_timeout': 5, 'ssl_ca_certificate': None, 'scheduler': None, 'profiler_filename': None, 'ssl_private_key': '', 'scheduler_groups': None, 'password': 'web2py', 'request_queue_size': 5, 'ssl_certificate': '', 'cronjob': False, 'numthreads': None, 'quiet': False, 'interfaces': None, 'minthreads': None, 'timeout': 10, 'plain': False, 'nobanner': False, 'pid_filename': 'httpserver.pid'}>"
p1350
asbasbasbag57
(g73
g59
NtRp1351
(dp1352
g62
(dp1353
sg71
g1256
sg64
(lp1354
g57
(g78
g59
NtRp1355
(dp1356
g62
(dp1357
g82
g83
ssg71
g1351
sg64
(lp1358
S'db_sessions'
p1359
asbag57
(g78
g59
NtRp1360
(dp1361
g62
(dp1362
g89
g90
ssg71
g1351
sg64
(lp1363
S':'
asbag57
(g78
g59
NtRp1364
(dp1365
g62
(dp1366
sg71
g1351
sg64
(lp1367
g57
(g58
g59
NtRp1368
(dp1369
g62
(dp1370
g70
I4
ssg71
g1364
sg64
(lp1371
S'set([])'
p1372
asbasbasbag57
(g73
g59
NtRp1373
(dp1374
g62
(dp1375
sg71
g1256
sg64
(lp1376
g57
(g78
g59
NtRp1377
(dp1378
g62
(dp1379
g82
g83
ssg71
g1373
sg64
(lp1380
S'debugging'
p1381
asbag57
(g78
g59
NtRp1382
(dp1383
g62
(dp1384
g89
g90
ssg71
g1373
sg64
(lp1385
S':'
asbag57
(g78
g59
NtRp1386
(dp1387
g62
(dp1388
sg71
g1373
sg64
(lp1389
g57
(g58
g59
NtRp1390
(dp1391
g62
(dp1392
g70
I4
ssg71
g1386
sg64
(lp1393
g100
asbasbasbag57
(g73
g59
NtRp1394
(dp1395
g62
(dp1396
sg71
g1256
sg64
(lp1397
g57
(g78
g59
NtRp1398
(dp1399
g62
(dp1400
g82
g83
ssg71
g1394
sg64
(lp1401
S'gluon_parent'
p1402
asbag57
(g78
g59
NtRp1403
(dp1404
g62
(dp1405
g89
g90
ssg71
g1394
sg64
(lp1406
S':'
asbag57
(g78
g59
NtRp1407
(dp1408
g62
(dp1409
sg71
g1394
sg64
(lp1410
g57
(g58
g59
NtRp1411
(dp1412
g62
(dp1413
g70
I4
ssg71
g1407
sg64
(lp1414
S'/home/emp2web/webcast/web2py'
p1415
asbasbasbag57
(g73
g59
NtRp1416
(dp1417
g62
(dp1418
sg71
g1256
sg64
(lp1419
g57
(g78
g59
NtRp1420
(dp1421
g62
(dp1422
g82
g83
ssg71
g1416
sg64
(lp1423
S'http_accept'
p1424
asbag57
(g78
g59
NtRp1425
(dp1426
g62
(dp1427
g89
g90
ssg71
g1416
sg64
(lp1428
S':'
asbag57
(g78
g59
NtRp1429
(dp1430
g62
(dp1431
sg71
g1416
sg64
(lp1432
g57
(g58
g59
NtRp1433
(dp1434
g62
(dp1435
g70
I4
ssg71
g1429
sg64
(lp1436
S'text/html,application/xhtml+xml,application/xml;q=0.9,*/*;q=0.8'
p1437
asbasbasbag57
(g73
g59
NtRp1438
(dp1439
g62
(dp1440
sg71
g1256
sg64
(lp1441
g57
(g78
g59
NtRp1442
(dp1443
g62
(dp1444
g82
g83
ssg71
g1438
sg64
(lp1445
S'http_accept_charset'
p1446
asbag57
(g78
g59
NtRp1447
(dp1448
g62
(dp1449
g89
g90
ssg71
g1438
sg64
(lp1450
S':'
asbag57
(g78
g59
NtRp1451
(dp1452
g62
(dp1453
sg71
g1438
sg64
(lp1454
g57
(g58
g59
NtRp1455
(dp1456
g62
(dp1457
g70
I4
ssg71
g1451
sg64
(lp1458
S'ISO-8859-1,utf-8;q=0.7,*;q=0.3'
p1459
asbasbasbag57
(g73
g59
NtRp1460
(dp1461
g62
(dp1462
sg71
g1256
sg64
(lp1463
g57
(g78
g59
NtRp1464
(dp1465
g62
(dp1466
g82
g83
ssg71
g1460
sg64
(lp1467
S'http_accept_encoding'
p1468
asbag57
(g78
g59
NtRp1469
(dp1470
g62
(dp1471
g89
g90
ssg71
g1460
sg64
(lp1472
S':'
asbag57
(g78
g59
NtRp1473
(dp1474
g62
(dp1475
sg71
g1460
sg64
(lp1476
g57
(g58
g59
NtRp1477
(dp1478
g62
(dp1479
g70
I4
ssg71
g1473
sg64
(lp1480
S'gzip,deflate,sdch'
p1481
asbasbasbag57
(g73
g59
NtRp1482
(dp1483
g62
(dp1484
sg71
g1256
sg64
(lp1485
g57
(g78
g59
NtRp1486
(dp1487
g62
(dp1488
g82
g83
ssg71
g1482
sg64
(lp1489
S'http_accept_language'
p1490
asbag57
(g78
g59
NtRp1491
(dp1492
g62
(dp1493
g89
g90
ssg71
g1482
sg64
(lp1494
S':'
asbag57
(g78
g59
NtRp1495
(dp1496
g62
(dp1497
sg71
g1482
sg64
(lp1498
g57
(g58
g59
NtRp1499
(dp1500
g62
(dp1501
g70
I4
ssg71
g1495
sg64
(lp1502
S'es-ES,es;q=0.8'
p1503
asbasbasbag57
(g73
g59
NtRp1504
(dp1505
g62
(dp1506
sg71
g1256
sg64
(lp1507
g57
(g78
g59
NtRp1508
(dp1509
g62
(dp1510
g82
g83
ssg71
g1504
sg64
(lp1511
S'http_connection'
p1512
asbag57
(g78
g59
NtRp1513
(dp1514
g62
(dp1515
g89
g90
ssg71
g1504
sg64
(lp1516
S':'
asbag57
(g78
g59
NtRp1517
(dp1518
g62
(dp1519
sg71
g1504
sg64
(lp1520
g57
(g58
g59
NtRp1521
(dp1522
g62
(dp1523
g70
I4
ssg71
g1517
sg64
(lp1524
S'keep-alive'
p1525
asbasbasbag57
(g73
g59
NtRp1526
(dp1527
g62
(dp1528
sg71
g1256
sg64
(lp1529
g57
(g78
g59
NtRp1530
(dp1531
g62
(dp1532
g82
g83
ssg71
g1526
sg64
(lp1533
S'http_cookie'
p1534
asbag57
(g78
g59
NtRp1535
(dp1536
g62
(dp1537
g89
g90
ssg71
g1526
sg64
(lp1538
S':'
asbag57
(g78
g59
NtRp1539
(dp1540
g62
(dp1541
sg71
g1526
sg64
(lp1542
g57
(g58
g59
NtRp1543
(dp1544
g62
(dp1545
g70
I4
ssg71
g1539
sg64
(lp1546
S'size=4; CP.mode=B; session_id_welcome=127.0.0.1-c8e186f8-735f-483e-9656-57e94bd318d4; session_id_admin=127.0.0.1-59d830b7-3426-4408-b007-2063f315657f; session_id_proyectos=127.0.0.1-be82b3d9-4d64-4bfc-8d3a-c456e8044ba2'
p1547
asbasbasbag57
(g73
g59
NtRp1548
(dp1549
g62
(dp1550
sg71
g1256
sg64
(lp1551
g57
(g78
g59
NtRp1552
(dp1553
g62
(dp1554
g82
g83
ssg71
g1548
sg64
(lp1555
S'http_host'
p1556
asbag57
(g78
g59
NtRp1557
(dp1558
g62
(dp1559
g89
g90
ssg71
g1548
sg64
(lp1560
S':'
asbag57
(g78
g59
NtRp1561
(dp1562
g62
(dp1563
sg71
g1548
sg64
(lp1564
g57
(g58
g59
NtRp1565
(dp1566
g62
(dp1567
g70
I4
ssg71
g1561
sg64
(lp1568
S'localhost:8000'
p1569
asbasbasbag57
(g73
g59
NtRp1570
(dp1571
g62
(dp1572
sg71
g1256
sg64
(lp1573
g57
(g78
g59
NtRp1574
(dp1575
g62
(dp1576
g82
g83
ssg71
g1570
sg64
(lp1577
S'http_referer'
p1578
asbag57
(g78
g59
NtRp1579
(dp1580
g62
(dp1581
g89
g90
ssg71
g1570
sg64
(lp1582
S':'
asbag57
(g78
g59
NtRp1583
(dp1584
g62
(dp1585
sg71
g1570
sg64
(lp1586
g57
(g58
g59
NtRp1587
(dp1588
g62
(dp1589
g70
I4
ssg71
g1583
sg64
(lp1590
S'http://localhost:8000/proyectos/configuracion/proyectos'
p1591
asbasbasbag57
(g73
g59
NtRp1592
(dp1593
g62
(dp1594
sg71
g1256
sg64
(lp1595
g57
(g78
g59
NtRp1596
(dp1597
g62
(dp1598
g82
g83
ssg71
g1592
sg64
(lp1599
S'http_user_agent'
p1600
asbag57
(g78
g59
NtRp1601
(dp1602
g62
(dp1603
g89
g90
ssg71
g1592
sg64
(lp1604
S':'
asbag57
(g78
g59
NtRp1605
(dp1606
g62
(dp1607
sg71
g1592
sg64
(lp1608
g57
(g58
g59
NtRp1609
(dp1610
g62
(dp1611
g70
I4
ssg71
g1605
sg64
(lp1612
S'Mozilla/5.0 (X11; Linux i686) AppleWebKit/535.19 (KHTML, like Gecko) Ubuntu/12.04 Chromium/18.0.1025.151 Chrome/18.0.1025.151 Safari/535.19'
p1613
asbasbasbag57
(g73
g59
NtRp1614
(dp1615
g62
(dp1616
sg71
g1256
sg64
(lp1617
g57
(g78
g59
NtRp1618
(dp1619
g62
(dp1620
g82
g83
ssg71
g1614
sg64
(lp1621
S'is_jython'
p1622
asbag57
(g78
g59
NtRp1623
(dp1624
g62
(dp1625
g89
g90
ssg71
g1614
sg64
(lp1626
S':'
asbag57
(g78
g59
NtRp1627
(dp1628
g62
(dp1629
sg71
g1614
sg64
(lp1630
g57
(g58
g59
NtRp1631
(dp1632
g62
(dp1633
g70
I4
ssg71
g1627
sg64
(lp1634
g100
asbasbasbag57
(g73
g59
NtRp1635
(dp1636
g62
(dp1637
sg71
g1256
sg64
(lp1638
g57
(g78
g59
NtRp1639
(dp1640
g62
(dp1641
g82
g83
ssg71
g1635
sg64
(lp1642
S'is_pypy'
p1643
asbag57
(g78
g59
NtRp1644
(dp1645
g62
(dp1646
g89
g90
ssg71
g1635
sg64
(lp1647
S':'
asbag57
(g78
g59
NtRp1648
(dp1649
g62
(dp1650
sg71
g1635
sg64
(lp1651
g57
(g58
g59
NtRp1652
(dp1653
g62
(dp1654
g70
I4
ssg71
g1648
sg64
(lp1655
g100
asbasbasbag57
(g73
g59
NtRp1656
(dp1657
g62
(dp1658
sg71
g1256
sg64
(lp1659
g57
(g78
g59
NtRp1660
(dp1661
g62
(dp1662
g82
g83
ssg71
g1656
sg64
(lp1663
S'path_info'
p1664
asbag57
(g78
g59
NtRp1665
(dp1666
g62
(dp1667
g89
g90
ssg71
g1656
sg64
(lp1668
S':'
asbag57
(g78
g59
NtRp1669
(dp1670
g62
(dp1671
sg71
g1656
sg64
(lp1672
g57
(g58
g59
NtRp1673
(dp1674
g62
(dp1675
g70
I4
ssg71
g1669
sg64
(lp1676
S'/proyectos/configuracion/proyectos/proyecto/new/proyecto'
p1677
asbasbasbag57
(g73
g59
NtRp1678
(dp1679
g62
(dp1680
sg71
g1256
sg64
(lp1681
g57
(g78
g59
NtRp1682
(dp1683
g62
(dp1684
g82
g83
ssg71
g1678
sg64
(lp1685
S'query_string'
p1686
asbag57
(g78
g59
NtRp1687
(dp1688
g62
(dp1689
g89
g90
ssg71
g1678
sg64
(lp1690
S':'
asbag57
(g78
g59
NtRp1691
(dp1692
g62
(dp1693
sg71
g1678
sg64
(lp1694
g57
(g58
g59
NtRp1695
(dp1696
g62
(dp1697
g70
I4
ssg71
g1691
sg64
(lp1698
S'_signature=21475d19d2616137dc811287703636f57f8d256e'
p1699
asbasbasbag57
(g73
g59
NtRp1700
(dp1701
g62
(dp1702
sg71
g1256
sg64
(lp1703
g57
(g78
g59
NtRp1704
(dp1705
g62
(dp1706
g82
g83
ssg71
g1700
sg64
(lp1707
S'remote_addr'
p1708
asbag57
(g78
g59
NtRp1709
(dp1710
g62
(dp1711
g89
g90
ssg71
g1700
sg64
(lp1712
S':'
asbag57
(g78
g59
NtRp1713
(dp1714
g62
(dp1715
sg71
g1700
sg64
(lp1716
g57
(g58
g59
NtRp1717
(dp1718
g62
(dp1719
g70
I4
ssg71
g1713
sg64
(lp1720
g251
asbasbasbag57
(g73
g59
NtRp1721
(dp1722
g62
(dp1723
sg71
g1256
sg64
(lp1724
g57
(g78
g59
NtRp1725
(dp1726
g62
(dp1727
g82
g83
ssg71
g1721
sg64
(lp1728
S'remote_port'
p1729
asbag57
(g78
g59
NtRp1730
(dp1731
g62
(dp1732
g89
g90
ssg71
g1721
sg64
(lp1733
S':'
asbag57
(g78
g59
NtRp1734
(dp1735
g62
(dp1736
sg71
g1721
sg64
(lp1737
g57
(g58
g59
NtRp1738
(dp1739
g62
(dp1740
g70
I4
ssg71
g1734
sg64
(lp1741
S'36866'
p1742
asbasbasbag57
(g73
g59
NtRp1743
(dp1744
g62
(dp1745
sg71
g1256
sg64
(lp1746
g57
(g78
g59
NtRp1747
(dp1748
g62
(dp1749
g82
g83
ssg71
g1743
sg64
(lp1750
S'request_method'
p1751
asbag57
(g78
g59
NtRp1752
(dp1753
g62
(dp1754
g89
g90
ssg71
g1743
sg64
(lp1755
S':'
asbag57
(g78
g59
NtRp1756
(dp1757
g62
(dp1758
sg71
g1743
sg64
(lp1759
g57
(g58
g59
NtRp1760
(dp1761
g62
(dp1762
g70
I4
ssg71
g1756
sg64
(lp1763
S'GET'
p1764
asbasbasbag57
(g73
g59
NtRp1765
(dp1766
g62
(dp1767
sg71
g1256
sg64
(lp1768
g57
(g78
g59
NtRp1769
(dp1770
g62
(dp1771
g82
g83
ssg71
g1765
sg64
(lp1772
S'request_uri'
p1773
asbag57
(g78
g59
NtRp1774
(dp1775
g62
(dp1776
g89
g90
ssg71
g1765
sg64
(lp1777
S':'
asbag57
(g78
g59
NtRp1778
(dp1779
g62
(dp1780
sg71
g1765
sg64
(lp1781
g57
(g58
g59
NtRp1782
(dp1783
g62
(dp1784
g70
I4
ssg71
g1778
sg64
(lp1785
S'/proyectos/configuracion/proyectos/proyecto/new/proyecto?_signature=21475d19d2616137dc811287703636f57f8d256e'
p1786
asbasbasbag57
(g73
g59
NtRp1787
(dp1788
g62
(dp1789
sg71
g1256
sg64
(lp1790
g57
(g78
g59
NtRp1791
(dp1792
g62
(dp1793
g82
g83
ssg71
g1787
sg64
(lp1794
S'script_name'
p1795
asbag57
(g78
g59
NtRp1796
(dp1797
g62
(dp1798
g89
g90
ssg71
g1787
sg64
(lp1799
S':'
asbag57
(g78
g59
NtRp1800
(dp1801
g62
(dp1802
sg71
g1787
sg64
(lp1803
g57
(g58
g59
NtRp1804
(dp1805
g62
(dp1806
g70
I4
ssg71
g1800
sg64
(lp1807
S''
asbasbasbag57
(g73
g59
NtRp1808
(dp1809
g62
(dp1810
sg71
g1256
sg64
(lp1811
g57
(g78
g59
NtRp1812
(dp1813
g62
(dp1814
g82
g83
ssg71
g1808
sg64
(lp1815
S'server_name'
p1816
asbag57
(g78
g59
NtRp1817
(dp1818
g62
(dp1819
g89
g90
ssg71
g1808
sg64
(lp1820
S':'
asbag57
(g78
g59
NtRp1821
(dp1822
g62
(dp1823
sg71
g1808
sg64
(lp1824
g57
(g58
g59
NtRp1825
(dp1826
g62
(dp1827
g70
I4
ssg71
g1821
sg64
(lp1828
S'emp2web-300E4A-300E5A-300E7A-3430EA-3530EA'
p1829
asbasbasbag57
(g73
g59
NtRp1830
(dp1831
g62
(dp1832
sg71
g1256
sg64
(lp1833
g57
(g78
g59
NtRp1834
(dp1835
g62
(dp1836
g82
g83
ssg71
g1830
sg64
(lp1837
S'server_port'
p1838
asbag57
(g78
g59
NtRp1839
(dp1840
g62
(dp1841
g89
g90
ssg71
g1830
sg64
(lp1842
S':'
asbag57
(g78
g59
NtRp1843
(dp1844
g62
(dp1845
sg71
g1830
sg64
(lp1846
g57
(g58
g59
NtRp1847
(dp1848
g62
(dp1849
g70
I4
ssg71
g1843
sg64
(lp1850
S'8000'
p1851
asbasbasbag57
(g73
g59
NtRp1852
(dp1853
g62
(dp1854
sg71
g1256
sg64
(lp1855
g57
(g78
g59
NtRp1856
(dp1857
g62
(dp1858
g82
g83
ssg71
g1852
sg64
(lp1859
S'server_protocol'
p1860
asbag57
(g78
g59
NtRp1861
(dp1862
g62
(dp1863
g89
g90
ssg71
g1852
sg64
(lp1864
S':'
asbag57
(g78
g59
NtRp1865
(dp1866
g62
(dp1867
sg71
g1852
sg64
(lp1868
g57
(g58
g59
NtRp1869
(dp1870
g62
(dp1871
g70
I4
ssg71
g1865
sg64
(lp1872
S'HTTP/1.1'
p1873
asbasbasbag57
(g73
g59
NtRp1874
(dp1875
g62
(dp1876
sg71
g1256
sg64
(lp1877
g57
(g78
g59
NtRp1878
(dp1879
g62
(dp1880
g82
g83
ssg71
g1874
sg64
(lp1881
S'server_software'
p1882
asbag57
(g78
g59
NtRp1883
(dp1884
g62
(dp1885
g89
g90
ssg71
g1874
sg64
(lp1886
S':'
asbag57
(g78
g59
NtRp1887
(dp1888
g62
(dp1889
sg71
g1874
sg64
(lp1890
g57
(g58
g59
NtRp1891
(dp1892
g62
(dp1893
g70
I4
ssg71
g1887
sg64
(lp1894
S'Rocket 1.2.4'
p1895
asbasbasbag57
(g73
g59
NtRp1896
(dp1897
g62
(dp1898
sg71
g1256
sg64
(lp1899
g57
(g78
g59
NtRp1900
(dp1901
g62
(dp1902
g82
g83
ssg71
g1896
sg64
(lp1903
S'web2py_crontype'
p1904
asbag57
(g78
g59
NtRp1905
(dp1906
g62
(dp1907
g89
g90
ssg71
g1896
sg64
(lp1908
S':'
asbag57
(g78
g59
NtRp1909
(dp1910
g62
(dp1911
sg71
g1896
sg64
(lp1912
g57
(g58
g59
NtRp1913
(dp1914
g62
(dp1915
g70
I4
ssg71
g1909
sg64
(lp1916
S'hard'
p1917
asbasbasbag57
(g73
g59
NtRp1918
(dp1919
g62
(dp1920
sg71
g1256
sg64
(lp1921
g57
(g78
g59
NtRp1922
(dp1923
g62
(dp1924
g82
g83
ssg71
g1918
sg64
(lp1925
S'web2py_path'
p1926
asbag57
(g78
g59
NtRp1927
(dp1928
g62
(dp1929
g89
g90
ssg71
g1918
sg64
(lp1930
S':'
asbag57
(g78
g59
NtRp1931
(dp1932
g62
(dp1933
sg71
g1918
sg64
(lp1934
g57
(g58
g59
NtRp1935
(dp1936
g62
(dp1937
g70
I4
ssg71
g1931
sg64
(lp1938
g1303
asbasbasbag57
(g73
g59
NtRp1939
(dp1940
g62
(dp1941
sg71
g1256
sg64
(lp1942
g57
(g78
g59
NtRp1943
(dp1944
g62
(dp1945
g82
g83
ssg71
g1939
sg64
(lp1946
S'web2py_version'
p1947
asbag57
(g78
g59
NtRp1948
(dp1949
g62
(dp1950
g89
g90
ssg71
g1939
sg64
(lp1951
S':'
asbag57
(g78
g59
NtRp1952
(dp1953
g62
(dp1954
sg71
g1939
sg64
(lp1955
g57
(g58
g59
NtRp1956
(dp1957
g62
(dp1958
g70
I4
ssg71
g1952
sg64
(lp1959
g57
(g66
g59
NtRp1960
(dp1961
g62
(dp1962
g70
I3
ssg71
Nsg64
(lp1963
g57
(g73
g59
NtRp1964
(dp1965
g62
(dp1966
sg71
g1960
sg64
(lp1967
g57
(g78
g59
NtRp1968
(dp1969
g62
(dp1970
sg71
g1964
sg64
(lp1971
g57
(g58
g59
NtRp1972
(dp1973
g62
(dp1974
g70
I3
ssg71
g1968
sg64
(lp1975
S'2'
asbasbasbag57
(g73
g59
NtRp1976
(dp1977
g62
(dp1978
sg71
g1960
sg64
(lp1979
g57
(g78
g59
NtRp1980
(dp1981
g62
(dp1982
sg71
g1976
sg64
(lp1983
g57
(g58
g59
NtRp1984
(dp1985
g62
(dp1986
g70
I3
ssg71
g1980
sg64
(lp1987
S'0'
asbasbasbag57
(g73
g59
NtRp1988
(dp1989
g62
(dp1990
sg71
g1960
sg64
(lp1991
g57
(g78
g59
NtRp1992
(dp1993
g62
(dp1994
sg71
g1988
sg64
(lp1995
g57
(g58
g59
NtRp1996
(dp1997
g62
(dp1998
g70
I3
ssg71
g1992
sg64
(lp1999
S'6'
asbasbasbag57
(g73
g59
NtRp2000
(dp2001
g62
(dp2002
sg71
g1960
sg64
(lp2003
g57
(g78
g59
NtRp2004
(dp2005
g62
(dp2006
sg71
g2000
sg64
(lp2007
g57
(g58
g59
NtRp2008
(dp2009
g62
(dp2010
g70
I3
ssg71
g2004
sg64
(lp2011
S'datetime.datetime(2012, 9, 2, 4, 44, 23)'
p2012
asbasbasbag57
(g73
g59
NtRp2013
(dp2014
g62
(dp2015
sg71
g1960
sg64
(lp2016
g57
(g78
g59
NtRp2017
(dp2018
g62
(dp2019
sg71
g2013
sg64
(lp2020
g57
(g58
g59
NtRp2021
(dp2022
g62
(dp2023
g70
I3
ssg71
g2017
sg64
(lp2024
S'stable'
p2025
asbasbasbasbasbasbasbag57
(g73
g59
NtRp2026
(dp2027
g62
(dp2028
sg71
g1256
sg64
(lp2029
g57
(g78
g59
NtRp2030
(dp2031
g62
(dp2032
g82
g83
ssg71
g2026
sg64
(lp2033
S'wsgi_errors'
p2034
asbag57
(g78
g59
NtRp2035
(dp2036
g62
(dp2037
g89
g90
ssg71
g2026
sg64
(lp2038
S':'
asbag57
(g78
g59
NtRp2039
(dp2040
g62
(dp2041
sg71
g2026
sg64
(lp2042
g57
(g58
g59
NtRp2043
(dp2044
g62
(dp2045
g70
I4
ssg71
g2039
sg64
(lp2046
S"<open file '<stderr>', mode 'w' at 0xb72ca0d0>"
p2047
asbasbasbag57
(g73
g59
NtRp2048
(dp2049
g62
(dp2050
sg71
g1256
sg64
(lp2051
g57
(g78
g59
NtRp2052
(dp2053
g62
(dp2054
g82
g83
ssg71
g2048
sg64
(lp2055
S'wsgi_file_wrapper'
p2056
asbag57
(g78
g59
NtRp2057
(dp2058
g62
(dp2059
g89
g90
ssg71
g2048
sg64
(lp2060
S':'
asbag57
(g78
g59
NtRp2061
(dp2062
g62
(dp2063
sg71
g2048
sg64
(lp2064
g57
(g58
g59
NtRp2065
(dp2066
g62
(dp2067
g70
I4
ssg71
g2061
sg64
(lp2068
S'<class wsgiref.util.FileWrapper at 0xa00e02c>'
p2069
asbasbasbag57
(g73
g59
NtRp2070
(dp2071
g62
(dp2072
sg71
g1256
sg64
(lp2073
g57
(g78
g59
NtRp2074
(dp2075
g62
(dp2076
g82
g83
ssg71
g2070
sg64
(lp2077
S'wsgi_input'
p2078
asbag57
(g78
g59
NtRp2079
(dp2080
g62
(dp2081
g89
g90
ssg71
g2070
sg64
(lp2082
S':'
asbag57
(g78
g59
NtRp2083
(dp2084
g62
(dp2085
sg71
g2070
sg64
(lp2086
g57
(g58
g59
NtRp2087
(dp2088
g62
(dp2089
g70
I4
ssg71
g2083
sg64
(lp2090
S'<socket._fileobject object at 0xad66c6ec>'
p2091
asbasbasbag57
(g73
g59
NtRp2092
(dp2093
g62
(dp2094
sg71
g1256
sg64
(lp2095
g57
(g78
g59
NtRp2096
(dp2097
g62
(dp2098
g82
g83
ssg71
g2092
sg64
(lp2099
S'wsgi_multiprocess'
p2100
asbag57
(g78
g59
NtRp2101
(dp2102
g62
(dp2103
g89
g90
ssg71
g2092
sg64
(lp2104
S':'
asbag57
(g78
g59
NtRp2105
(dp2106
g62
(dp2107
sg71
g2092
sg64
(lp2108
g57
(g58
g59
NtRp2109
(dp2110
g62
(dp2111
g70
I4
ssg71
g2105
sg64
(lp2112
g100
asbasbasbag57
(g73
g59
NtRp2113
(dp2114
g62
(dp2115
sg71
g1256
sg64
(lp2116
g57
(g78
g59
NtRp2117
(dp2118
g62
(dp2119
g82
g83
ssg71
g2113
sg64
(lp2120
S'wsgi_multithread'
p2121
asbag57
(g78
g59
NtRp2122
(dp2123
g62
(dp2124
g89
g90
ssg71
g2113
sg64
(lp2125
S':'
asbag57
(g78
g59
NtRp2126
(dp2127
g62
(dp2128
sg71
g2113
sg64
(lp2129
g57
(g58
g59
NtRp2130
(dp2131
g62
(dp2132
g70
I4
ssg71
g2126
sg64
(lp2133
S'True'
p2134
asbasbasbag57
(g73
g59
NtRp2135
(dp2136
g62
(dp2137
sg71
g1256
sg64
(lp2138
g57
(g78
g59
NtRp2139
(dp2140
g62
(dp2141
g82
g83
ssg71
g2135
sg64
(lp2142
S'wsgi_run_once'
p2143
asbag57
(g78
g59
NtRp2144
(dp2145
g62
(dp2146
g89
g90
ssg71
g2135
sg64
(lp2147
S':'
asbag57
(g78
g59
NtRp2148
(dp2149
g62
(dp2150
sg71
g2135
sg64
(lp2151
g57
(g58
g59
NtRp2152
(dp2153
g62
(dp2154
g70
I4
ssg71
g2148
sg64
(lp2155
g100
asbasbasbag57
(g73
g59
NtRp2156
(dp2157
g62
(dp2158
sg71
g1256
sg64
(lp2159
g57
(g78
g59
NtRp2160
(dp2161
g62
(dp2162
g82
g83
ssg71
g2156
sg64
(lp2163
S'wsgi_url_scheme'
p2164
asbag57
(g78
g59
NtRp2165
(dp2166
g62
(dp2167
g89
g90
ssg71
g2156
sg64
(lp2168
S':'
asbag57
(g78
g59
NtRp2169
(dp2170
g62
(dp2171
sg71
g2156
sg64
(lp2172
g57
(g58
g59
NtRp2173
(dp2174
g62
(dp2175
g70
I4
ssg71
g2169
sg64
(lp2176
S'http'
p2177
asbasbasbag57
(g73
g59
NtRp2178
(dp2179
g62
(dp2180
sg71
g1256
sg64
(lp2181
g57
(g78
g59
NtRp2182
(dp2183
g62
(dp2184
g82
g83
ssg71
g2178
sg64
(lp2185
S'wsgi_version'
p2186
asbag57
(g78
g59
NtRp2187
(dp2188
g62
(dp2189
g89
g90
ssg71
g2178
sg64
(lp2190
S':'
asbag57
(g78
g59
NtRp2191
(dp2192
g62
(dp2193
sg71
g2178
sg64
(lp2194
g57
(g58
g59
NtRp2195
(dp2196
g62
(dp2197
g70
I4
ssg71
g2191
sg64
(lp2198
g57
(g66
g59
NtRp2199
(dp2200
g62
(dp2201
g70
I3
ssg71
Nsg64
(lp2202
g57
(g73
g59
NtRp2203
(dp2204
g62
(dp2205
sg71
g2199
sg64
(lp2206
g57
(g78
g59
NtRp2207
(dp2208
g62
(dp2209
sg71
g2203
sg64
(lp2210
g57
(g58
g59
NtRp2211
(dp2212
g62
(dp2213
g70
I3
ssg71
g2207
sg64
(lp2214
S'1'
asbasbasbag57
(g73
g59
NtRp2215
(dp2216
g62
(dp2217
sg71
g2199
sg64
(lp2218
g57
(g78
g59
NtRp2219
(dp2220
g62
(dp2221
sg71
g2215
sg64
(lp2222
g57
(g58
g59
NtRp2223
(dp2224
g62
(dp2225
g70
I3
ssg71
g2219
sg64
(lp2226
S'0'
asbasbasbasbasbasbasbasbasbasbasbag57
(g73
g59
NtRp2227
(dp2228
g62
(dp2229
sg71
g67
sg64
(lp2230
g57
(g78
g59
NtRp2231
(dp2232
g62
(dp2233
g82
g83
ssg71
g2227
sg64
(lp2234
S'extension'
p2235
asbag57
(g78
g59
NtRp2236
(dp2237
g62
(dp2238
g89
g90
ssg71
g2227
sg64
(lp2239
S':'
asbag57
(g78
g59
NtRp2240
(dp2241
g62
(dp2242
sg71
g2227
sg64
(lp2243
g57
(g58
g59
NtRp2244
(dp2245
g62
(dp2246
g70
I5
ssg71
g2240
sg64
(lp2247
S'html'
p2248
asbasbasbag57
(g73
g59
NtRp2249
(dp2250
g62
(dp2251
sg71
g67
sg64
(lp2252
g57
(g78
g59
NtRp2253
(dp2254
g62
(dp2255
g82
g83
ssg71
g2249
sg64
(lp2256
S'folder'
p2257
asbag57
(g78
g59
NtRp2258
(dp2259
g62
(dp2260
g89
g90
ssg71
g2249
sg64
(lp2261
S':'
asbag57
(g78
g59
NtRp2262
(dp2263
g62
(dp2264
sg71
g2249
sg64
(lp2265
g57
(g58
g59
NtRp2266
(dp2267
g62
(dp2268
g70
I5
ssg71
g2262
sg64
(lp2269
S'/home/emp2web/webcast/web2py/applications/proyectos/'
p2270
asbasbasbag57
(g73
g59
NtRp2271
(dp2272
g62
(dp2273
sg71
g67
sg64
(lp2274
g57
(g78
g59
NtRp2275
(dp2276
g62
(dp2277
g82
g83
ssg71
g2271
sg64
(lp2278
S'function'
p2279
asbag57
(g78
g59
NtRp2280
(dp2281
g62
(dp2282
g89
g90
ssg71
g2271
sg64
(lp2283
S':'
asbag57
(g78
g59
NtRp2284
(dp2285
g62
(dp2286
sg71
g2271
sg64
(lp2287
g57
(g58
g59
NtRp2288
(dp2289
g62
(dp2290
g70
I5
ssg71
g2284
sg64
(lp2291
S'proyectos'
p2292
asbasbasbag57
(g73
g59
NtRp2293
(dp2294
g62
(dp2295
sg71
g67
sg64
(lp2296
g57
(g78
g59
NtRp2297
(dp2298
g62
(dp2299
g82
g83
ssg71
g2293
sg64
(lp2300
S'get_vars'
p2301
asbag57
(g78
g59
NtRp2302
(dp2303
g62
(dp2304
g89
g90
ssg71
g2293
sg64
(lp2305
S':'
asbag57
(g78
g59
NtRp2306
(dp2307
g62
(dp2308
sg71
g2293
sg64
(lp2309
g57
(g58
g59
NtRp2310
(dp2311
g62
(dp2312
g70
I5
ssg71
g2306
sg64
(lp2313
g57
(g66
g59
NtRp2314
(dp2315
g62
(dp2316
g70
I4
ssg71
Nsg64
(lp2317
sbasbasbasbag57
(g73
g59
NtRp2318
(dp2319
g62
(dp2320
sg71
g67
sg64
(lp2321
g57
(g78
g59
NtRp2322
(dp2323
g62
(dp2324
g82
g83
ssg71
g2318
sg64
(lp2325
S'global_settings'
p2326
asbag57
(g78
g59
NtRp2327
(dp2328
g62
(dp2329
g89
g90
ssg71
g2318
sg64
(lp2330
S':'
asbag57
(g78
g59
NtRp2331
(dp2332
g62
(dp2333
sg71
g2318
sg64
(lp2334
g57
(g58
g59
NtRp2335
(dp2336
g62
(dp2337
g70
I5
ssg71
g2331
sg64
(lp2338
g57
(g66
g59
NtRp2339
(dp2340
g62
(dp2341
g70
I4
ssg71
Nsg64
(lp2342
g57
(g73
g59
NtRp2343
(dp2344
g62
(dp2345
sg71
g2339
sg64
(lp2346
g57
(g78
g59
NtRp2347
(dp2348
g62
(dp2349
g82
g83
ssg71
g2343
sg64
(lp2350
g1268
asbag57
(g78
g59
NtRp2351
(dp2352
g62
(dp2353
g89
g90
ssg71
g2343
sg64
(lp2354
S':'
asbag57
(g78
g59
NtRp2355
(dp2356
g62
(dp2357
sg71
g2343
sg64
(lp2358
g57
(g58
g59
NtRp2359
(dp2360
g62
(dp2361
g70
I4
ssg71
g2355
sg64
(lp2362
S"set(['/home/emp2web/webcast/web2py/applications/examples/', '/home/emp2web/webcast/web2py/applications/welcome/', '/home/emp2web/webcast/web2py/applications/admin/', '/home/emp2web/webcast/web2py/applications/proyectos/'])"
p2363
asbasbasbag57
(g73
g59
NtRp2364
(dp2365
g62
(dp2366
sg71
g2339
sg64
(lp2367
g57
(g78
g59
NtRp2368
(dp2369
g62
(dp2370
g82
g83
ssg71
g2364
sg64
(lp2371
g1290
asbag57
(g78
g59
NtRp2372
(dp2373
g62
(dp2374
g89
g90
ssg71
g2364
sg64
(lp2375
S':'
asbag57
(g78
g59
NtRp2376
(dp2377
g62
(dp2378
sg71
g2364
sg64
(lp2379
g57
(g58
g59
NtRp2380
(dp2381
g62
(dp2382
g70
I4
ssg71
g2376
sg64
(lp2383
g1303
asbasbasbag57
(g73
g59
NtRp2384
(dp2385
g62
(dp2386
sg71
g2339
sg64
(lp2387
g57
(g78
g59
NtRp2388
(dp2389
g62
(dp2390
g82
g83
ssg71
g2384
sg64
(lp2391
g1312
asbag57
(g78
g59
NtRp2392
(dp2393
g62
(dp2394
g89
g90
ssg71
g2384
sg64
(lp2395
S':'
asbag57
(g78
g59
NtRp2396
(dp2397
g62
(dp2398
sg71
g2384
sg64
(lp2399
g57
(g58
g59
NtRp2400
(dp2401
g62
(dp2402
g70
I4
ssg71
g2396
sg64
(lp2403
g57
(g66
g59
NtRp2404
(dp2405
g62
(dp2406
g70
I3
ssg71
Nsg64
(lp2407
sbasbasbasbag57
(g73
g59
NtRp2408
(dp2409
g62
(dp2410
sg71
g2339
sg64
(lp2411
g57
(g78
g59
NtRp2412
(dp2413
g62
(dp2414
g82
g83
ssg71
g2408
sg64
(lp2415
g1337
asbag57
(g78
g59
NtRp2416
(dp2417
g62
(dp2418
g89
g90
ssg71
g2408
sg64
(lp2419
S':'
asbag57
(g78
g59
NtRp2420
(dp2421
g62
(dp2422
sg71
g2408
sg64
(lp2423
g57
(g58
g59
NtRp2424
(dp2425
g62
(dp2426
g70
I4
ssg71
g2420
sg64
(lp2427
S"<Values at 0xa03ad8c: {'verbose': False, 'ip': '127.0.0.1', 'with_scheduler': False, 'ips': ['127.0.1.1'], 'shutdown_timeout': 5, 'taskbar': False, 'port': 8000, 'maxthreads': None, 'softcron': False, 'server_name': 'emp2web-300E4A-300E5A-300E7A-3430EA-3530EA', 'bpython': False, 'nogui': False, 'nocron': False, 'extcron': False, 'run_system_tests': False, 'test': None, 'folder': '/home/emp2web/webcast/web2py', 'config': '', 'import_models': False, 'winservice': '', 'shell': None, 'run': '', 'log_filename': 'httpserver.log', 'debuglevel': 30, 'args': [''], 'socket_timeout': 5, 'ssl_ca_certificate': None, 'scheduler': None, 'profiler_filename': None, 'ssl_private_key': '', 'scheduler_groups': None, 'password': 'web2py', 'request_queue_size': 5, 'ssl_certificate': '', 'cronjob': False, 'numthreads': None, 'quiet': False, 'interfaces': None, 'minthreads': None, 'timeout': 10, 'plain': False, 'nobanner': False, 'pid_filename': 'httpserver.pid'}>"
p2428
asbasbasbag57
(g73
g59
NtRp2429
(dp2430
g62
(dp2431
sg71
g2339
sg64
(lp2432
g57
(g78
g59
NtRp2433
(dp2434
g62
(dp2435
g82
g83
ssg71
g2429
sg64
(lp2436
g1359
asbag57
(g78
g59
NtRp2437
(dp2438
g62
(dp2439
g89
g90
ssg71
g2429
sg64
(lp2440
S':'
asbag57
(g78
g59
NtRp2441
(dp2442
g62
(dp2443
sg71
g2429
sg64
(lp2444
g57
(g58
g59
NtRp2445
(dp2446
g62
(dp2447
g70
I4
ssg71
g2441
sg64
(lp2448
S'set([])'
p2449
asbasbasbag57
(g73
g59
NtRp2450
(dp2451
g62
(dp2452
sg71
g2339
sg64
(lp2453
g57
(g78
g59
NtRp2454
(dp2455
g62
(dp2456
g82
g83
ssg71
g2450
sg64
(lp2457
g1381
asbag57
(g78
g59
NtRp2458
(dp2459
g62
(dp2460
g89
g90
ssg71
g2450
sg64
(lp2461
S':'
asbag57
(g78
g59
NtRp2462
(dp2463
g62
(dp2464
sg71
g2450
sg64
(lp2465
g57
(g58
g59
NtRp2466
(dp2467
g62
(dp2468
g70
I4
ssg71
g2462
sg64
(lp2469
g100
asbasbasbag57
(g73
g59
NtRp2470
(dp2471
g62
(dp2472
sg71
g2339
sg64
(lp2473
g57
(g78
g59
NtRp2474
(dp2475
g62
(dp2476
g82
g83
ssg71
g2470
sg64
(lp2477
g1402
asbag57
(g78
g59
NtRp2478
(dp2479
g62
(dp2480
g89
g90
ssg71
g2470
sg64
(lp2481
S':'
asbag57
(g78
g59
NtRp2482
(dp2483
g62
(dp2484
sg71
g2470
sg64
(lp2485
g57
(g58
g59
NtRp2486
(dp2487
g62
(dp2488
g70
I4
ssg71
g2482
sg64
(lp2489
g1415
asbasbasbag57
(g73
g59
NtRp2490
(dp2491
g62
(dp2492
sg71
g2339
sg64
(lp2493
g57
(g78
g59
NtRp2494
(dp2495
g62
(dp2496
g82
g83
ssg71
g2490
sg64
(lp2497
g1622
asbag57
(g78
g59
NtRp2498
(dp2499
g62
(dp2500
g89
g90
ssg71
g2490
sg64
(lp2501
S':'
asbag57
(g78
g59
NtRp2502
(dp2503
g62
(dp2504
sg71
g2490
sg64
(lp2505
g57
(g58
g59
NtRp2506
(dp2507
g62
(dp2508
g70
I4
ssg71
g2502
sg64
(lp2509
g100
asbasbasbag57
(g73
g59
NtRp2510
(dp2511
g62
(dp2512
sg71
g2339
sg64
(lp2513
g57
(g78
g59
NtRp2514
(dp2515
g62
(dp2516
g82
g83
ssg71
g2510
sg64
(lp2517
g1643
asbag57
(g78
g59
NtRp2518
(dp2519
g62
(dp2520
g89
g90
ssg71
g2510
sg64
(lp2521
S':'
asbag57
(g78
g59
NtRp2522
(dp2523
g62
(dp2524
sg71
g2510
sg64
(lp2525
g57
(g58
g59
NtRp2526
(dp2527
g62
(dp2528
g70
I4
ssg71
g2522
sg64
(lp2529
g100
asbasbasbag57
(g73
g59
NtRp2530
(dp2531
g62
(dp2532
sg71
g2339
sg64
(lp2533
g57
(g78
g59
NtRp2534
(dp2535
g62
(dp2536
g82
g83
ssg71
g2530
sg64
(lp2537
g1904
asbag57
(g78
g59
NtRp2538
(dp2539
g62
(dp2540
g89
g90
ssg71
g2530
sg64
(lp2541
S':'
asbag57
(g78
g59
NtRp2542
(dp2543
g62
(dp2544
sg71
g2530
sg64
(lp2545
g57
(g58
g59
NtRp2546
(dp2547
g62
(dp2548
g70
I4
ssg71
g2542
sg64
(lp2549
g1917
asbasbasbag57
(g73
g59
NtRp2550
(dp2551
g62
(dp2552
sg71
g2339
sg64
(lp2553
g57
(g78
g59
NtRp2554
(dp2555
g62
(dp2556
g82
g83
ssg71
g2550
sg64
(lp2557
g1947
asbag57
(g78
g59
NtRp2558
(dp2559
g62
(dp2560
g89
g90
ssg71
g2550
sg64
(lp2561
S':'
asbag57
(g78
g59
NtRp2562
(dp2563
g62
(dp2564
sg71
g2550
sg64
(lp2565
g57
(g58
g59
NtRp2566
(dp2567
g62
(dp2568
g70
I4
ssg71
g2562
sg64
(lp2569
g57
(g66
g59
NtRp2570
(dp2571
g62
(dp2572
g70
I3
ssg71
Nsg64
(lp2573
g57
(g73
g59
NtRp2574
(dp2575
g62
(dp2576
sg71
g2570
sg64
(lp2577
g57
(g78
g59
NtRp2578
(dp2579
g62
(dp2580
sg71
g2574
sg64
(lp2581
g57
(g58
g59
NtRp2582
(dp2583
g62
(dp2584
g70
I3
ssg71
g2578
sg64
(lp2585
S'2'
asbasbasbag57
(g73
g59
NtRp2586
(dp2587
g62
(dp2588
sg71
g2570
sg64
(lp2589
g57
(g78
g59
NtRp2590
(dp2591
g62
(dp2592
sg71
g2586
sg64
(lp2593
g57
(g58
g59
NtRp2594
(dp2595
g62
(dp2596
g70
I3
ssg71
g2590
sg64
(lp2597
S'0'
asbasbasbag57
(g73
g59
NtRp2598
(dp2599
g62
(dp2600
sg71
g2570
sg64
(lp2601
g57
(g78
g59
NtRp2602
(dp2603
g62
(dp2604
sg71
g2598
sg64
(lp2605
g57
(g58
g59
NtRp2606
(dp2607
g62
(dp2608
g70
I3
ssg71
g2602
sg64
(lp2609
S'6'
asbasbasbag57
(g73
g59
NtRp2610
(dp2611
g62
(dp2612
sg71
g2570
sg64
(lp2613
g57
(g78
g59
NtRp2614
(dp2615
g62
(dp2616
sg71
g2610
sg64
(lp2617
g57
(g58
g59
NtRp2618
(dp2619
g62
(dp2620
g70
I3
ssg71
g2614
sg64
(lp2621
S'datetime.datetime(2012, 9, 2, 4, 44, 23)'
p2622
asbasbasbag57
(g73
g59
NtRp2623
(dp2624
g62
(dp2625
sg71
g2570
sg64
(lp2626
g57
(g78
g59
NtRp2627
(dp2628
g62
(dp2629
sg71
g2623
sg64
(lp2630
g57
(g58
g59
NtRp2631
(dp2632
g62
(dp2633
g70
I3
ssg71
g2627
sg64
(lp2634
g2025
asbasbasbasbasbasbasbasbasbasbasbag57
(g73
g59
NtRp2635
(dp2636
g62
(dp2637
sg71
g67
sg64
(lp2638
g57
(g78
g59
NtRp2639
(dp2640
g62
(dp2641
g82
g83
ssg71
g2635
sg64
(lp2642
S'is_https'
p2643
asbag57
(g78
g59
NtRp2644
(dp2645
g62
(dp2646
g89
g90
ssg71
g2635
sg64
(lp2647
S':'
asbag57
(g78
g59
NtRp2648
(dp2649
g62
(dp2650
sg71
g2635
sg64
(lp2651
g57
(g58
g59
NtRp2652
(dp2653
g62
(dp2654
g70
I5
ssg71
g2648
sg64
(lp2655
g100
asbasbasbag57
(g73
g59
NtRp2656
(dp2657
g62
(dp2658
sg71
g67
sg64
(lp2659
g57
(g78
g59
NtRp2660
(dp2661
g62
(dp2662
g82
g83
ssg71
g2656
sg64
(lp2663
S'is_local'
p2664
asbag57
(g78
g59
NtRp2665
(dp2666
g62
(dp2667
g89
g90
ssg71
g2656
sg64
(lp2668
S':'
asbag57
(g78
g59
NtRp2669
(dp2670
g62
(dp2671
sg71
g2656
sg64
(lp2672
g57
(g58
g59
NtRp2673
(dp2674
g62
(dp2675
g70
I5
ssg71
g2669
sg64
(lp2676
g2134
asbasbasbag57
(g73
g59
NtRp2677
(dp2678
g62
(dp2679
sg71
g67
sg64
(lp2680
g57
(g78
g59
NtRp2681
(dp2682
g62
(dp2683
g82
g83
ssg71
g2677
sg64
(lp2684
S'is_restful'
p2685
asbag57
(g78
g59
NtRp2686
(dp2687
g62
(dp2688
g89
g90
ssg71
g2677
sg64
(lp2689
S':'
asbag57
(g78
g59
NtRp2690
(dp2691
g62
(dp2692
sg71
g2677
sg64
(lp2693
g57
(g58
g59
NtRp2694
(dp2695
g62
(dp2696
g70
I5
ssg71
g2690
sg64
(lp2697
g100
asbasbasbag57
(g73
g59
NtRp2698
(dp2699
g62
(dp2700
sg71
g67
sg64
(lp2701
g57
(g78
g59
NtRp2702
(dp2703
g62
(dp2704
g82
g83
ssg71
g2698
sg64
(lp2705
S'now'
p2706
asbag57
(g78
g59
NtRp2707
(dp2708
g62
(dp2709
g89
g90
ssg71
g2698
sg64
(lp2710
S':'
asbag57
(g78
g59
NtRp2711
(dp2712
g62
(dp2713
sg71
g2698
sg64
(lp2714
g57
(g58
g59
NtRp2715
(dp2716
g62
(dp2717
g70
I5
ssg71
g2711
sg64
(lp2718
S'datetime.datetime(2012, 9, 6, 16, 29, 25, 510314)'
p2719
asbasbasbag57
(g73
g59
NtRp2720
(dp2721
g62
(dp2722
sg71
g67
sg64
(lp2723
g57
(g78
g59
NtRp2724
(dp2725
g62
(dp2726
g82
g83
ssg71
g2720
sg64
(lp2727
S'post_vars'
p2728
asbag57
(g78
g59
NtRp2729
(dp2730
g62
(dp2731
g89
g90
ssg71
g2720
sg64
(lp2732
S':'
asbag57
(g78
g59
NtRp2733
(dp2734
g62
(dp2735
sg71
g2720
sg64
(lp2736
g57
(g58
g59
NtRp2737
(dp2738
g62
(dp2739
g70
I5
ssg71
g2733
sg64
(lp2740
g57
(g66
g59
NtRp2741
(dp2742
g62
(dp2743
g70
I4
ssg71
Nsg64
(lp2744
sbasbasbasbag57
(g73
g59
NtRp2745
(dp2746
g62
(dp2747
sg71
g67
sg64
(lp2748
g57
(g78
g59
NtRp2749
(dp2750
g62
(dp2751
g82
g83
ssg71
g2745
sg64
(lp2752
S'raw_args'
p2753
asbag57
(g78
g59
NtRp2754
(dp2755
g62
(dp2756
g89
g90
ssg71
g2745
sg64
(lp2757
S':'
asbag57
(g78
g59
NtRp2758
(dp2759
g62
(dp2760
sg71
g2745
sg64
(lp2761
g57
(g58
g59
NtRp2762
(dp2763
g62
(dp2764
g70
I5
ssg71
g2758
sg64
(lp2765
S'proyecto/new/proyecto'
p2766
asbasbasbag57
(g73
g59
NtRp2767
(dp2768
g62
(dp2769
sg71
g67
sg64
(lp2770
g57
(g78
g59
NtRp2771
(dp2772
g62
(dp2773
g82
g83
ssg71
g2767
sg64
(lp2774
S'raw_extension'
p2775
asbag57
(g78
g59
NtRp2776
(dp2777
g62
(dp2778
g89
g90
ssg71
g2767
sg64
(lp2779
S':'
asbag57
(g78
g59
NtRp2780
(dp2781
g62
(dp2782
sg71
g2767
sg64
(lp2783
g57
(g58
g59
NtRp2784
(dp2785
g62
(dp2786
g70
I5
ssg71
g2780
sg64
(lp2787
S'None'
p2788
asbasbasbag57
(g73
g59
NtRp2789
(dp2790
g62
(dp2791
sg71
g67
sg64
(lp2792
g57
(g78
g59
NtRp2793
(dp2794
g62
(dp2795
g82
g83
ssg71
g2789
sg64
(lp2796
S'url'
p2797
asbag57
(g78
g59
NtRp2798
(dp2799
g62
(dp2800
g89
g90
ssg71
g2789
sg64
(lp2801
S':'
asbag57
(g78
g59
NtRp2802
(dp2803
g62
(dp2804
sg71
g2789
sg64
(lp2805
g57
(g58
g59
NtRp2806
(dp2807
g62
(dp2808
g70
I5
ssg71
g2802
sg64
(lp2809
S'/proyectos/configuracion/proyectos/proyecto/new/proyecto'
p2810
asbasbasbag57
(g73
g59
NtRp2811
(dp2812
g62
(dp2813
sg71
g67
sg64
(lp2814
g57
(g78
g59
NtRp2815
(dp2816
g62
(dp2817
g82
g83
ssg71
g2811
sg64
(lp2818
S'utcnow'
p2819
asbag57
(g78
g59
NtRp2820
(dp2821
g62
(dp2822
g89
g90
ssg71
g2811
sg64
(lp2823
S':'
asbag57
(g78
g59
NtRp2824
(dp2825
g62
(dp2826
sg71
g2811
sg64
(lp2827
g57
(g58
g59
NtRp2828
(dp2829
g62
(dp2830
g70
I5
ssg71
g2824
sg64
(lp2831
S'datetime.datetime(2012, 9, 6, 21, 29, 25, 510345)'
p2832
asbasbasbag57
(g73
g59
NtRp2833
(dp2834
g62
(dp2835
sg71
g67
sg64
(lp2836
g57
(g78
g59
NtRp2837
(dp2838
g62
(dp2839
g82
g83
ssg71
g2833
sg64
(lp2840
S'uuid'
p2841
asbag57
(g78
g59
NtRp2842
(dp2843
g62
(dp2844
g89
g90
ssg71
g2833
sg64
(lp2845
S':'
asbag57
(g78
g59
NtRp2846
(dp2847
g62
(dp2848
sg71
g2833
sg64
(lp2849
g57
(g58
g59
NtRp2850
(dp2851
g62
(dp2852
g70
I5
ssg71
g2846
sg64
(lp2853
S'proyectos/127.0.0.1.2012-09-06.16-29-25.97dd16b8-151b-40d8-a511-53204b3f0054'
p2854
asbasbasbag57
(g73
g59
NtRp2855
(dp2856
g62
(dp2857
sg71
g67
sg64
(lp2858
g57
(g78
g59
NtRp2859
(dp2860
g62
(dp2861
g82
g83
ssg71
g2855
sg64
(lp2862
S'vars'
p2863
asbag57
(g78
g59
NtRp2864
(dp2865
g62
(dp2866
g89
g90
ssg71
g2855
sg64
(lp2867
S':'
asbag57
(g78
g59
NtRp2868
(dp2869
g62
(dp2870
sg71
g2855
sg64
(lp2871
g57
(g58
g59
NtRp2872
(dp2873
g62
(dp2874
g70
I5
ssg71
g2868
sg64
(lp2875
g57
(g66
g59
NtRp2876
(dp2877
g62
(dp2878
g70
I4
ssg71
Nsg64
(lp2879
sbasbasbasbag57
(g73
g59
NtRp2880
(dp2881
g62
(dp2882
sg71
g67
sg64
(lp2883
g57
(g78
g59
NtRp2884
(dp2885
g62
(dp2886
g82
g83
ssg71
g2880
sg64
(lp2887
S'wsgi'
p2888
asbag57
(g78
g59
NtRp2889
(dp2890
g62
(dp2891
g89
g90
ssg71
g2880
sg64
(lp2892
S':'
asbag57
(g78
g59
NtRp2893
(dp2894
g62
(dp2895
sg71
g2880
sg64
(lp2896
g57
(g58
g59
NtRp2897
(dp2898
g62
(dp2899
g70
I5
ssg71
g2893
sg64
(lp2900
g57
(g66
g59
NtRp2901
(dp2902
g62
(dp2903
g70
I4
ssg71
Nsg64
(lp2904
g57
(g73
g59
NtRp2905
(dp2906
g62
(dp2907
sg71
g2901
sg64
(lp2908
g57
(g78
g59
NtRp2909
(dp2910
g62
(dp2911
g82
g83
ssg71
g2905
sg64
(lp2912
S'environ'
p2913
asbag57
(g78
g59
NtRp2914
(dp2915
g62
(dp2916
g89
g90
ssg71
g2905
sg64
(lp2917
S':'
asbag57
(g78
g59
NtRp2918
(dp2919
g62
(dp2920
sg71
g2905
sg64
(lp2921
g57
(g58
g59
NtRp2922
(dp2923
g62
(dp2924
g70
I4
ssg71
g2918
sg64
(lp2925
g57
(g66
g59
NtRp2926
(dp2927
g62
(dp2928
g70
I3
ssg71
Nsg64
(lp2929
g57
(g73
g59
NtRp2930
(dp2931
g62
(dp2932
sg71
g2926
sg64
(lp2933
g57
(g78
g59
NtRp2934
(dp2935
g62
(dp2936
g82
g83
ssg71
g2930
sg64
(lp2937
S'HTTP_ACCEPT'
p2938
asbag57
(g78
g59
NtRp2939
(dp2940
g62
(dp2941
g89
g90
ssg71
g2930
sg64
(lp2942
S':'
asbag57
(g78
g59
NtRp2943
(dp2944
g62
(dp2945
sg71
g2930
sg64
(lp2946
g57
(g58
g59
NtRp2947
(dp2948
g62
(dp2949
g70
I3
ssg71
g2943
sg64
(lp2950
g1437
asbasbasbag57
(g73
g59
NtRp2951
(dp2952
g62
(dp2953
sg71
g2926
sg64
(lp2954
g57
(g78
g59
NtRp2955
(dp2956
g62
(dp2957
g82
g83
ssg71
g2951
sg64
(lp2958
S'HTTP_ACCEPT_CHARSET'
p2959
asbag57
(g78
g59
NtRp2960
(dp2961
g62
(dp2962
g89
g90
ssg71
g2951
sg64
(lp2963
S':'
asbag57
(g78
g59
NtRp2964
(dp2965
g62
(dp2966
sg71
g2951
sg64
(lp2967
g57
(g58
g59
NtRp2968
(dp2969
g62
(dp2970
g70
I3
ssg71
g2964
sg64
(lp2971
g1459
asbasbasbag57
(g73
g59
NtRp2972
(dp2973
g62
(dp2974
sg71
g2926
sg64
(lp2975
g57
(g78
g59
NtRp2976
(dp2977
g62
(dp2978
g82
g83
ssg71
g2972
sg64
(lp2979
S'HTTP_ACCEPT_ENCODING'
p2980
asbag57
(g78
g59
NtRp2981
(dp2982
g62
(dp2983
g89
g90
ssg71
g2972
sg64
(lp2984
S':'
asbag57
(g78
g59
NtRp2985
(dp2986
g62
(dp2987
sg71
g2972
sg64
(lp2988
g57
(g58
g59
NtRp2989
(dp2990
g62
(dp2991
g70
I3
ssg71
g2985
sg64
(lp2992
g1481
asbasbasbag57
(g73
g59
NtRp2993
(dp2994
g62
(dp2995
sg71
g2926
sg64
(lp2996
g57
(g78
g59
NtRp2997
(dp2998
g62
(dp2999
g82
g83
ssg71
g2993
sg64
(lp3000
S'HTTP_ACCEPT_LANGUAGE'
p3001
asbag57
(g78
g59
NtRp3002
(dp3003
g62
(dp3004
g89
g90
ssg71
g2993
sg64
(lp3005
S':'
asbag57
(g78
g59
NtRp3006
(dp3007
g62
(dp3008
sg71
g2993
sg64
(lp3009
g57
(g58
g59
NtRp3010
(dp3011
g62
(dp3012
g70
I3
ssg71
g3006
sg64
(lp3013
g1503
asbasbasbag57
(g73
g59
NtRp3014
(dp3015
g62
(dp3016
sg71
g2926
sg64
(lp3017
g57
(g78
g59
NtRp3018
(dp3019
g62
(dp3020
g82
g83
ssg71
g3014
sg64
(lp3021
S'HTTP_CONNECTION'
p3022
asbag57
(g78
g59
NtRp3023
(dp3024
g62
(dp3025
g89
g90
ssg71
g3014
sg64
(lp3026
S':'
asbag57
(g78
g59
NtRp3027
(dp3028
g62
(dp3029
sg71
g3014
sg64
(lp3030
g57
(g58
g59
NtRp3031
(dp3032
g62
(dp3033
g70
I3
ssg71
g3027
sg64
(lp3034
g1525
asbasbasbag57
(g73
g59
NtRp3035
(dp3036
g62
(dp3037
sg71
g2926
sg64
(lp3038
g57
(g78
g59
NtRp3039
(dp3040
g62
(dp3041
g82
g83
ssg71
g3035
sg64
(lp3042
S'HTTP_COOKIE'
p3043
asbag57
(g78
g59
NtRp3044
(dp3045
g62
(dp3046
g89
g90
ssg71
g3035
sg64
(lp3047
S':'
asbag57
(g78
g59
NtRp3048
(dp3049
g62
(dp3050
sg71
g3035
sg64
(lp3051
g57
(g58
g59
NtRp3052
(dp3053
g62
(dp3054
g70
I3
ssg71
g3048
sg64
(lp3055
g1547
asbasbasbag57
(g73
g59
NtRp3056
(dp3057
g62
(dp3058
sg71
g2926
sg64
(lp3059
g57
(g78
g59
NtRp3060
(dp3061
g62
(dp3062
g82
g83
ssg71
g3056
sg64
(lp3063
S'HTTP_HOST'
p3064
asbag57
(g78
g59
NtRp3065
(dp3066
g62
(dp3067
g89
g90
ssg71
g3056
sg64
(lp3068
S':'
asbag57
(g78
g59
NtRp3069
(dp3070
g62
(dp3071
sg71
g3056
sg64
(lp3072
g57
(g58
g59
NtRp3073
(dp3074
g62
(dp3075
g70
I3
ssg71
g3069
sg64
(lp3076
g1569
asbasbasbag57
(g73
g59
NtRp3077
(dp3078
g62
(dp3079
sg71
g2926
sg64
(lp3080
g57
(g78
g59
NtRp3081
(dp3082
g62
(dp3083
g82
g83
ssg71
g3077
sg64
(lp3084
S'HTTP_REFERER'
p3085
asbag57
(g78
g59
NtRp3086
(dp3087
g62
(dp3088
g89
g90
ssg71
g3077
sg64
(lp3089
S':'
asbag57
(g78
g59
NtRp3090
(dp3091
g62
(dp3092
sg71
g3077
sg64
(lp3093
g57
(g58
g59
NtRp3094
(dp3095
g62
(dp3096
g70
I3
ssg71
g3090
sg64
(lp3097
g1591
asbasbasbag57
(g73
g59
NtRp3098
(dp3099
g62
(dp3100
sg71
g2926
sg64
(lp3101
g57
(g78
g59
NtRp3102
(dp3103
g62
(dp3104
g82
g83
ssg71
g3098
sg64
(lp3105
S'HTTP_USER_AGENT'
p3106
asbag57
(g78
g59
NtRp3107
(dp3108
g62
(dp3109
g89
g90
ssg71
g3098
sg64
(lp3110
S':'
asbag57
(g78
g59
NtRp3111
(dp3112
g62
(dp3113
sg71
g3098
sg64
(lp3114
g57
(g58
g59
NtRp3115
(dp3116
g62
(dp3117
g70
I3
ssg71
g3111
sg64
(lp3118
g1613
asbasbasbag57
(g73
g59
NtRp3119
(dp3120
g62
(dp3121
sg71
g2926
sg64
(lp3122
g57
(g78
g59
NtRp3123
(dp3124
g62
(dp3125
g82
g83
ssg71
g3119
sg64
(lp3126
S'PATH_INFO'
p3127
asbag57
(g78
g59
NtRp3128
(dp3129
g62
(dp3130
g89
g90
ssg71
g3119
sg64
(lp3131
S':'
asbag57
(g78
g59
NtRp3132
(dp3133
g62
(dp3134
sg71
g3119
sg64
(lp3135
g57
(g58
g59
NtRp3136
(dp3137
g62
(dp3138
g70
I3
ssg71
g3132
sg64
(lp3139
g1677
asbasbasbag57
(g73
g59
NtRp3140
(dp3141
g62
(dp3142
sg71
g2926
sg64
(lp3143
g57
(g78
g59
NtRp3144
(dp3145
g62
(dp3146
g82
g83
ssg71
g3140
sg64
(lp3147
S'QUERY_STRING'
p3148
asbag57
(g78
g59
NtRp3149
(dp3150
g62
(dp3151
g89
g90
ssg71
g3140
sg64
(lp3152
S':'
asbag57
(g78
g59
NtRp3153
(dp3154
g62
(dp3155
sg71
g3140
sg64
(lp3156
g57
(g58
g59
NtRp3157
(dp3158
g62
(dp3159
g70
I3
ssg71
g3153
sg64
(lp3160
g1699
asbasbasbag57
(g73
g59
NtRp3161
(dp3162
g62
(dp3163
sg71
g2926
sg64
(lp3164
g57
(g78
g59
NtRp3165
(dp3166
g62
(dp3167
g82
g83
ssg71
g3161
sg64
(lp3168
S'REMOTE_ADDR'
p3169
asbag57
(g78
g59
NtRp3170
(dp3171
g62
(dp3172
g89
g90
ssg71
g3161
sg64
(lp3173
S':'
asbag57
(g78
g59
NtRp3174
(dp3175
g62
(dp3176
sg71
g3161
sg64
(lp3177
g57
(g58
g59
NtRp3178
(dp3179
g62
(dp3180
g70
I3
ssg71
g3174
sg64
(lp3181
g251
asbasbasbag57
(g73
g59
NtRp3182
(dp3183
g62
(dp3184
sg71
g2926
sg64
(lp3185
g57
(g78
g59
NtRp3186
(dp3187
g62
(dp3188
g82
g83
ssg71
g3182
sg64
(lp3189
S'REMOTE_PORT'
p3190
asbag57
(g78
g59
NtRp3191
(dp3192
g62
(dp3193
g89
g90
ssg71
g3182
sg64
(lp3194
S':'
asbag57
(g78
g59
NtRp3195
(dp3196
g62
(dp3197
sg71
g3182
sg64
(lp3198
g57
(g58
g59
NtRp3199
(dp3200
g62
(dp3201
g70
I3
ssg71
g3195
sg64
(lp3202
g1742
asbasbasbag57
(g73
g59
NtRp3203
(dp3204
g62
(dp3205
sg71
g2926
sg64
(lp3206
g57
(g78
g59
NtRp3207
(dp3208
g62
(dp3209
g82
g83
ssg71
g3203
sg64
(lp3210
S'REQUEST_METHOD'
p3211
asbag57
(g78
g59
NtRp3212
(dp3213
g62
(dp3214
g89
g90
ssg71
g3203
sg64
(lp3215
S':'
asbag57
(g78
g59
NtRp3216
(dp3217
g62
(dp3218
sg71
g3203
sg64
(lp3219
g57
(g58
g59
NtRp3220
(dp3221
g62
(dp3222
g70
I3
ssg71
g3216
sg64
(lp3223
g1764
asbasbasbag57
(g73
g59
NtRp3224
(dp3225
g62
(dp3226
sg71
g2926
sg64
(lp3227
g57
(g78
g59
NtRp3228
(dp3229
g62
(dp3230
g82
g83
ssg71
g3224
sg64
(lp3231
S'REQUEST_URI'
p3232
asbag57
(g78
g59
NtRp3233
(dp3234
g62
(dp3235
g89
g90
ssg71
g3224
sg64
(lp3236
S':'
asbag57
(g78
g59
NtRp3237
(dp3238
g62
(dp3239
sg71
g3224
sg64
(lp3240
g57
(g58
g59
NtRp3241
(dp3242
g62
(dp3243
g70
I3
ssg71
g3237
sg64
(lp3244
g1786
asbasbasbag57
(g73
g59
NtRp3245
(dp3246
g62
(dp3247
sg71
g2926
sg64
(lp3248
g57
(g78
g59
NtRp3249
(dp3250
g62
(dp3251
g82
g83
ssg71
g3245
sg64
(lp3252
S'SCRIPT_NAME'
p3253
asbag57
(g78
g59
NtRp3254
(dp3255
g62
(dp3256
g89
g90
ssg71
g3245
sg64
(lp3257
S':'
asbag57
(g78
g59
NtRp3258
(dp3259
g62
(dp3260
sg71
g3245
sg64
(lp3261
g57
(g58
g59
NtRp3262
(dp3263
g62
(dp3264
g70
I3
ssg71
g3258
sg64
(lp3265
S''
asbasbasbag57
(g73
g59
NtRp3266
(dp3267
g62
(dp3268
sg71
g2926
sg64
(lp3269
g57
(g78
g59
NtRp3270
(dp3271
g62
(dp3272
g82
g83
ssg71
g3266
sg64
(lp3273
S'SERVER_NAME'
p3274
asbag57
(g78
g59
NtRp3275
(dp3276
g62
(dp3277
g89
g90
ssg71
g3266
sg64
(lp3278
S':'
asbag57
(g78
g59
NtRp3279
(dp3280
g62
(dp3281
sg71
g3266
sg64
(lp3282
g57
(g58
g59
NtRp3283
(dp3284
g62
(dp3285
g70
I3
ssg71
g3279
sg64
(lp3286
g1829
asbasbasbag57
(g73
g59
NtRp3287
(dp3288
g62
(dp3289
sg71
g2926
sg64
(lp3290
g57
(g78
g59
NtRp3291
(dp3292
g62
(dp3293
g82
g83
ssg71
g3287
sg64
(lp3294
S'SERVER_PORT'
p3295
asbag57
(g78
g59
NtRp3296
(dp3297
g62
(dp3298
g89
g90
ssg71
g3287
sg64
(lp3299
S':'
asbag57
(g78
g59
NtRp3300
(dp3301
g62
(dp3302
sg71
g3287
sg64
(lp3303
g57
(g58
g59
NtRp3304
(dp3305
g62
(dp3306
g70
I3
ssg71
g3300
sg64
(lp3307
g1851
asbasbasbag57
(g73
g59
NtRp3308
(dp3309
g62
(dp3310
sg71
g2926
sg64
(lp3311
g57
(g78
g59
NtRp3312
(dp3313
g62
(dp3314
g82
g83
ssg71
g3308
sg64
(lp3315
S'SERVER_PROTOCOL'
p3316
asbag57
(g78
g59
NtRp3317
(dp3318
g62
(dp3319
g89
g90
ssg71
g3308
sg64
(lp3320
S':'
asbag57
(g78
g59
NtRp3321
(dp3322
g62
(dp3323
sg71
g3308
sg64
(lp3324
g57
(g58
g59
NtRp3325
(dp3326
g62
(dp3327
g70
I3
ssg71
g3321
sg64
(lp3328
g1873
asbasbasbag57
(g73
g59
NtRp3329
(dp3330
g62
(dp3331
sg71
g2926
sg64
(lp3332
g57
(g78
g59
NtRp3333
(dp3334
g62
(dp3335
g82
g83
ssg71
g3329
sg64
(lp3336
S'SERVER_SOFTWARE'
p3337
asbag57
(g78
g59
NtRp3338
(dp3339
g62
(dp3340
g89
g90
ssg71
g3329
sg64
(lp3341
S':'
asbag57
(g78
g59
NtRp3342
(dp3343
g62
(dp3344
sg71
g3329
sg64
(lp3345
g57
(g58
g59
NtRp3346
(dp3347
g62
(dp3348
g70
I3
ssg71
g3342
sg64
(lp3349
g1895
asbasbasbag57
(g73
g59
NtRp3350
(dp3351
g62
(dp3352
sg71
g2926
sg64
(lp3353
g57
(g78
g59
NtRp3354
(dp3355
g62
(dp3356
g82
g83
ssg71
g3350
sg64
(lp3357
S'wsgi.errors'
p3358
asbag57
(g78
g59
NtRp3359
(dp3360
g62
(dp3361
g89
g90
ssg71
g3350
sg64
(lp3362
S':'
asbag57
(g78
g59
NtRp3363
(dp3364
g62
(dp3365
sg71
g3350
sg64
(lp3366
g57
(g58
g59
NtRp3367
(dp3368
g62
(dp3369
g70
I3
ssg71
g3363
sg64
(lp3370
S"<open file '<stderr>', mode 'w' at 0xb72ca0d0>"
p3371
asbasbasbag57
(g73
g59
NtRp3372
(dp3373
g62
(dp3374
sg71
g2926
sg64
(lp3375
g57
(g78
g59
NtRp3376
(dp3377
g62
(dp3378
g82
g83
ssg71
g3372
sg64
(lp3379
S'wsgi.file_wrapper'
p3380
asbag57
(g78
g59
NtRp3381
(dp3382
g62
(dp3383
g89
g90
ssg71
g3372
sg64
(lp3384
S':'
asbag57
(g78
g59
NtRp3385
(dp3386
g62
(dp3387
sg71
g3372
sg64
(lp3388
g57
(g58
g59
NtRp3389
(dp3390
g62
(dp3391
g70
I3
ssg71
g3385
sg64
(lp3392
S'<class wsgiref.util.FileWrapper at 0xa00e02c>'
p3393
asbasbasbag57
(g73
g59
NtRp3394
(dp3395
g62
(dp3396
sg71
g2926
sg64
(lp3397
g57
(g78
g59
NtRp3398
(dp3399
g62
(dp3400
g82
g83
ssg71
g3394
sg64
(lp3401
S'wsgi.input'
p3402
asbag57
(g78
g59
NtRp3403
(dp3404
g62
(dp3405
g89
g90
ssg71
g3394
sg64
(lp3406
S':'
asbag57
(g78
g59
NtRp3407
(dp3408
g62
(dp3409
sg71
g3394
sg64
(lp3410
g57
(g58
g59
NtRp3411
(dp3412
g62
(dp3413
g70
I3
ssg71
g3407
sg64
(lp3414
S'<cStringIO.StringO object at 0xad62f6e0>'
p3415
asbasbasbag57
(g73
g59
NtRp3416
(dp3417
g62
(dp3418
sg71
g2926
sg64
(lp3419
g57
(g78
g59
NtRp3420
(dp3421
g62
(dp3422
g82
g83
ssg71
g3416
sg64
(lp3423
S'wsgi.multiprocess'
p3424
asbag57
(g78
g59
NtRp3425
(dp3426
g62
(dp3427
g89
g90
ssg71
g3416
sg64
(lp3428
S':'
asbag57
(g78
g59
NtRp3429
(dp3430
g62
(dp3431
sg71
g3416
sg64
(lp3432
g57
(g58
g59
NtRp3433
(dp3434
g62
(dp3435
g70
I3
ssg71
g3429
sg64
(lp3436
g100
asbasbasbag57
(g73
g59
NtRp3437
(dp3438
g62
(dp3439
sg71
g2926
sg64
(lp3440
g57
(g78
g59
NtRp3441
(dp3442
g62
(dp3443
g82
g83
ssg71
g3437
sg64
(lp3444
S'wsgi.multithread'
p3445
asbag57
(g78
g59
NtRp3446
(dp3447
g62
(dp3448
g89
g90
ssg71
g3437
sg64
(lp3449
S':'
asbag57
(g78
g59
NtRp3450
(dp3451
g62
(dp3452
sg71
g3437
sg64
(lp3453
g57
(g58
g59
NtRp3454
(dp3455
g62
(dp3456
g70
I3
ssg71
g3450
sg64
(lp3457
g2134
asbasbasbag57
(g73
g59
NtRp3458
(dp3459
g62
(dp3460
sg71
g2926
sg64
(lp3461
g57
(g78
g59
NtRp3462
(dp3463
g62
(dp3464
g82
g83
ssg71
g3458
sg64
(lp3465
S'wsgi.run_once'
p3466
asbag57
(g78
g59
NtRp3467
(dp3468
g62
(dp3469
g89
g90
ssg71
g3458
sg64
(lp3470
S':'
asbag57
(g78
g59
NtRp3471
(dp3472
g62
(dp3473
sg71
g3458
sg64
(lp3474
g57
(g58
g59
NtRp3475
(dp3476
g62
(dp3477
g70
I3
ssg71
g3471
sg64
(lp3478
g100
asbasbasbag57
(g73
g59
NtRp3479
(dp3480
g62
(dp3481
sg71
g2926
sg64
(lp3482
g57
(g78
g59
NtRp3483
(dp3484
g62
(dp3485
g82
g83
ssg71
g3479
sg64
(lp3486
S'wsgi.url_scheme'
p3487
asbag57
(g78
g59
NtRp3488
(dp3489
g62
(dp3490
g89
g90
ssg71
g3479
sg64
(lp3491
S':'
asbag57
(g78
g59
NtRp3492
(dp3493
g62
(dp3494
sg71
g3479
sg64
(lp3495
g57
(g58
g59
NtRp3496
(dp3497
g62
(dp3498
g70
I3
ssg71
g3492
sg64
(lp3499
g2177
asbasbasbag57
(g73
g59
NtRp3500
(dp3501
g62
(dp3502
sg71
g2926
sg64
(lp3503
g57
(g78
g59
NtRp3504
(dp3505
g62
(dp3506
g82
g83
ssg71
g3500
sg64
(lp3507
S'wsgi.version'
p3508
asbag57
(g78
g59
NtRp3509
(dp3510
g62
(dp3511
g89
g90
ssg71
g3500
sg64
(lp3512
S':'
asbag57
(g78
g59
NtRp3513
(dp3514
g62
(dp3515
sg71
g3500
sg64
(lp3516
g57
(g58
g59
NtRp3517
(dp3518
g62
(dp3519
g70
I3
ssg71
g3513
sg64
(lp3520
S'1'
asbasbasbasbasbasbasbasbasbasbasbasbasbsS'frames'
p3521
(lp3522
(dp3523
S'file'
p3524
S'/home/emp2web/webcast/web2py/gluon/restricted.py'
p3525
sS'dump'
p3526
(dp3527
S'environment'
p3528
S"{'A': <class 'gluon.html.A'>, 'Auth': <class 'gluon.tools.Auth'>, 'B': <class 'gluon.html.B'>, 'BEAUTIFY': <class 'gluon.html.BEAUTIFY'>, 'BODY': <class 'gluon.html.BODY'>, 'BR': <class 'gluon.html.BR'>, 'BUTTON': <class 'gluon.html.BUTTON'>, 'CAT': <class 'gluon.html.CAT'>, 'CENTER': <class 'gluon.html.CENTER'>, 'CLEANUP': <class 'gluon.validators.CLEANUP'>, ...}"
p3529
sS'ccode'
p3530
S'<code object <module> at 0xa520530, file "/home/.../proyectos/controllers/configuracion.py", line 3>'
p3531
ssS'lnum'
p3532
I209
sS'lines'
p3533
(dp3534
I204
S'    try:'
p3535
sI205
S'        if type(code) == types.CodeType:'
p3536
sI206
S'            ccode = code'
p3537
sI207
S'        else:'
p3538
sI208
S'            ccode = compile2(code,layer)'
p3539
sI209
S'        exec ccode in environment'
p3540
sI210
S'    except HTTP:'
p3541
sI211
S'        raise'
p3542
sI212
S'    except RestrictedError:'
p3543
sI213
S'        # do not encapsulate (obfuscate) the original RestrictedError'
p3544
ssS'call'
p3545
S"(code='# coding: utf8\\n# intente algo como\\ndef index(): ...ls()\\n\\nresponse._vars=response._caller(proyectos)\\n', environment={'A': <class 'gluon.html.A'>, 'Auth': <class 'gluon.tools.Auth'>, 'B': <class 'gluon.html.B'>, 'BEAUTIFY': <class 'gluon.html.BEAUTIFY'>, 'BODY': <class 'gluon.html.BODY'>, 'BR': <class 'gluon.html.BR'>, 'BUTTON': <class 'gluon.html.BUTTON'>, 'CAT': <class 'gluon.html.CAT'>, 'CENTER': <class 'gluon.html.CENTER'>, 'CLEANUP': <class 'gluon.validators.CLEANUP'>, ...}, layer='/home/emp2web/webcast/web2py/applications/proyectos/controllers/configuracion.py')"
p3546
sS'func'
p3547
S'restricted'
p3548
sa(dp3549
g3524
S'/home/emp2web/webcast/web2py/applications/proyectos/controllers/configuracion.py'
p3550
sg3526
(dp3551
sg3532
I26
sg3533
(dp3552
I15
S'    return locals()'
p3553
sI16
S''
sI17
S''
sI18
S'def clientes():'
p3554
sI19
S'    formulario=SQLFORM.smartgrid(db.clientes)'
p3555
sI20
S'    return locals()'
p3556
sI21
S''
sI22
S'def proyectos():'
p3557
sI23
S'    formulario=SQLFORM.smartgrid(db.proyecto)'
p3558
sI24
S'    return locals()'
p3559
ssg3545
S'()'
p3560
sg3547
S'<module>'
p3561
sa(dp3562
g3524
S'/home/emp2web/webcast/web2py/gluon/globals.py'
p3563
sg3526
(dp3564
S'self'
p3565
S'undefined'
p3566
sS'f'
S'<function proyectos>'
p3567
ssg3532
I185
sg3533
(dp3568
I180
S'        self.menu = []             # used by the default view layout'
p3569
sI181
S'        self.files = []            # used by web2py_ajax.html'
p3570
sI182
S'        self.generic_patterns = [] # patterns to allow generic views'
p3571
sI183
S"        self.delimiters = ('{{','}}')"
p3572
sI184
S'        self._vars = None'
p3573
sI185
S'        self._caller = lambda f: f()'
p3574
sI186
S'        self._view_environment = None'
p3575
sI187
S'        self._custom_commit = None'
p3576
sI188
S'        self._custom_rollback = None'
p3577
sI189
S''
ssg3545
S'(f=<function proyectos>)'
p3578
sg3547
S'<lambda>'
p3579
sa(dp3580
g3524
S'/home/emp2web/webcast/web2py/applications/proyectos/controllers/configuracion.py'
p3581
sg3526
(dp3582
S'global db'
p3583
S'<DAL sqlite://storage.sqlite>'
p3584
sS'global SQLFORM'
p3585
S"<class 'gluon.sqlhtml.SQLFORM'>"
p3586
sS'SQLFORM.smartgrid'
p3587
S'<function smartgrid>'
p3588
sS'db.proyecto'
p3589
S'<Table proyecto (id,nombre,cliente,tipo,estado,fecha_inicio,fecha_fin,valor,observacion,usuario)>'
p3590
sS'formulario'
p3591
g3566
ssg3532
I23
sg3533
(dp3592
I15
S'    return locals()'
p3593
sI16
S''
sI17
S''
sI18
S'def clientes():'
p3594
sI19
S'    formulario=SQLFORM.smartgrid(db.clientes)'
p3595
sI20
S'    return locals()'
p3596
sI21
S''
sI22
S'def proyectos():'
p3597
sI23
S'    formulario=SQLFORM.smartgrid(db.proyecto)'
p3598
sI24
S'    return locals()'
p3599
ssg3545
S'()'
p3600
sg3547
S'proyectos'
p3601
sa(dp3602
g3524
S'/home/emp2web/webcast/web2py/gluon/sqlhtml.py'
p3603
sg3526
(dp3604
S'user_signature'
p3605
g2134
sS'kwargs'
p3606
g45
ssg3532
I2246
sg3533
(dp3607
I2241
S'                            A(SPAN(t),_class=trap_class(),_href=url('
p3608
sI2242
S'                                args=[args0,row[id_field_name]])))'
p3609
sI2243
S''
sI2244
S'        grid=SQLFORM.grid(query,args=request.args[:nargs],links=links,'
p3610
sI2245
S'                          links_in_grid=links_in_grid,'
p3611
sI2246
S'                          user_signature=user_signature,**kwargs)'
p3612
sI2247
S'        if isinstance(grid,DIV):'
p3613
sI2248
S"            header = table._plural + (field and ' for '+field.name or '')"
p3614
sI2249
S'            breadcrumbs.append(LI(A(T(header),_class=trap_class(),'
p3615
sI2250
S"                                 _href=url()),_class='active w2p_grid_breadcrumb_elem'))"
p3616
ssg3545
S"(table=<Table proyecto (id,nombre,cliente,tipo,estado,fecha_inicio,fecha_fin,valor,observacion,usuario)>, constraints={}, linked_tables=None, links=[<function <lambda>>], links_in_grid=True, args=[], user_signature=True, divider='>', breadcrumbs_class='', **kwargs={})"
p3617
sg3547
S'smartgrid'
p3618
sa(dp3619
g3524
S'/home/emp2web/webcast/web2py/gluon/sqlhtml.py'
p3620
sg3526
(dp3621
S'sqlformargs'
p3622
g45
ssg3532
I1744
sg3533
(dp3623
I1739
S'            table = db[request.args[-1]]'
p3624
sI1740
S'            sqlformargs.update(createargs)'
p3625
sI1741
S'            create_form = SQLFORM('
p3626
sI1742
S'                table, ignore_rw=ignore_rw, formstyle=formstyle,'
p3627
sI1743
S"                _class='web2py_form',"
p3628
sI1744
S'                **sqlformargs)'
p3629
sI1745
S'            create_form.process(formname=formname,'
p3630
sI1746
S'                    next=referrer,'
p3631
sI1747
S'                    onvalidation=onvalidation,'
p3632
sI1748
S'                    onsuccess=oncreate)'
p3633
ssg3545
S"(query=<Query (proyecto.id > 0)>, fields=[<gluon.dal.Field object>, <gluon.dal.Field object>, <gluon.dal.Field object>, <gluon.dal.Field object>, <gluon.dal.Field object>, <gluon.dal.Field object>, <gluon.dal.Field object>, <gluon.dal.Field object>, <gluon.dal.Field object>, <gluon.dal.Field object>], field_id=<gluon.dal.Field object>, left=None, headers={}, orderby=None, groupby=None, searchable=True, sortable=True, paginate=20, deletable=True, editable=True, details=True, selectable=None, create=True, csv=True, links=[<function <lambda>>], links_in_grid=True, upload=<function <lambda>>, args=['proyecto'], user_signature=True, maxtextlengths={}, maxtextlength=20, onvalidation=None, oncreate=None, onupdate=None, ondelete=None, sorter_icons=(<gluon.html.XML object>, <gluon.html.XML object>), ui={'button': 'button btn', 'buttonadd': 'icon plus icon-plus', 'buttonback': 'icon leftarrow icon-arrow-left', 'buttondelete': 'icon trash icon-trash', 'buttonedit': 'icon pen icon-pencil', 'buttonexport': 'icon downarrow icon-download', 'buttontable': 'icon rightarrow icon-arrow-right', 'buttontext': 'buttontext button', 'buttonview': 'icon magnifier icon-zoom-in', 'content': '', ...}, showbuttontext=True, _class='web2py_grid', formname='web2py_grid', search_widget='default', ignore_rw=False, formstyle='table3cols', exportclasses=None, formargs={}, createargs={}, editargs={}, viewargs={})"
p3634
sg3547
S'grid'
p3635
sa(dp3636
g3524
S'/home/emp2web/webcast/web2py/gluon/sqlhtml.py'
p3637
sg3526
(dp3638
S'default'
p3639
S'None'
p3640
sS'self.widgets.options.widget'
p3641
S"<bound method type.widget of <class 'gluon.sqlhtml.OptionsWidget'>>"
p3642
sS'self'
p3643
S'<gluon.sqlhtml.SQLFORM object>'
p3644
sS'inp'
p3645
S'<gluon.html.INPUT object>'
p3646
sS'self.widgets'
p3647
S"<Storage {'multiple': <class 'gluon.sqlhtml.Mult...ss 'gluon.sqlhtml.OptionsWidget'>, 'blob': None}>"
p3648
sS'field'
p3649
S'<gluon.dal.Field object>'
p3650
sS'self.widgets.options'
p3651
S"<class 'gluon.sqlhtml.OptionsWidget'>"
p3652
ssg3532
I1014
sg3533
(dp3653
I1009
S"                    inpval = 'checked'"
p3654
sI1010
S'                else:'
p3655
sI1011
S"                    inpval = ''"
p3656
sI1012
S'            elif OptionsWidget.has_options(field):'
p3657
sI1013
S'                if not field.requires.multiple:'
p3658
sI1014
S'                    inp = self.widgets.options.widget(field, default)'
p3659
sI1015
S'                else:'
p3660
sI1016
S'                    inp = self.widgets.multiple.widget(field, default)'
p3661
sI1017
S'                if fieldname in keepopts:'
p3662
sI1018
S"                    inpval = TAG[''](*inp.components)"
p3663
ssg3545
S"(self=<gluon.sqlhtml.SQLFORM object>, table=<Table proyecto (id,nombre,cliente,tipo,estado,fecha_inicio,fecha_fin,valor,observacion,usuario)>, record=None, deletable=False, linkto=None, upload=None, fields=['id', 'nombre', 'cliente', 'tipo', 'estado', 'fecha_inicio', 'fecha_fin', 'valor', 'observacion', 'usuario'], labels=None, col3={}, submit_button='Submit', delete_label='Check to delete', showid=True, readonly=False, comments=True, keepopts=[], ignore_rw=False, record_id=None, formstyle='table3cols', buttons=['submit'], separator=': ', **attributes={'_class': 'web2py_form'})"
p3664
sg3547
g50
sa(dp3665
g3524
S'/home/emp2web/webcast/web2py/gluon/sqlhtml.py'
p3666
sg3526
(dp3667
S'].options'
p3668
g3566
sS'requires'
p3669
S'[<gluon.validators.IS_IN_DB object>]'
p3670
sS'options'
p3671
g3566
ssg3532
I227
sg3533
(dp3672
I224
S'            requires = [requires]'
p3673
sI225
S'        if requires:'
p3674
sI226
S"            if hasattr(requires[0], 'options'):"
p3675
sI227
S'                options = requires[0].options()'
p3676
sI228
S'            else:'
p3677
sI229
S"                raise SyntaxError, 'widget cannot determine options of %s' % field"
p3678
sI230
S'        opts = [OPTION(v, _value=k) for (k, v) in options]'
p3679
sI231
S''
sI222
S'        requires = field.requires'
p3680
sI223
S'        if not isinstance(requires, (list, tuple)):'
p3681
ssg3545
S"(cls=<class 'gluon.sqlhtml.OptionsWidget'>, field=<gluon.dal.Field object>, value=None, **attributes={})"
p3682
sg3547
S'widget'
p3683
sa(dp3684
g3524
S'/home/emp2web/webcast/web2py/gluon/validators.py'
p3685
sg3526
(dp3686
S'self'
p3687
S'<gluon.validators.IS_IN_DB object>'
p3688
sS'self.build_set'
p3689
S'<bound method IS_IN_DB.build_set of <gluon.validators.IS_IN_DB object>>'
p3690
ssg3532
I479
sg3533
(dp3691
I480
S'        items = [(k, self.labels[i]) for (i, k) in enumerate(self.theset)]'
p3692
sI481
S'        if self.sort:'
p3693
sI482
S'            items.sort(options_sorter)'
p3694
sI483
S'        if zero and not self.zero is None and not self.multiple:'
p3695
sI474
S'            self.labels = [self.label % dict(r) for r in records]'
p3696
sI475
S'        else:'
p3697
sI476
S'            self.labels = [self.label(r) for r in records]'
p3698
sI477
S''
sI478
S'    def options(self, zero=True):'
p3699
sI479
S'        self.build_set()'
p3700
ssg3545
S'(self=<gluon.validators.IS_IN_DB object>, zero=True)'
p3701
sg3547
S'options'
p3702
sa(dp3703
g3524
S'/home/emp2web/webcast/web2py/gluon/validators.py'
p3704
sg3526
(dp3705
S'self.fields'
p3706
S"['nombres', 'apellidos', 'empresa', 'telefono', 'email', 'onservacion', 'foto', 'id']"
p3707
sS'fields'
p3708
g3566
sS'k'
S"'onservacion'"
p3709
sS'self'
p3710
S'<gluon.validators.IS_IN_DB object>'
p3711
sS'table'
p3712
S'<Table clientes (id,nombres,apellidos,empresa,telefono,email,observacion,foto)>'
p3713
ssg3532
I459
sg3533
(dp3714
I454
S'    def build_set(self):'
p3715
sI455
S'        table = self.dbset.db[self.ktable]'
p3716
sI456
S"        if self.fields == 'all':"
p3717
sI457
S'            fields = [f for f in table]'
p3718
sI458
S'        else:'
p3719
sI459
S'            fields = [table[k] for k in self.fields]'
p3720
sI460
S"        if self.dbset.db._dbname != 'gae':"
p3721
sI461
S'            orderby = self.orderby or reduce(lambda a,b:a|b,fields)'
p3722
sI462
S'            groupby = self.groupby'
p3723
sI463
S'            distinct = self.distinct'
p3724
ssg3545
S'(self=<gluon.validators.IS_IN_DB object>)'
p3725
sg3547
S'build_set'
p3726
sa(dp3727
g3524
S'/home/emp2web/webcast/web2py/gluon/dal.py'
p3728
sg3526
(dp3729
S'builtinstr'
p3730
S"<type 'str'>"
p3731
sS'self'
p3732
S'<Table clientes (id,nombres,apellidos,empresa,telefono,email,observacion,foto)>'
p3733
sS'global ogetattr'
p3734
S"<slot wrapper '__getattribute__' of 'object' objects>"
p3735
sS'key'
p3736
S"'onservacion'"
p3737
ssg3532
I7567
sg3533
(dp3738
I7562
S'                return rows[0]'
p3739
sI7563
S'            return None'
p3740
sI7564
S"        elif str(key).isdigit() or 'google' in DRIVERS and isinstance(key, Key):"
p3741
sI7565
S'            return self._db(self._id == key).select(limitby=(0,1)).first()'
p3742
sI7566
S'        elif key:'
p3743
sI7567
S'            return ogetattr(self, str(key))'
p3744
sI7568
S''
sI7569
S'    def __call__(self, key=DEFAULT, **kwargs):'
p3745
sI7570
S"        for_update = kwargs.get('_for_update',False)"
p3746
sI7571
S"        if '_for_update' in kwargs: del kwargs['_for_update']"
p3747
ssg3545
S"(self=<Table clientes (id,nombres,apellidos,empresa,telefono,email,observacion,foto)>, key='onservacion')"
p3748
sg3547
g20
sasS'pyver'
p3749
S'Python 2.7.3: /usr/bin/python2.7'
p3750
sS'session'
p3751
g57
(g58
g59
NtRp3752
(dp3753
g62
(dp3754
sg64
(lp3755
g57
(g66
g59
NtRp3756
(dp3757
g62
(dp3758
g70
I5
ssg71
Nsg64
(lp3759
g57
(g73
g59
NtRp3760
(dp3761
g62
(dp3762
sg71
g3756
sg64
(lp3763
g57
(g78
g59
NtRp3764
(dp3765
g62
(dp3766
g82
g83
ssg71
g3760
sg64
(lp3767
S'auth'
p3768
asbag57
(g78
g59
NtRp3769
(dp3770
g62
(dp3771
g89
g90
ssg71
g3760
sg64
(lp3772
S':'
asbag57
(g78
g59
NtRp3773
(dp3774
g62
(dp3775
sg71
g3760
sg64
(lp3776
g57
(g58
g59
NtRp3777
(dp3778
g62
(dp3779
g70
I5
ssg71
g3773
sg64
(lp3780
g57
(g66
g59
NtRp3781
(dp3782
g62
(dp3783
g70
I4
ssg71
Nsg64
(lp3784
g57
(g73
g59
NtRp3785
(dp3786
g62
(dp3787
sg71
g3781
sg64
(lp3788
g57
(g78
g59
NtRp3789
(dp3790
g62
(dp3791
g82
g83
ssg71
g3785
sg64
(lp3792
S'expiration'
p3793
asbag57
(g78
g59
NtRp3794
(dp3795
g62
(dp3796
g89
g90
ssg71
g3785
sg64
(lp3797
S':'
asbag57
(g78
g59
NtRp3798
(dp3799
g62
(dp3800
sg71
g3785
sg64
(lp3801
g57
(g58
g59
NtRp3802
(dp3803
g62
(dp3804
g70
I4
ssg71
g3798
sg64
(lp3805
S'3600'
p3806
asbasbasbag57
(g73
g59
NtRp3807
(dp3808
g62
(dp3809
sg71
g3781
sg64
(lp3810
g57
(g78
g59
NtRp3811
(dp3812
g62
(dp3813
g82
g83
ssg71
g3807
sg64
(lp3814
S'hmac_key'
p3815
asbag57
(g78
g59
NtRp3816
(dp3817
g62
(dp3818
g89
g90
ssg71
g3807
sg64
(lp3819
S':'
asbag57
(g78
g59
NtRp3820
(dp3821
g62
(dp3822
sg71
g3807
sg64
(lp3823
g57
(g58
g59
NtRp3824
(dp3825
g62
(dp3826
g70
I4
ssg71
g3820
sg64
(lp3827
S'a1b7daa5-f368-4d8f-8d36-0f21f873a393'
p3828
asbasbasbag57
(g73
g59
NtRp3829
(dp3830
g62
(dp3831
sg71
g3781
sg64
(lp3832
g57
(g78
g59
NtRp3833
(dp3834
g62
(dp3835
g82
g83
ssg71
g3829
sg64
(lp3836
S'last_visit'
p3837
asbag57
(g78
g59
NtRp3838
(dp3839
g62
(dp3840
g89
g90
ssg71
g3829
sg64
(lp3841
S':'
asbag57
(g78
g59
NtRp3842
(dp3843
g62
(dp3844
sg71
g3829
sg64
(lp3845
g57
(g58
g59
NtRp3846
(dp3847
g62
(dp3848
g70
I4
ssg71
g3842
sg64
(lp3849
S'datetime.datetime(2012, 9, 6, 16, 29, 21, 38565)'
p3850
asbasbasbag57
(g73
g59
NtRp3851
(dp3852
g62
(dp3853
sg71
g3781
sg64
(lp3854
g57
(g78
g59
NtRp3855
(dp3856
g62
(dp3857
g82
g83
ssg71
g3851
sg64
(lp3858
S'user'
p3859
asbag57
(g78
g59
NtRp3860
(dp3861
g62
(dp3862
g89
g90
ssg71
g3851
sg64
(lp3863
S':'
asbag57
(g78
g59
NtRp3864
(dp3865
g62
(dp3866
sg71
g3851
sg64
(lp3867
g57
(g58
g59
NtRp3868
(dp3869
g62
(dp3870
g70
I4
ssg71
g3864
sg64
(lp3871
g57
(g66
g59
NtRp3872
(dp3873
g62
(dp3874
g70
I3
ssg71
Nsg64
(lp3875
g57
(g73
g59
NtRp3876
(dp3877
g62
(dp3878
sg71
g3872
sg64
(lp3879
g57
(g78
g59
NtRp3880
(dp3881
g62
(dp3882
g82
g83
ssg71
g3876
sg64
(lp3883
S'email'
p3884
asbag57
(g78
g59
NtRp3885
(dp3886
g62
(dp3887
g89
g90
ssg71
g3876
sg64
(lp3888
S':'
asbag57
(g78
g59
NtRp3889
(dp3890
g62
(dp3891
sg71
g3876
sg64
(lp3892
g57
(g58
g59
NtRp3893
(dp3894
g62
(dp3895
g70
I3
ssg71
g3889
sg64
(lp3896
S'admin@admin.com'
p3897
asbasbasbag57
(g73
g59
NtRp3898
(dp3899
g62
(dp3900
sg71
g3872
sg64
(lp3901
g57
(g78
g59
NtRp3902
(dp3903
g62
(dp3904
g82
g83
ssg71
g3898
sg64
(lp3905
S'first_name'
p3906
asbag57
(g78
g59
NtRp3907
(dp3908
g62
(dp3909
g89
g90
ssg71
g3898
sg64
(lp3910
S':'
asbag57
(g78
g59
NtRp3911
(dp3912
g62
(dp3913
sg71
g3898
sg64
(lp3914
g57
(g58
g59
NtRp3915
(dp3916
g62
(dp3917
g70
I3
ssg71
g3911
sg64
(lp3918
S'admin'
p3919
asbasbasbag57
(g73
g59
NtRp3920
(dp3921
g62
(dp3922
sg71
g3872
sg64
(lp3923
g57
(g78
g59
NtRp3924
(dp3925
g62
(dp3926
g82
g83
ssg71
g3920
sg64
(lp3927
S'id'
p3928
asbag57
(g78
g59
NtRp3929
(dp3930
g62
(dp3931
g89
g90
ssg71
g3920
sg64
(lp3932
S':'
asbag57
(g78
g59
NtRp3933
(dp3934
g62
(dp3935
sg71
g3920
sg64
(lp3936
g57
(g58
g59
NtRp3937
(dp3938
g62
(dp3939
g70
I3
ssg71
g3933
sg64
(lp3940
S'1'
asbasbasbag57
(g73
g59
NtRp3941
(dp3942
g62
(dp3943
sg71
g3872
sg64
(lp3944
g57
(g78
g59
NtRp3945
(dp3946
g62
(dp3947
g82
g83
ssg71
g3941
sg64
(lp3948
S'last_name'
p3949
asbag57
(g78
g59
NtRp3950
(dp3951
g62
(dp3952
g89
g90
ssg71
g3941
sg64
(lp3953
S':'
asbag57
(g78
g59
NtRp3954
(dp3955
g62
(dp3956
sg71
g3941
sg64
(lp3957
g57
(g58
g59
NtRp3958
(dp3959
g62
(dp3960
g70
I3
ssg71
g3954
sg64
(lp3961
S'admin'
p3962
asbasbasbag57
(g73
g59
NtRp3963
(dp3964
g62
(dp3965
sg71
g3872
sg64
(lp3966
g57
(g78
g59
NtRp3967
(dp3968
g62
(dp3969
g82
g83
ssg71
g3963
sg64
(lp3970
S'password'
p3971
asbag57
(g78
g59
NtRp3972
(dp3973
g62
(dp3974
g89
g90
ssg71
g3963
sg64
(lp3975
S':'
asbag57
(g78
g59
NtRp3976
(dp3977
g62
(dp3978
sg71
g3963
sg64
(lp3979
g57
(g58
g59
NtRp3980
(dp3981
g62
(dp3982
g70
I3
ssg71
g3976
sg64
(lp3983
S'pbkdf2(1000,20,sha512)$95a5aa734dea8806$5f5d0f6e189f5049fb01daf061404b5257968886'
p3984
asbasbasbag57
(g73
g59
NtRp3985
(dp3986
g62
(dp3987
sg71
g3872
sg64
(lp3988
g57
(g78
g59
NtRp3989
(dp3990
g62
(dp3991
g82
g83
ssg71
g3985
sg64
(lp3992
S'registration_id'
p3993
asbag57
(g78
g59
NtRp3994
(dp3995
g62
(dp3996
g89
g90
ssg71
g3985
sg64
(lp3997
S':'
asbag57
(g78
g59
NtRp3998
(dp3999
g62
(dp4000
sg71
g3985
sg64
(lp4001
g57
(g58
g59
NtRp4002
(dp4003
g62
(dp4004
g70
I3
ssg71
g3998
sg64
(lp4005
S''
asbasbasbag57
(g73
g59
NtRp4006
(dp4007
g62
(dp4008
sg71
g3872
sg64
(lp4009
g57
(g78
g59
NtRp4010
(dp4011
g62
(dp4012
g82
g83
ssg71
g4006
sg64
(lp4013
S'registration_key'
p4014
asbag57
(g78
g59
NtRp4015
(dp4016
g62
(dp4017
g89
g90
ssg71
g4006
sg64
(lp4018
S':'
asbag57
(g78
g59
NtRp4019
(dp4020
g62
(dp4021
sg71
g4006
sg64
(lp4022
g57
(g58
g59
NtRp4023
(dp4024
g62
(dp4025
g70
I3
ssg71
g4019
sg64
(lp4026
S''
asbasbasbag57
(g73
g59
NtRp4027
(dp4028
g62
(dp4029
sg71
g3872
sg64
(lp4030
g57
(g78
g59
NtRp4031
(dp4032
g62
(dp4033
g82
g83
ssg71
g4027
sg64
(lp4034
S'reset_password_key'
p4035
asbag57
(g78
g59
NtRp4036
(dp4037
g62
(dp4038
g89
g90
ssg71
g4027
sg64
(lp4039
S':'
asbag57
(g78
g59
NtRp4040
(dp4041
g62
(dp4042
sg71
g4027
sg64
(lp4043
g57
(g58
g59
NtRp4044
(dp4045
g62
(dp4046
g70
I3
ssg71
g4040
sg64
(lp4047
S''
asbasbasbag57
(g73
g59
NtRp4048
(dp4049
g62
(dp4050
sg71
g3872
sg64
(lp4051
g57
(g78
g59
NtRp4052
(dp4053
g62
(dp4054
g82
g83
ssg71
g4048
sg64
(lp4055
S'username'
p4056
asbag57
(g78
g59
NtRp4057
(dp4058
g62
(dp4059
g89
g90
ssg71
g4048
sg64
(lp4060
S':'
asbag57
(g78
g59
NtRp4061
(dp4062
g62
(dp4063
sg71
g4048
sg64
(lp4064
g57
(g58
g59
NtRp4065
(dp4066
g62
(dp4067
g70
I3
ssg71
g4061
sg64
(lp4068
S'admin'
p4069
asbasbasbasbasbasbasbag57
(g73
g59
NtRp4070
(dp4071
g62
(dp4072
sg71
g3781
sg64
(lp4073
g57
(g78
g59
NtRp4074
(dp4075
g62
(dp4076
g82
g83
ssg71
g4070
sg64
(lp4077
S'user_groups'
p4078
asbag57
(g78
g59
NtRp4079
(dp4080
g62
(dp4081
g89
g90
ssg71
g4070
sg64
(lp4082
S':'
asbag57
(g78
g59
NtRp4083
(dp4084
g62
(dp4085
sg71
g4070
sg64
(lp4086
g57
(g58
g59
NtRp4087
(dp4088
g62
(dp4089
g70
I4
ssg71
g4083
sg64
(lp4090
g57
(g66
g59
NtRp4091
(dp4092
g62
(dp4093
g70
I3
ssg71
Nsg64
(lp4094
g57
(g73
g59
NtRp4095
(dp4096
g62
(dp4097
sg71
g4091
sg64
(lp4098
g57
(g78
g59
NtRp4099
(dp4100
g62
(dp4101
g82
g83
ssg71
g4095
sg64
(lp4102
S'1'
asbag57
(g78
g59
NtRp4103
(dp4104
g62
(dp4105
g89
g90
ssg71
g4095
sg64
(lp4106
S':'
asbag57
(g78
g59
NtRp4107
(dp4108
g62
(dp4109
sg71
g4095
sg64
(lp4110
g57
(g58
g59
NtRp4111
(dp4112
g62
(dp4113
g70
I3
ssg71
g4107
sg64
(lp4114
S'user_1'
p4115
asbasbasbasbasbasbasbasbasbasbasbag57
(g73
g59
NtRp4116
(dp4117
g62
(dp4118
sg71
g3756
sg64
(lp4119
g57
(g78
g59
NtRp4120
(dp4121
g62
(dp4122
g82
g83
ssg71
g4116
sg64
(lp4123
S'flash'
p4124
asbag57
(g78
g59
NtRp4125
(dp4126
g62
(dp4127
g89
g90
ssg71
g4116
sg64
(lp4128
S':'
asbag57
(g78
g59
NtRp4129
(dp4130
g62
(dp4131
sg71
g4116
sg64
(lp4132
g57
(g58
g59
NtRp4133
(dp4134
g62
(dp4135
g70
I5
ssg71
g4129
sg64
(lp4136
S'None'
p4137
asbasbasbasbasbsS'etype'
p4138
S"<type 'exceptions.AttributeError'>"
p4139
sS'date'
p4140
S'Thu Sep  6 16:29:25 2012'
p4141
sS'response'
p4142
g57
(g58
g59
NtRp4143
(dp4144
g62
(dp4145
sg64
(lp4146
g57
(g66
g59
NtRp4147
(dp4148
g62
(dp4149
g70
I5
ssg71
Nsg64
(lp4150
g57
(g73
g59
NtRp4151
(dp4152
g62
(dp4153
sg71
g4147
sg64
(lp4154
g57
(g78
g59
NtRp4155
(dp4156
g62
(dp4157
g82
g83
ssg71
g4151
sg64
(lp4158
g194
asbag57
(g78
g59
NtRp4159
(dp4160
g62
(dp4161
g89
g90
ssg71
g4151
sg64
(lp4162
S':'
asbag57
(g78
g59
NtRp4163
(dp4164
g62
(dp4165
sg71
g4151
sg64
(lp4166
g57
(g58
g59
NtRp4167
(dp4168
g62
(dp4169
g70
I5
ssg71
g4163
sg64
(lp4170
S'<cStringIO.StringO object at 0xae84e5a0>'
p4171
asbasbasbag57
(g73
g59
NtRp4172
(dp4173
g62
(dp4174
sg71
g4147
sg64
(lp4175
g57
(g78
g59
NtRp4176
(dp4177
g62
(dp4178
g82
g83
ssg71
g4172
sg64
(lp4179
g282
asbag57
(g78
g59
NtRp4180
(dp4181
g62
(dp4182
g89
g90
ssg71
g4172
sg64
(lp4183
S':'
asbag57
(g78
g59
NtRp4184
(dp4185
g62
(dp4186
sg71
g4172
sg64
(lp4187
g57
(g58
g59
NtRp4188
(dp4189
g62
(dp4190
g70
I5
ssg71
g4184
sg64
(lp4191
g57
(g66
g59
NtRp4192
(dp4193
g62
(dp4194
g70
I4
ssg71
Nsg64
(lp4195
g57
(g73
g59
NtRp4196
(dp4197
g62
(dp4198
sg71
g4192
sg64
(lp4199
g57
(g78
g59
NtRp4200
(dp4201
g62
(dp4202
g82
g83
ssg71
g4196
sg64
(lp4203
S'session_id_proyectos'
p4204
asbag57
(g78
g59
NtRp4205
(dp4206
g62
(dp4207
g89
g90
ssg71
g4196
sg64
(lp4208
S':'
asbag57
(g78
g59
NtRp4209
(dp4210
g62
(dp4211
sg71
g4196
sg64
(lp4212
g57
(g58
g59
NtRp4213
(dp4214
g62
(dp4215
g70
I4
ssg71
g4209
sg64
(lp4216
g699
ag57
(g66
g59
NtRp4217
(dp4218
g62
(dp4219
g70
I3
ssg71
Nsg64
(lp4220
g57
(g73
g59
NtRp4221
(dp4222
g62
(dp4223
sg71
g4217
sg64
(lp4224
g57
(g78
g59
NtRp4225
(dp4226
g62
(dp4227
g82
g83
ssg71
g4221
sg64
(lp4228
g332
asbag57
(g78
g59
NtRp4229
(dp4230
g62
(dp4231
g89
g90
ssg71
g4221
sg64
(lp4232
S':'
asbag57
(g78
g59
NtRp4233
(dp4234
g62
(dp4235
sg71
g4221
sg64
(lp4236
g57
(g58
g59
NtRp4237
(dp4238
g62
(dp4239
g70
I3
ssg71
g4233
sg64
(lp4240
S''
asbasbasbag57
(g73
g59
NtRp4241
(dp4242
g62
(dp4243
sg71
g4217
sg64
(lp4244
g57
(g78
g59
NtRp4245
(dp4246
g62
(dp4247
g82
g83
ssg71
g4241
sg64
(lp4248
g353
asbag57
(g78
g59
NtRp4249
(dp4250
g62
(dp4251
g89
g90
ssg71
g4241
sg64
(lp4252
S':'
asbag57
(g78
g59
NtRp4253
(dp4254
g62
(dp4255
sg71
g4241
sg64
(lp4256
g57
(g58
g59
NtRp4257
(dp4258
g62
(dp4259
g70
I3
ssg71
g4253
sg64
(lp4260
S''
asbasbasbag57
(g73
g59
NtRp4261
(dp4262
g62
(dp4263
sg71
g4217
sg64
(lp4264
g57
(g78
g59
NtRp4265
(dp4266
g62
(dp4267
g82
g83
ssg71
g4261
sg64
(lp4268
g374
asbag57
(g78
g59
NtRp4269
(dp4270
g62
(dp4271
g89
g90
ssg71
g4261
sg64
(lp4272
S':'
asbag57
(g78
g59
NtRp4273
(dp4274
g62
(dp4275
sg71
g4261
sg64
(lp4276
g57
(g58
g59
NtRp4277
(dp4278
g62
(dp4279
g70
I3
ssg71
g4273
sg64
(lp4280
S''
asbasbasbag57
(g73
g59
NtRp4281
(dp4282
g62
(dp4283
sg71
g4217
sg64
(lp4284
g57
(g78
g59
NtRp4285
(dp4286
g62
(dp4287
g82
g83
ssg71
g4281
sg64
(lp4288
g395
asbag57
(g78
g59
NtRp4289
(dp4290
g62
(dp4291
g89
g90
ssg71
g4281
sg64
(lp4292
S':'
asbag57
(g78
g59
NtRp4293
(dp4294
g62
(dp4295
sg71
g4281
sg64
(lp4296
g57
(g58
g59
NtRp4297
(dp4298
g62
(dp4299
g70
I3
ssg71
g4293
sg64
(lp4300
S''
asbasbasbag57
(g73
g59
NtRp4301
(dp4302
g62
(dp4303
sg71
g4217
sg64
(lp4304
g57
(g78
g59
NtRp4305
(dp4306
g62
(dp4307
g82
g83
ssg71
g4301
sg64
(lp4308
g416
asbag57
(g78
g59
NtRp4309
(dp4310
g62
(dp4311
g89
g90
ssg71
g4301
sg64
(lp4312
S':'
asbag57
(g78
g59
NtRp4313
(dp4314
g62
(dp4315
sg71
g4301
sg64
(lp4316
g57
(g58
g59
NtRp4317
(dp4318
g62
(dp4319
g70
I3
ssg71
g4313
sg64
(lp4320
S''
asbasbasbag57
(g73
g59
NtRp4321
(dp4322
g62
(dp4323
sg71
g4217
sg64
(lp4324
g57
(g78
g59
NtRp4325
(dp4326
g62
(dp4327
g82
g83
ssg71
g4321
sg64
(lp4328
g437
asbag57
(g78
g59
NtRp4329
(dp4330
g62
(dp4331
g89
g90
ssg71
g4321
sg64
(lp4332
S':'
asbag57
(g78
g59
NtRp4333
(dp4334
g62
(dp4335
sg71
g4321
sg64
(lp4336
g57
(g58
g59
NtRp4337
(dp4338
g62
(dp4339
g70
I3
ssg71
g4333
sg64
(lp4340
S'/'
asbasbasbag57
(g73
g59
NtRp4341
(dp4342
g62
(dp4343
sg71
g4217
sg64
(lp4344
g57
(g78
g59
NtRp4345
(dp4346
g62
(dp4347
g82
g83
ssg71
g4341
sg64
(lp4348
g458
asbag57
(g78
g59
NtRp4349
(dp4350
g62
(dp4351
g89
g90
ssg71
g4341
sg64
(lp4352
S':'
asbag57
(g78
g59
NtRp4353
(dp4354
g62
(dp4355
sg71
g4341
sg64
(lp4356
g57
(g58
g59
NtRp4357
(dp4358
g62
(dp4359
g70
I3
ssg71
g4353
sg64
(lp4360
S''
asbasbasbag57
(g73
g59
NtRp4361
(dp4362
g62
(dp4363
sg71
g4217
sg64
(lp4364
g57
(g78
g59
NtRp4365
(dp4366
g62
(dp4367
g82
g83
ssg71
g4361
sg64
(lp4368
g479
asbag57
(g78
g59
NtRp4369
(dp4370
g62
(dp4371
g89
g90
ssg71
g4361
sg64
(lp4372
S':'
asbag57
(g78
g59
NtRp4373
(dp4374
g62
(dp4375
sg71
g4361
sg64
(lp4376
g57
(g58
g59
NtRp4377
(dp4378
g62
(dp4379
g70
I3
ssg71
g4373
sg64
(lp4380
S''
asbasbasbasbasbasbasbasbasbasbasbag57
(g73
g59
NtRp4381
(dp4382
g62
(dp4383
sg71
g4147
sg64
(lp4384
g57
(g78
g59
NtRp4385
(dp4386
g62
(dp4387
g82
g83
ssg71
g4381
sg64
(lp4388
S'delimiters'
p4389
asbag57
(g78
g59
NtRp4390
(dp4391
g62
(dp4392
g89
g90
ssg71
g4381
sg64
(lp4393
S':'
asbag57
(g78
g59
NtRp4394
(dp4395
g62
(dp4396
sg71
g4381
sg64
(lp4397
g57
(g58
g59
NtRp4398
(dp4399
g62
(dp4400
g70
I5
ssg71
g4394
sg64
(lp4401
g57
(g66
g59
NtRp4402
(dp4403
g62
(dp4404
g70
I4
ssg71
Nsg64
(lp4405
g57
(g73
g59
NtRp4406
(dp4407
g62
(dp4408
sg71
g4402
sg64
(lp4409
g57
(g78
g59
NtRp4410
(dp4411
g62
(dp4412
sg71
g4406
sg64
(lp4413
g57
(g58
g59
NtRp4414
(dp4415
g62
(dp4416
g70
I4
ssg71
g4410
sg64
(lp4417
S'{{'
p4418
asbasbasbag57
(g73
g59
NtRp4419
(dp4420
g62
(dp4421
sg71
g4402
sg64
(lp4422
g57
(g78
g59
NtRp4423
(dp4424
g62
(dp4425
sg71
g4419
sg64
(lp4426
g57
(g58
g59
NtRp4427
(dp4428
g62
(dp4429
g70
I4
ssg71
g4423
sg64
(lp4430
S'}}'
p4431
asbasbasbasbasbasbasbag57
(g73
g59
NtRp4432
(dp4433
g62
(dp4434
sg71
g4147
sg64
(lp4435
g57
(g78
g59
NtRp4436
(dp4437
g62
(dp4438
g82
g83
ssg71
g4432
sg64
(lp4439
S'files'
p4440
asbag57
(g78
g59
NtRp4441
(dp4442
g62
(dp4443
g89
g90
ssg71
g4432
sg64
(lp4444
S':'
asbag57
(g78
g59
NtRp4445
(dp4446
g62
(dp4447
sg71
g4432
sg64
(lp4448
g57
(g58
g59
NtRp4449
(dp4450
g62
(dp4451
g70
I5
ssg71
g4445
sg64
(lp4452
g57
(g66
g59
NtRp4453
(dp4454
g62
(dp4455
g70
I4
ssg71
Nsg64
(lp4456
sbasbasbasbag57
(g73
g59
NtRp4457
(dp4458
g62
(dp4459
sg71
g4147
sg64
(lp4460
g57
(g78
g59
NtRp4461
(dp4462
g62
(dp4463
g82
g83
ssg71
g4457
sg64
(lp4464
S'flash'
p4465
asbag57
(g78
g59
NtRp4466
(dp4467
g62
(dp4468
g89
g90
ssg71
g4457
sg64
(lp4469
S':'
asbag57
(g78
g59
NtRp4470
(dp4471
g62
(dp4472
sg71
g4457
sg64
(lp4473
g57
(g58
g59
NtRp4474
(dp4475
g62
(dp4476
g70
I5
ssg71
g4470
sg64
(lp4477
S''
asbasbasbag57
(g73
g59
NtRp4478
(dp4479
g62
(dp4480
sg71
g4147
sg64
(lp4481
g57
(g78
g59
NtRp4482
(dp4483
g62
(dp4484
g82
g83
ssg71
g4478
sg64
(lp4485
S'generic_patterns'
p4486
asbag57
(g78
g59
NtRp4487
(dp4488
g62
(dp4489
g89
g90
ssg71
g4478
sg64
(lp4490
S':'
asbag57
(g78
g59
NtRp4491
(dp4492
g62
(dp4493
sg71
g4478
sg64
(lp4494
g57
(g58
g59
NtRp4495
(dp4496
g62
(dp4497
g70
I5
ssg71
g4491
sg64
(lp4498
g57
(g66
g59
NtRp4499
(dp4500
g62
(dp4501
g70
I4
ssg71
Nsg64
(lp4502
g57
(g73
g59
NtRp4503
(dp4504
g62
(dp4505
sg71
g4499
sg64
(lp4506
g57
(g78
g59
NtRp4507
(dp4508
g62
(dp4509
sg71
g4503
sg64
(lp4510
g57
(g58
g59
NtRp4511
(dp4512
g62
(dp4513
g70
I4
ssg71
g4507
sg64
(lp4514
S'*'
asbasbasbasbasbasbasbag57
(g73
g59
NtRp4515
(dp4516
g62
(dp4517
sg71
g4147
sg64
(lp4518
g57
(g78
g59
NtRp4519
(dp4520
g62
(dp4521
g82
g83
ssg71
g4515
sg64
(lp4522
S'google_analytics_id'
p4523
asbag57
(g78
g59
NtRp4524
(dp4525
g62
(dp4526
g89
g90
ssg71
g4515
sg64
(lp4527
S':'
asbag57
(g78
g59
NtRp4528
(dp4529
g62
(dp4530
sg71
g4515
sg64
(lp4531
g57
(g58
g59
NtRp4532
(dp4533
g62
(dp4534
g70
I5
ssg71
g4528
sg64
(lp4535
S'None'
p4536
asbasbasbag57
(g73
g59
NtRp4537
(dp4538
g62
(dp4539
sg71
g4147
sg64
(lp4540
g57
(g78
g59
NtRp4541
(dp4542
g62
(dp4543
g82
g83
ssg71
g4537
sg64
(lp4544
S'headers'
p4545
asbag57
(g78
g59
NtRp4546
(dp4547
g62
(dp4548
g89
g90
ssg71
g4537
sg64
(lp4549
S':'
asbag57
(g78
g59
NtRp4550
(dp4551
g62
(dp4552
sg71
g4537
sg64
(lp4553
g57
(g58
g59
NtRp4554
(dp4555
g62
(dp4556
g70
I5
ssg71
g4550
sg64
(lp4557
g57
(g66
g59
NtRp4558
(dp4559
g62
(dp4560
g70
I4
ssg71
Nsg64
(lp4561
g57
(g73
g59
NtRp4562
(dp4563
g62
(dp4564
sg71
g4558
sg64
(lp4565
g57
(g78
g59
NtRp4566
(dp4567
g62
(dp4568
g82
g83
ssg71
g4562
sg64
(lp4569
S'Cache-Control'
p4570
asbag57
(g78
g59
NtRp4571
(dp4572
g62
(dp4573
g89
g90
ssg71
g4562
sg64
(lp4574
S':'
asbag57
(g78
g59
NtRp4575
(dp4576
g62
(dp4577
sg71
g4562
sg64
(lp4578
g57
(g58
g59
NtRp4579
(dp4580
g62
(dp4581
g70
I4
ssg71
g4575
sg64
(lp4582
S'no-store, no-cache, must-revalidate, post-check=0, pre-check=0'
p4583
asbasbasbag57
(g73
g59
NtRp4584
(dp4585
g62
(dp4586
sg71
g4558
sg64
(lp4587
g57
(g78
g59
NtRp4588
(dp4589
g62
(dp4590
g82
g83
ssg71
g4584
sg64
(lp4591
S'Content-Type'
p4592
asbag57
(g78
g59
NtRp4593
(dp4594
g62
(dp4595
g89
g90
ssg71
g4584
sg64
(lp4596
S':'
asbag57
(g78
g59
NtRp4597
(dp4598
g62
(dp4599
sg71
g4584
sg64
(lp4600
g57
(g58
g59
NtRp4601
(dp4602
g62
(dp4603
g70
I4
ssg71
g4597
sg64
(lp4604
S'text/html; charset=utf-8'
p4605
asbasbasbag57
(g73
g59
NtRp4606
(dp4607
g62
(dp4608
sg71
g4558
sg64
(lp4609
g57
(g78
g59
NtRp4610
(dp4611
g62
(dp4612
g82
g83
ssg71
g4606
sg64
(lp4613
S'Expires'
p4614
asbag57
(g78
g59
NtRp4615
(dp4616
g62
(dp4617
g89
g90
ssg71
g4606
sg64
(lp4618
S':'
asbag57
(g78
g59
NtRp4619
(dp4620
g62
(dp4621
sg71
g4606
sg64
(lp4622
g57
(g58
g59
NtRp4623
(dp4624
g62
(dp4625
g70
I4
ssg71
g4619
sg64
(lp4626
S'Thu, 06 Sep 2012 21:29:25 GMT'
p4627
asbasbasbag57
(g73
g59
NtRp4628
(dp4629
g62
(dp4630
sg71
g4558
sg64
(lp4631
g57
(g78
g59
NtRp4632
(dp4633
g62
(dp4634
g82
g83
ssg71
g4628
sg64
(lp4635
S'Pragma'
p4636
asbag57
(g78
g59
NtRp4637
(dp4638
g62
(dp4639
g89
g90
ssg71
g4628
sg64
(lp4640
S':'
asbag57
(g78
g59
NtRp4641
(dp4642
g62
(dp4643
sg71
g4628
sg64
(lp4644
g57
(g58
g59
NtRp4645
(dp4646
g62
(dp4647
g70
I4
ssg71
g4641
sg64
(lp4648
S'no-cache'
p4649
asbasbasbag57
(g73
g59
NtRp4650
(dp4651
g62
(dp4652
sg71
g4558
sg64
(lp4653
g57
(g78
g59
NtRp4654
(dp4655
g62
(dp4656
g82
g83
ssg71
g4650
sg64
(lp4657
S'X-Powered-By'
p4658
asbag57
(g78
g59
NtRp4659
(dp4660
g62
(dp4661
g89
g90
ssg71
g4650
sg64
(lp4662
S':'
asbag57
(g78
g59
NtRp4663
(dp4664
g62
(dp4665
sg71
g4650
sg64
(lp4666
g57
(g58
g59
NtRp4667
(dp4668
g62
(dp4669
g70
I4
ssg71
g4663
sg64
(lp4670
S'web2py'
p4671
asbasbasbasbasbasbasbag57
(g73
g59
NtRp4672
(dp4673
g62
(dp4674
sg71
g4147
sg64
(lp4675
g57
(g78
g59
NtRp4676
(dp4677
g62
(dp4678
g82
g83
ssg71
g4672
sg64
(lp4679
S'menu'
p4680
asbag57
(g78
g59
NtRp4681
(dp4682
g62
(dp4683
g89
g90
ssg71
g4672
sg64
(lp4684
S':'
asbag57
(g78
g59
NtRp4685
(dp4686
g62
(dp4687
sg71
g4672
sg64
(lp4688
g57
(g58
g59
NtRp4689
(dp4690
g62
(dp4691
g70
I5
ssg71
g4685
sg64
(lp4692
g57
(g66
g59
NtRp4693
(dp4694
g62
(dp4695
g70
I4
ssg71
Nsg64
(lp4696
g57
(g73
g59
NtRp4697
(dp4698
g62
(dp4699
sg71
g4693
sg64
(lp4700
g57
(g78
g59
NtRp4701
(dp4702
g62
(dp4703
sg71
g4697
sg64
(lp4704
g57
(g58
g59
NtRp4705
(dp4706
g62
(dp4707
g70
I4
ssg71
g4701
sg64
(lp4708
g57
(g66
g59
NtRp4709
(dp4710
g62
(dp4711
g70
I3
ssg71
Nsg64
(lp4712
g57
(g73
g59
NtRp4713
(dp4714
g62
(dp4715
sg71
g4709
sg64
(lp4716
g57
(g78
g59
NtRp4717
(dp4718
g62
(dp4719
sg71
g4713
sg64
(lp4720
g57
(g58
g59
NtRp4721
(dp4722
g62
(dp4723
g70
I3
ssg71
g4717
sg64
(lp4724
cgluon.languages
lazyT_unpickle
p4725
(S's\x04\x00\x00\x00Home'
tRp4726
asbasbasbag57
(g73
g59
NtRp4727
(dp4728
g62
(dp4729
sg71
g4709
sg64
(lp4730
g57
(g78
g59
NtRp4731
(dp4732
g62
(dp4733
sg71
g4727
sg64
(lp4734
g57
(g58
g59
NtRp4735
(dp4736
g62
(dp4737
g70
I3
ssg71
g4731
sg64
(lp4738
g100
asbasbasbag57
(g73
g59
NtRp4739
(dp4740
g62
(dp4741
sg71
g4709
sg64
(lp4742
g57
(g78
g59
NtRp4743
(dp4744
g62
(dp4745
sg71
g4739
sg64
(lp4746
g57
(g58
g59
NtRp4747
(dp4748
g62
(dp4749
g70
I3
ssg71
g4743
sg64
(lp4750
S'/proyectos/default/index'
p4751
asbasbasbag57
(g73
g59
NtRp4752
(dp4753
g62
(dp4754
sg71
g4709
sg64
(lp4755
g57
(g78
g59
NtRp4756
(dp4757
g62
(dp4758
sg71
g4752
sg64
(lp4759
g57
(g58
g59
NtRp4760
(dp4761
g62
(dp4762
g70
I3
ssg71
g4756
sg64
(lp4763
g57
(g66
g59
NtRp4764
(dp4765
g62
(dp4766
g70
I2
ssg71
Nsg64
(lp4767
sbasbasbasbasbasbasbasbag57
(g73
g59
NtRp4768
(dp4769
g62
(dp4770
sg71
g4693
sg64
(lp4771
g57
(g78
g59
NtRp4772
(dp4773
g62
(dp4774
sg71
g4768
sg64
(lp4775
g57
(g58
g59
NtRp4776
(dp4777
g62
(dp4778
g70
I4
ssg71
g4772
sg64
(lp4779
g57
(g66
g59
NtRp4780
(dp4781
g62
(dp4782
g70
I3
ssg71
Nsg64
(lp4783
g57
(g73
g59
NtRp4784
(dp4785
g62
(dp4786
sg71
g4780
sg64
(lp4787
g57
(g78
g59
NtRp4788
(dp4789
g62
(dp4790
sg71
g4784
sg64
(lp4791
g57
(g58
g59
NtRp4792
(dp4793
g62
(dp4794
g70
I3
ssg71
g4788
sg64
(lp4795
g4725
(S's\x06\x00\x00\x00Grupos'
tRp4796
asbasbasbag57
(g73
g59
NtRp4797
(dp4798
g62
(dp4799
sg71
g4780
sg64
(lp4800
g57
(g78
g59
NtRp4801
(dp4802
g62
(dp4803
sg71
g4797
sg64
(lp4804
g57
(g58
g59
NtRp4805
(dp4806
g62
(dp4807
g70
I3
ssg71
g4801
sg64
(lp4808
g100
asbasbasbag57
(g73
g59
NtRp4809
(dp4810
g62
(dp4811
sg71
g4780
sg64
(lp4812
g57
(g78
g59
NtRp4813
(dp4814
g62
(dp4815
sg71
g4809
sg64
(lp4816
g57
(g58
g59
NtRp4817
(dp4818
g62
(dp4819
g70
I3
ssg71
g4813
sg64
(lp4820
S'/proyectos/configuracion/grupos'
p4821
asbasbasbag57
(g73
g59
NtRp4822
(dp4823
g62
(dp4824
sg71
g4780
sg64
(lp4825
g57
(g78
g59
NtRp4826
(dp4827
g62
(dp4828
sg71
g4822
sg64
(lp4829
g57
(g58
g59
NtRp4830
(dp4831
g62
(dp4832
g70
I3
ssg71
g4826
sg64
(lp4833
g57
(g66
g59
NtRp4834
(dp4835
g62
(dp4836
g70
I2
ssg71
Nsg64
(lp4837
sbasbasbasbasbasbasbasbag57
(g73
g59
NtRp4838
(dp4839
g62
(dp4840
sg71
g4693
sg64
(lp4841
g57
(g78
g59
NtRp4842
(dp4843
g62
(dp4844
sg71
g4838
sg64
(lp4845
g57
(g58
g59
NtRp4846
(dp4847
g62
(dp4848
g70
I4
ssg71
g4842
sg64
(lp4849
g57
(g66
g59
NtRp4850
(dp4851
g62
(dp4852
g70
I3
ssg71
Nsg64
(lp4853
g57
(g73
g59
NtRp4854
(dp4855
g62
(dp4856
sg71
g4850
sg64
(lp4857
g57
(g78
g59
NtRp4858
(dp4859
g62
(dp4860
sg71
g4854
sg64
(lp4861
g57
(g58
g59
NtRp4862
(dp4863
g62
(dp4864
g70
I3
ssg71
g4858
sg64
(lp4865
g4725
(S's\x07\x00\x00\x00Estados'
tRp4866
asbasbasbag57
(g73
g59
NtRp4867
(dp4868
g62
(dp4869
sg71
g4850
sg64
(lp4870
g57
(g78
g59
NtRp4871
(dp4872
g62
(dp4873
sg71
g4867
sg64
(lp4874
g57
(g58
g59
NtRp4875
(dp4876
g62
(dp4877
g70
I3
ssg71
g4871
sg64
(lp4878
g100
asbasbasbag57
(g73
g59
NtRp4879
(dp4880
g62
(dp4881
sg71
g4850
sg64
(lp4882
g57
(g78
g59
NtRp4883
(dp4884
g62
(dp4885
sg71
g4879
sg64
(lp4886
g57
(g58
g59
NtRp4887
(dp4888
g62
(dp4889
g70
I3
ssg71
g4883
sg64
(lp4890
S'/proyectos/configuracion/estados'
p4891
asbasbasbag57
(g73
g59
NtRp4892
(dp4893
g62
(dp4894
sg71
g4850
sg64
(lp4895
g57
(g78
g59
NtRp4896
(dp4897
g62
(dp4898
sg71
g4892
sg64
(lp4899
g57
(g58
g59
NtRp4900
(dp4901
g62
(dp4902
g70
I3
ssg71
g4896
sg64
(lp4903
g57
(g66
g59
NtRp4904
(dp4905
g62
(dp4906
g70
I2
ssg71
Nsg64
(lp4907
sbasbasbasbasbasbasbasbag57
(g73
g59
NtRp4908
(dp4909
g62
(dp4910
sg71
g4693
sg64
(lp4911
g57
(g78
g59
NtRp4912
(dp4913
g62
(dp4914
sg71
g4908
sg64
(lp4915
g57
(g58
g59
NtRp4916
(dp4917
g62
(dp4918
g70
I4
ssg71
g4912
sg64
(lp4919
g57
(g66
g59
NtRp4920
(dp4921
g62
(dp4922
g70
I3
ssg71
Nsg64
(lp4923
g57
(g73
g59
NtRp4924
(dp4925
g62
(dp4926
sg71
g4920
sg64
(lp4927
g57
(g78
g59
NtRp4928
(dp4929
g62
(dp4930
sg71
g4924
sg64
(lp4931
g57
(g58
g59
NtRp4932
(dp4933
g62
(dp4934
g70
I3
ssg71
g4928
sg64
(lp4935
g4725
(S's\x05\x00\x00\x00Tipos'
tRp4936
asbasbasbag57
(g73
g59
NtRp4937
(dp4938
g62
(dp4939
sg71
g4920
sg64
(lp4940
g57
(g78
g59
NtRp4941
(dp4942
g62
(dp4943
sg71
g4937
sg64
(lp4944
g57
(g58
g59
NtRp4945
(dp4946
g62
(dp4947
g70
I3
ssg71
g4941
sg64
(lp4948
g100
asbasbasbag57
(g73
g59
NtRp4949
(dp4950
g62
(dp4951
sg71
g4920
sg64
(lp4952
g57
(g78
g59
NtRp4953
(dp4954
g62
(dp4955
sg71
g4949
sg64
(lp4956
g57
(g58
g59
NtRp4957
(dp4958
g62
(dp4959
g70
I3
ssg71
g4953
sg64
(lp4960
S'/proyectos/configuracion/tipos'
p4961
asbasbasbag57
(g73
g59
NtRp4962
(dp4963
g62
(dp4964
sg71
g4920
sg64
(lp4965
g57
(g78
g59
NtRp4966
(dp4967
g62
(dp4968
sg71
g4962
sg64
(lp4969
g57
(g58
g59
NtRp4970
(dp4971
g62
(dp4972
g70
I3
ssg71
g4966
sg64
(lp4973
g57
(g66
g59
NtRp4974
(dp4975
g62
(dp4976
g70
I2
ssg71
Nsg64
(lp4977
sbasbasbasbasbasbasbasbag57
(g73
g59
NtRp4978
(dp4979
g62
(dp4980
sg71
g4693
sg64
(lp4981
g57
(g78
g59
NtRp4982
(dp4983
g62
(dp4984
sg71
g4978
sg64
(lp4985
g57
(g58
g59
NtRp4986
(dp4987
g62
(dp4988
g70
I4
ssg71
g4982
sg64
(lp4989
g57
(g66
g59
NtRp4990
(dp4991
g62
(dp4992
g70
I3
ssg71
Nsg64
(lp4993
g57
(g73
g59
NtRp4994
(dp4995
g62
(dp4996
sg71
g4990
sg64
(lp4997
g57
(g78
g59
NtRp4998
(dp4999
g62
(dp5000
sg71
g4994
sg64
(lp5001
g57
(g58
g59
NtRp5002
(dp5003
g62
(dp5004
g70
I3
ssg71
g4998
sg64
(lp5005
g4725
(S's\x08\x00\x00\x00Clientes'
tRp5006
asbasbasbag57
(g73
g59
NtRp5007
(dp5008
g62
(dp5009
sg71
g4990
sg64
(lp5010
g57
(g78
g59
NtRp5011
(dp5012
g62
(dp5013
sg71
g5007
sg64
(lp5014
g57
(g58
g59
NtRp5015
(dp5016
g62
(dp5017
g70
I3
ssg71
g5011
sg64
(lp5018
g100
asbasbasbag57
(g73
g59
NtRp5019
(dp5020
g62
(dp5021
sg71
g4990
sg64
(lp5022
g57
(g78
g59
NtRp5023
(dp5024
g62
(dp5025
sg71
g5019
sg64
(lp5026
g57
(g58
g59
NtRp5027
(dp5028
g62
(dp5029
g70
I3
ssg71
g5023
sg64
(lp5030
S'/proyectos/configuracion/clientes'
p5031
asbasbasbag57
(g73
g59
NtRp5032
(dp5033
g62
(dp5034
sg71
g4990
sg64
(lp5035
g57
(g78
g59
NtRp5036
(dp5037
g62
(dp5038
sg71
g5032
sg64
(lp5039
g57
(g58
g59
NtRp5040
(dp5041
g62
(dp5042
g70
I3
ssg71
g5036
sg64
(lp5043
g57
(g66
g59
NtRp5044
(dp5045
g62
(dp5046
g70
I2
ssg71
Nsg64
(lp5047
sbasbasbasbasbasbasbasbag57
(g73
g59
NtRp5048
(dp5049
g62
(dp5050
sg71
g4693
sg64
(lp5051
g57
(g78
g59
NtRp5052
(dp5053
g62
(dp5054
sg71
g5048
sg64
(lp5055
g57
(g58
g59
NtRp5056
(dp5057
g62
(dp5058
g70
I4
ssg71
g5052
sg64
(lp5059
g57
(g66
g59
NtRp5060
(dp5061
g62
(dp5062
g70
I3
ssg71
Nsg64
(lp5063
g57
(g73
g59
NtRp5064
(dp5065
g62
(dp5066
sg71
g5060
sg64
(lp5067
g57
(g78
g59
NtRp5068
(dp5069
g62
(dp5070
sg71
g5064
sg64
(lp5071
g57
(g58
g59
NtRp5072
(dp5073
g62
(dp5074
g70
I3
ssg71
g5068
sg64
(lp5075
g4725
(S's\t\x00\x00\x00proyectos'
tRp5076
asbasbasbag57
(g73
g59
NtRp5077
(dp5078
g62
(dp5079
sg71
g5060
sg64
(lp5080
g57
(g78
g59
NtRp5081
(dp5082
g62
(dp5083
sg71
g5077
sg64
(lp5084
g57
(g58
g59
NtRp5085
(dp5086
g62
(dp5087
g70
I3
ssg71
g5081
sg64
(lp5088
g100
asbasbasbag57
(g73
g59
NtRp5089
(dp5090
g62
(dp5091
sg71
g5060
sg64
(lp5092
g57
(g78
g59
NtRp5093
(dp5094
g62
(dp5095
sg71
g5089
sg64
(lp5096
g57
(g58
g59
NtRp5097
(dp5098
g62
(dp5099
g70
I3
ssg71
g5093
sg64
(lp5100
S'/proyectos/configuracion/proyectos'
p5101
asbasbasbag57
(g73
g59
NtRp5102
(dp5103
g62
(dp5104
sg71
g5060
sg64
(lp5105
g57
(g78
g59
NtRp5106
(dp5107
g62
(dp5108
sg71
g5102
sg64
(lp5109
g57
(g58
g59
NtRp5110
(dp5111
g62
(dp5112
g70
I3
ssg71
g5106
sg64
(lp5113
g57
(g66
g59
NtRp5114
(dp5115
g62
(dp5116
g70
I2
ssg71
Nsg64
(lp5117
sbasbasbasbasbasbasbasbag57
(g73
g59
NtRp5118
(dp5119
g62
(dp5120
sg71
g4693
sg64
(lp5121
g57
(g78
g59
NtRp5122
(dp5123
g62
(dp5124
sg71
g5118
sg64
(lp5125
g57
(g58
g59
NtRp5126
(dp5127
g62
(dp5128
g70
I4
ssg71
g5122
sg64
(lp5129
g57
(g66
g59
NtRp5130
(dp5131
g62
(dp5132
g70
I3
ssg71
Nsg64
(lp5133
g57
(g73
g59
NtRp5134
(dp5135
g62
(dp5136
sg71
g5130
sg64
(lp5137
g57
(g78
g59
NtRp5138
(dp5139
g62
(dp5140
sg71
g5134
sg64
(lp5141
g57
(g58
g59
NtRp5142
(dp5143
g62
(dp5144
g70
I3
ssg71
g5138
sg64
(lp5145
g4725
(S's\x06\x00\x00\x00Tareas'
tRp5146
asbasbasbag57
(g73
g59
NtRp5147
(dp5148
g62
(dp5149
sg71
g5130
sg64
(lp5150
g57
(g78
g59
NtRp5151
(dp5152
g62
(dp5153
sg71
g5147
sg64
(lp5154
g57
(g58
g59
NtRp5155
(dp5156
g62
(dp5157
g70
I3
ssg71
g5151
sg64
(lp5158
g100
asbasbasbag57
(g73
g59
NtRp5159
(dp5160
g62
(dp5161
sg71
g5130
sg64
(lp5162
g57
(g78
g59
NtRp5163
(dp5164
g62
(dp5165
sg71
g5159
sg64
(lp5166
g57
(g58
g59
NtRp5167
(dp5168
g62
(dp5169
g70
I3
ssg71
g5163
sg64
(lp5170
S'/proyectos/configuracion/tareas'
p5171
asbasbasbag57
(g73
g59
NtRp5172
(dp5173
g62
(dp5174
sg71
g5130
sg64
(lp5175
g57
(g78
g59
NtRp5176
(dp5177
g62
(dp5178
sg71
g5172
sg64
(lp5179
g57
(g58
g59
NtRp5180
(dp5181
g62
(dp5182
g70
I3
ssg71
g5176
sg64
(lp5183
g57
(g66
g59
NtRp5184
(dp5185
g62
(dp5186
g70
I2
ssg71
Nsg64
(lp5187
sbasbasbasbasbasbasbasbag57
(g73
g59
NtRp5188
(dp5189
g62
(dp5190
sg71
g4693
sg64
(lp5191
g57
(g78
g59
NtRp5192
(dp5193
g62
(dp5194
sg71
g5188
sg64
(lp5195
g57
(g58
g59
NtRp5196
(dp5197
g62
(dp5198
g70
I4
ssg71
g5192
sg64
(lp5199
g57
(g66
g59
NtRp5200
(dp5201
g62
(dp5202
g70
I3
ssg71
Nsg64
(lp5203
g57
(g73
g59
NtRp5204
(dp5205
g62
(dp5206
sg71
g5200
sg64
(lp5207
g57
(g78
g59
NtRp5208
(dp5209
g62
(dp5210
sg71
g5204
sg64
(lp5211
g57
(g58
g59
NtRp5212
(dp5213
g62
(dp5214
g70
I3
ssg71
g5208
sg64
(lp5215
g57
(cgluon.html
SPAN
p5216
g59
NtRp5217
(dp5218
g62
(dp5219
g82
S'color:yellow'
p5220
ssg71
Nsg64
(lp5221
g4671
asbasbasbasbag57
(g73
g59
NtRp5222
(dp5223
g62
(dp5224
sg71
g5200
sg64
(lp5225
g57
(g78
g59
NtRp5226
(dp5227
g62
(dp5228
sg71
g5222
sg64
(lp5229
g57
(g58
g59
NtRp5230
(dp5231
g62
(dp5232
g70
I3
ssg71
g5226
sg64
(lp5233
g100
asbasbasbag57
(g73
g59
NtRp5234
(dp5235
g62
(dp5236
sg71
g5200
sg64
(lp5237
g57
(g78
g59
NtRp5238
(dp5239
g62
(dp5240
sg71
g5234
sg64
(lp5241
g57
(g58
g59
NtRp5242
(dp5243
g62
(dp5244
g70
I3
ssg71
g5238
sg64
(lp5245
S'http://web2py.com'
p5246
asbasbasbag57
(g73
g59
NtRp5247
(dp5248
g62
(dp5249
sg71
g5200
sg64
(lp5250
g57
(g78
g59
NtRp5251
(dp5252
g62
(dp5253
sg71
g5247
sg64
(lp5254
g57
(g58
g59
NtRp5255
(dp5256
g62
(dp5257
g70
I3
ssg71
g5251
sg64
(lp5258
g57
(g66
g59
NtRp5259
(dp5260
g62
(dp5261
g70
I2
ssg71
Nsg64
(lp5262
g57
(g73
g59
NtRp5263
(dp5264
g62
(dp5265
sg71
g5259
sg64
(lp5266
g57
(g78
g59
NtRp5267
(dp5268
g62
(dp5269
sg71
g5263
sg64
(lp5270
g57
(g58
g59
NtRp5271
(dp5272
g62
(dp5273
g70
I2
ssg71
g5267
sg64
(lp5274
g57
(g66
g59
NtRp5275
(dp5276
g62
(dp5277
g70
I1
ssg71
Nsg64
(lp5278
g57
(g73
g59
NtRp5279
(dp5280
g62
(dp5281
sg71
g5275
sg64
(lp5282
g57
(g78
g59
NtRp5283
(dp5284
g62
(dp5285
sg71
g5279
sg64
(lp5286
g57
(g58
g59
NtRp5287
(dp5288
g62
(dp5289
g70
I1
ssg71
g5283
sg64
(lp5290
g4725
(S's\x08\x00\x00\x00My Sites'
tRp5291
asbasbasbag57
(g73
g59
NtRp5292
(dp5293
g62
(dp5294
sg71
g5275
sg64
(lp5295
g57
(g78
g59
NtRp5296
(dp5297
g62
(dp5298
sg71
g5292
sg64
(lp5299
g57
(g58
g59
NtRp5300
(dp5301
g62
(dp5302
g70
I1
ssg71
g5296
sg64
(lp5303
I00
asbasbasbag57
(g73
g59
NtRp5304
(dp5305
g62
(dp5306
sg71
g5275
sg64
(lp5307
g57
(g78
g59
NtRp5308
(dp5309
g62
(dp5310
sg71
g5304
sg64
(lp5311
g57
(g58
g59
NtRp5312
(dp5313
g62
(dp5314
g70
I1
ssg71
g5308
sg64
(lp5315
S'/admin/default/site'
p5316
asbasbasbasbasbasbasbag57
(g73
g59
NtRp5317
(dp5318
g62
(dp5319
sg71
g5259
sg64
(lp5320
g57
(g78
g59
NtRp5321
(dp5322
g62
(dp5323
sg71
g5317
sg64
(lp5324
g57
(g58
g59
NtRp5325
(dp5326
g62
(dp5327
g70
I2
ssg71
g5321
sg64
(lp5328
g57
(g66
g59
NtRp5329
(dp5330
g62
(dp5331
g70
I1
ssg71
Nsg64
(lp5332
g57
(g73
g59
NtRp5333
(dp5334
g62
(dp5335
sg71
g5329
sg64
(lp5336
g57
(g78
g59
NtRp5337
(dp5338
g62
(dp5339
sg71
g5333
sg64
(lp5340
g57
(g58
g59
NtRp5341
(dp5342
g62
(dp5343
g70
I1
ssg71
g5337
sg64
(lp5344
g4725
(S's\x08\x00\x00\x00This App'
tRp5345
asbasbasbag57
(g73
g59
NtRp5346
(dp5347
g62
(dp5348
sg71
g5329
sg64
(lp5349
g57
(g78
g59
NtRp5350
(dp5351
g62
(dp5352
sg71
g5346
sg64
(lp5353
g57
(g58
g59
NtRp5354
(dp5355
g62
(dp5356
g70
I1
ssg71
g5350
sg64
(lp5357
I00
asbasbasbag57
(g73
g59
NtRp5358
(dp5359
g62
(dp5360
sg71
g5329
sg64
(lp5361
g57
(g78
g59
NtRp5362
(dp5363
g62
(dp5364
sg71
g5358
sg64
(lp5365
g57
(g58
g59
NtRp5366
(dp5367
g62
(dp5368
g70
I1
ssg71
g5362
sg64
(lp5369
S'/admin/default/design/proyectos'
p5370
asbasbasbag57
(g73
g59
NtRp5371
(dp5372
g62
(dp5373
sg71
g5329
sg64
(lp5374
g57
(g78
g59
NtRp5375
(dp5376
g62
(dp5377
sg71
g5371
sg64
(lp5378
g57
(g58
g59
NtRp5379
(dp5380
g62
(dp5381
g70
I1
ssg71
g5375
sg64
(lp5382
(lp5383
(g4725
(S's\x0b\x00\x00\x00Controlador'
tRp5384
I00
S'/admin/default/edit/proyectos/controllers/configuracion.py'
tp5385
a(g4725
(S's\x05\x00\x00\x00Vista'
tRp5386
I00
S'/admin/default/edit/proyectos/views/configuracion/proyectos.html'
tp5387
a(g4725
(S's\x12\x00\x00\x00Dise\xc3\xb1o de p\xc3\xa1gina'
tRp5388
I00
S'/admin/default/edit/proyectos/views/layout.html'
tp5389
a(g4725
(S's\x0e\x00\x00\x00Hoja de estilo'
tRp5390
I00
S'/admin/default/edit/proyectos/static/css/web2py.css'
tp5391
a(g4725
(S's\x0b\x00\x00\x00Modelo "db"'
tRp5392
I00
S'/admin/default/edit/proyectos/models/db.py'
tp5393
a(g4725
(S's\r\x00\x00\x00Modelo "menu"'
tRp5394
I00
S'/admin/default/edit/proyectos/models/menu.py'
tp5395
a(g4725
(S's\r\x00\x00\x00base de datos'
tRp5396
I00
S'/proyectos/appadmin/index'
tp5397
a(g4725
(S's\x06\x00\x00\x00Errors'
tRp5398
I00
S'/admin/default/errors/proyectos'
tp5399
a(g4725
(S's\t\x00\x00\x00Acerca de'
tRp5400
I00
S'/admin/default/about/proyectos'
tp5401
aasbasbasbasbasbasbasbag57
(g73
g59
NtRp5402
(dp5403
g62
(dp5404
sg71
g5259
sg64
(lp5405
g57
(g78
g59
NtRp5406
(dp5407
g62
(dp5408
sg71
g5402
sg64
(lp5409
g57
(g58
g59
NtRp5410
(dp5411
g62
(dp5412
g70
I2
ssg71
g5406
sg64
(lp5413
g57
(g66
g59
NtRp5414
(dp5415
g62
(dp5416
g70
I1
ssg71
Nsg64
(lp5417
g57
(g73
g59
NtRp5418
(dp5419
g62
(dp5420
sg71
g5414
sg64
(lp5421
g57
(g78
g59
NtRp5422
(dp5423
g62
(dp5424
sg71
g5418
sg64
(lp5425
g57
(g58
g59
NtRp5426
(dp5427
g62
(dp5428
g70
I1
ssg71
g5422
sg64
(lp5429
S'web2py.com'
p5430
asbasbasbag57
(g73
g59
NtRp5431
(dp5432
g62
(dp5433
sg71
g5414
sg64
(lp5434
g57
(g78
g59
NtRp5435
(dp5436
g62
(dp5437
sg71
g5431
sg64
(lp5438
g57
(g58
g59
NtRp5439
(dp5440
g62
(dp5441
g70
I1
ssg71
g5435
sg64
(lp5442
I00
asbasbasbag57
(g73
g59
NtRp5443
(dp5444
g62
(dp5445
sg71
g5414
sg64
(lp5446
g57
(g78
g59
NtRp5447
(dp5448
g62
(dp5449
sg71
g5443
sg64
(lp5450
g57
(g58
g59
NtRp5451
(dp5452
g62
(dp5453
g70
I1
ssg71
g5447
sg64
(lp5454
S'http://www.web2py.com'
p5455
asbasbasbag57
(g73
g59
NtRp5456
(dp5457
g62
(dp5458
sg71
g5414
sg64
(lp5459
g57
(g78
g59
NtRp5460
(dp5461
g62
(dp5462
sg71
g5456
sg64
(lp5463
g57
(g58
g59
NtRp5464
(dp5465
g62
(dp5466
g70
I1
ssg71
g5460
sg64
(lp5467
(lp5468
(g4725
(S's\x08\x00\x00\x00Download'
tRp5469
I00
S'http://www.web2py.com/examples/default/download'
p5470
tp5471
a(g4725
(S's\x07\x00\x00\x00Support'
tRp5472
I00
S'http://www.web2py.com/examples/default/support'
p5473
tp5474
a(g4725
(S's\x04\x00\x00\x00Demo'
tRp5475
I00
S'http://web2py.com/demo_admin'
p5476
tp5477
a(g4725
(S's\x0e\x00\x00\x00Quick Examples'
tRp5478
I00
S'http://web2py.com/examples/default/examples'
p5479
tp5480
a(g4725
(S's\x03\x00\x00\x00FAQ'
tRp5481
I00
S'http://web2py.com/AlterEgo'
p5482
tp5483
a(g4725
(S's\x06\x00\x00\x00Videos'
tRp5484
I00
S'http://www.web2py.com/examples/default/videos/'
p5485
tp5486
a(g4725
(S's\x11\x00\x00\x00Free Applications'
tRp5487
I00
S'http://web2py.com/appliances'
p5488
tp5489
a(g4725
(S's\x07\x00\x00\x00Plugins'
tRp5490
I00
S'http://web2py.com/plugins'
p5491
tp5492
a(g4725
(S's\x07\x00\x00\x00Layouts'
tRp5493
I00
S'http://web2py.com/layouts'
p5494
tp5495
a(g4725
(S's\x07\x00\x00\x00Recipes'
tRp5496
I00
S'http://web2pyslices.com/'
p5497
tp5498
a(g4725
(S's\x08\x00\x00\x00Semantic'
tRp5499
I00
S'http://web2py.com/semantic'
p5500
tp5501
aasbasbasbasbasbasbasbag57
(g73
g59
NtRp5502
(dp5503
g62
(dp5504
sg71
g5259
sg64
(lp5505
g57
(g78
g59
NtRp5506
(dp5507
g62
(dp5508
sg71
g5502
sg64
(lp5509
g57
(g58
g59
NtRp5510
(dp5511
g62
(dp5512
g70
I2
ssg71
g5506
sg64
(lp5513
g57
(g66
g59
NtRp5514
(dp5515
g62
(dp5516
g70
I1
ssg71
Nsg64
(lp5517
g57
(g73
g59
NtRp5518
(dp5519
g62
(dp5520
sg71
g5514
sg64
(lp5521
g57
(g78
g59
NtRp5522
(dp5523
g62
(dp5524
sg71
g5518
sg64
(lp5525
g57
(g58
g59
NtRp5526
(dp5527
g62
(dp5528
g70
I1
ssg71
g5522
sg64
(lp5529
g4725
(S's\x0e\x00\x00\x00Documentaci\xc3\xb3n'
tRp5530
asbasbasbag57
(g73
g59
NtRp5531
(dp5532
g62
(dp5533
sg71
g5514
sg64
(lp5534
g57
(g78
g59
NtRp5535
(dp5536
g62
(dp5537
sg71
g5531
sg64
(lp5538
g57
(g58
g59
NtRp5539
(dp5540
g62
(dp5541
g70
I1
ssg71
g5535
sg64
(lp5542
I00
asbasbasbag57
(g73
g59
NtRp5543
(dp5544
g62
(dp5545
sg71
g5514
sg64
(lp5546
g57
(g78
g59
NtRp5547
(dp5548
g62
(dp5549
sg71
g5543
sg64
(lp5550
g57
(g58
g59
NtRp5551
(dp5552
g62
(dp5553
g70
I1
ssg71
g5547
sg64
(lp5554
S'http://www.web2py.com/book'
p5555
asbasbasbag57
(g73
g59
NtRp5556
(dp5557
g62
(dp5558
sg71
g5514
sg64
(lp5559
g57
(g78
g59
NtRp5560
(dp5561
g62
(dp5562
sg71
g5556
sg64
(lp5563
g57
(g58
g59
NtRp5564
(dp5565
g62
(dp5566
g70
I1
ssg71
g5560
sg64
(lp5567
(lp5568
(g4725
(S's\x07\x00\x00\x00Preface'
tRp5569
I00
S'http://www.web2py.com/book/default/chapter/00'
p5570
tp5571
a(g4725
(S's\x0c\x00\x00\x00Introduction'
tRp5572
I00
S'http://www.web2py.com/book/default/chapter/01'
p5573
tp5574
a(g4725
(S's\x06\x00\x00\x00Python'
tRp5575
I00
S'http://www.web2py.com/book/default/chapter/02'
p5576
tp5577
a(g4725
(S's\x08\x00\x00\x00Overview'
tRp5578
I00
S'http://www.web2py.com/book/default/chapter/03'
p5579
tp5580
a(g4725
(S's\x08\x00\x00\x00The Core'
tRp5581
I00
S'http://www.web2py.com/book/default/chapter/04'
p5582
tp5583
a(g4725
(S's\t\x00\x00\x00The Views'
tRp5584
I00
S'http://www.web2py.com/book/default/chapter/05'
p5585
tp5586
a(g4725
(S's\r\x00\x00\x00base de datos'
tRp5587
I00
S'http://www.web2py.com/book/default/chapter/06'
p5588
tp5589
a(g4725
(S's\x14\x00\x00\x00Forms and Validators'
tRp5590
I00
S'http://www.web2py.com/book/default/chapter/07'
p5591
tp5592
a(g4725
(S's\r\x00\x00\x00Email and SMS'
tRp5593
I00
S'http://www.web2py.com/book/default/chapter/08'
p5594
tp5595
a(g4725
(S's\x0e\x00\x00\x00Access Control'
tRp5596
I00
S'http://www.web2py.com/book/default/chapter/09'
p5597
tp5598
a(g4725
(S's\x08\x00\x00\x00Services'
tRp5599
I00
S'http://www.web2py.com/book/default/chapter/10'
p5600
tp5601
a(g4725
(S's\x0c\x00\x00\x00Ajax Recipes'
tRp5602
I00
S'http://www.web2py.com/book/default/chapter/11'
p5603
tp5604
a(g4725
(S's\x16\x00\x00\x00Components and Plugins'
tRp5605
I00
S'http://www.web2py.com/book/default/chapter/12'
p5606
tp5607
a(g4725
(S's\x12\x00\x00\x00Deployment Recipes'
tRp5608
I00
S'http://www.web2py.com/book/default/chapter/13'
p5609
tp5610
a(g4725
(S's\r\x00\x00\x00Other Recipes'
tRp5611
I00
S'http://www.web2py.com/book/default/chapter/14'
p5612
tp5613
a(g4725
(S's\r\x00\x00\x00Buy this book'
tRp5614
I00
S'http://stores.lulu.com/web2py'
p5615
tp5616
aasbasbasbasbasbasbasbag57
(g73
g59
NtRp5617
(dp5618
g62
(dp5619
sg71
g5259
sg64
(lp5620
g57
(g78
g59
NtRp5621
(dp5622
g62
(dp5623
sg71
g5617
sg64
(lp5624
g57
(g58
g59
NtRp5625
(dp5626
g62
(dp5627
g70
I2
ssg71
g5621
sg64
(lp5628
g57
(g66
g59
NtRp5629
(dp5630
g62
(dp5631
g70
I1
ssg71
Nsg64
(lp5632
g57
(g73
g59
NtRp5633
(dp5634
g62
(dp5635
sg71
g5629
sg64
(lp5636
g57
(g78
g59
NtRp5637
(dp5638
g62
(dp5639
sg71
g5633
sg64
(lp5640
g57
(g58
g59
NtRp5641
(dp5642
g62
(dp5643
g70
I1
ssg71
g5637
sg64
(lp5644
g4725
(S's\t\x00\x00\x00Community'
tRp5645
asbasbasbag57
(g73
g59
NtRp5646
(dp5647
g62
(dp5648
sg71
g5629
sg64
(lp5649
g57
(g78
g59
NtRp5650
(dp5651
g62
(dp5652
sg71
g5646
sg64
(lp5653
g57
(g58
g59
NtRp5654
(dp5655
g62
(dp5656
g70
I1
ssg71
g5650
sg64
(lp5657
I00
asbasbasbag57
(g73
g59
NtRp5658
(dp5659
g62
(dp5660
sg71
g5629
sg64
(lp5661
g57
(g78
g59
NtRp5662
(dp5663
g62
(dp5664
sg71
g5658
sg64
(lp5665
g57
(g58
g59
NtRp5666
(dp5667
g62
(dp5668
g70
I1
ssg71
g5662
sg64
(lp5669
Nasbasbasbag57
(g73
g59
NtRp5670
(dp5671
g62
(dp5672
sg71
g5629
sg64
(lp5673
g57
(g78
g59
NtRp5674
(dp5675
g62
(dp5676
sg71
g5670
sg64
(lp5677
g57
(g58
g59
NtRp5678
(dp5679
g62
(dp5680
g70
I1
ssg71
g5674
sg64
(lp5681
(lp5682
(g4725
(S's\x06\x00\x00\x00Groups'
tRp5683
I00
S'http://www.web2py.com/examples/default/usergroups'
p5684
tp5685
a(g4725
(S's\x07\x00\x00\x00Twitter'
tRp5686
I00
S'http://twitter.com/web2py'
p5687
tp5688
a(g4725
(S's\t\x00\x00\x00Live Chat'
tRp5689
I00
S'http://webchat.freenode.net/?channels=web2py'
p5690
tp5691
aasbasbasbasbasbasbasbag57
(g73
g59
NtRp5692
(dp5693
g62
(dp5694
sg71
g5259
sg64
(lp5695
g57
(g78
g59
NtRp5696
(dp5697
g62
(dp5698
sg71
g5692
sg64
(lp5699
g57
(g58
g59
NtRp5700
(dp5701
g62
(dp5702
g70
I2
ssg71
g5696
sg64
(lp5703
g57
(g66
g59
NtRp5704
(dp5705
g62
(dp5706
g70
I1
ssg71
Nsg64
(lp5707
g57
(g73
g59
NtRp5708
(dp5709
g62
(dp5710
sg71
g5704
sg64
(lp5711
g57
(g78
g59
NtRp5712
(dp5713
g62
(dp5714
sg71
g5708
sg64
(lp5715
g57
(g58
g59
NtRp5716
(dp5717
g62
(dp5718
g70
I1
ssg71
g5712
sg64
(lp5719
g4725
(S's\x07\x00\x00\x00Plugins'
tRp5720
asbasbasbag57
(g73
g59
NtRp5721
(dp5722
g62
(dp5723
sg71
g5704
sg64
(lp5724
g57
(g78
g59
NtRp5725
(dp5726
g62
(dp5727
sg71
g5721
sg64
(lp5728
g57
(g58
g59
NtRp5729
(dp5730
g62
(dp5731
g70
I1
ssg71
g5725
sg64
(lp5732
I00
asbasbasbag57
(g73
g59
NtRp5733
(dp5734
g62
(dp5735
sg71
g5704
sg64
(lp5736
g57
(g78
g59
NtRp5737
(dp5738
g62
(dp5739
sg71
g5733
sg64
(lp5740
g57
(g58
g59
NtRp5741
(dp5742
g62
(dp5743
g70
I1
ssg71
g5737
sg64
(lp5744
Nasbasbasbag57
(g73
g59
NtRp5745
(dp5746
g62
(dp5747
sg71
g5704
sg64
(lp5748
g57
(g78
g59
NtRp5749
(dp5750
g62
(dp5751
sg71
g5745
sg64
(lp5752
g57
(g58
g59
NtRp5753
(dp5754
g62
(dp5755
g70
I1
ssg71
g5749
sg64
(lp5756
(lp5757
(S'plugin_wiki'
p5758
I00
S'http://web2py.com/examples/default/download'
p5759
tp5760
a(g4725
(S's\r\x00\x00\x00Other Plugins'
tRp5761
I00
g5491
tp5762
a(g4725
(S's\x0e\x00\x00\x00Layout Plugins'
tRp5763
I00
g5494
tp5764
aasbasbasbasbasbasbasbasbasbasbasbasbasbasbasbasbasbasbasbag57
(g73
g59
NtRp5765
(dp5766
g62
(dp5767
sg71
g4147
sg64
(lp5768
g57
(g78
g59
NtRp5769
(dp5770
g62
(dp5771
g82
g83
ssg71
g5765
sg64
(lp5772
S'meta'
p5773
asbag57
(g78
g59
NtRp5774
(dp5775
g62
(dp5776
g89
g90
ssg71
g5765
sg64
(lp5777
S':'
asbag57
(g78
g59
NtRp5778
(dp5779
g62
(dp5780
sg71
g5765
sg64
(lp5781
g57
(g58
g59
NtRp5782
(dp5783
g62
(dp5784
g70
I5
ssg71
g5778
sg64
(lp5785
g57
(g66
g59
NtRp5786
(dp5787
g62
(dp5788
g70
I4
ssg71
Nsg64
(lp5789
g57
(g73
g59
NtRp5790
(dp5791
g62
(dp5792
sg71
g5786
sg64
(lp5793
g57
(g78
g59
NtRp5794
(dp5795
g62
(dp5796
g82
g83
ssg71
g5790
sg64
(lp5797
S'author'
p5798
asbag57
(g78
g59
NtRp5799
(dp5800
g62
(dp5801
g89
g90
ssg71
g5790
sg64
(lp5802
S':'
asbag57
(g78
g59
NtRp5803
(dp5804
g62
(dp5805
sg71
g5790
sg64
(lp5806
g57
(g58
g59
NtRp5807
(dp5808
g62
(dp5809
g70
I4
ssg71
g5803
sg64
(lp5810
S'Your Name <you@example.com>'
p5811
asbasbasbag57
(g73
g59
NtRp5812
(dp5813
g62
(dp5814
sg71
g5786
sg64
(lp5815
g57
(g78
g59
NtRp5816
(dp5817
g62
(dp5818
g82
g83
ssg71
g5812
sg64
(lp5819
S'description'
p5820
asbag57
(g78
g59
NtRp5821
(dp5822
g62
(dp5823
g89
g90
ssg71
g5812
sg64
(lp5824
S':'
asbag57
(g78
g59
NtRp5825
(dp5826
g62
(dp5827
sg71
g5812
sg64
(lp5828
g57
(g58
g59
NtRp5829
(dp5830
g62
(dp5831
g70
I4
ssg71
g5825
sg64
(lp5832
S'a cool new app'
p5833
asbasbasbag57
(g73
g59
NtRp5834
(dp5835
g62
(dp5836
sg71
g5786
sg64
(lp5837
g57
(g78
g59
NtRp5838
(dp5839
g62
(dp5840
g82
g83
ssg71
g5834
sg64
(lp5841
S'generator'
p5842
asbag57
(g78
g59
NtRp5843
(dp5844
g62
(dp5845
g89
g90
ssg71
g5834
sg64
(lp5846
S':'
asbag57
(g78
g59
NtRp5847
(dp5848
g62
(dp5849
sg71
g5834
sg64
(lp5850
g57
(g58
g59
NtRp5851
(dp5852
g62
(dp5853
g70
I4
ssg71
g5847
sg64
(lp5854
S'Web2py Web Framework'
p5855
asbasbasbag57
(g73
g59
NtRp5856
(dp5857
g62
(dp5858
sg71
g5786
sg64
(lp5859
g57
(g78
g59
NtRp5860
(dp5861
g62
(dp5862
g82
g83
ssg71
g5856
sg64
(lp5863
S'keywords'
p5864
asbag57
(g78
g59
NtRp5865
(dp5866
g62
(dp5867
g89
g90
ssg71
g5856
sg64
(lp5868
S':'
asbag57
(g78
g59
NtRp5869
(dp5870
g62
(dp5871
sg71
g5856
sg64
(lp5872
g57
(g58
g59
NtRp5873
(dp5874
g62
(dp5875
g70
I4
ssg71
g5869
sg64
(lp5876
S'web2py, python, framework'
p5877
asbasbasbasbasbasbasbag57
(g73
g59
NtRp5878
(dp5879
g62
(dp5880
sg71
g4147
sg64
(lp5881
g57
(g78
g59
NtRp5882
(dp5883
g62
(dp5884
g82
g83
ssg71
g5878
sg64
(lp5885
S'postprocessing'
p5886
asbag57
(g78
g59
NtRp5887
(dp5888
g62
(dp5889
g89
g90
ssg71
g5878
sg64
(lp5890
S':'
asbag57
(g78
g59
NtRp5891
(dp5892
g62
(dp5893
sg71
g5878
sg64
(lp5894
g57
(g58
g59
NtRp5895
(dp5896
g62
(dp5897
g70
I5
ssg71
g5891
sg64
(lp5898
g57
(g66
g59
NtRp5899
(dp5900
g62
(dp5901
g70
I4
ssg71
Nsg64
(lp5902
sbasbasbasbag57
(g73
g59
NtRp5903
(dp5904
g62
(dp5905
sg71
g4147
sg64
(lp5906
g57
(g78
g59
NtRp5907
(dp5908
g62
(dp5909
g82
g83
ssg71
g5903
sg64
(lp5910
S'session_file'
p5911
asbag57
(g78
g59
NtRp5912
(dp5913
g62
(dp5914
g89
g90
ssg71
g5903
sg64
(lp5915
S':'
asbag57
(g78
g59
NtRp5916
(dp5917
g62
(dp5918
sg71
g5903
sg64
(lp5919
g57
(g58
g59
NtRp5920
(dp5921
g62
(dp5922
g70
I5
ssg71
g5916
sg64
(lp5923
S"<open file '/home/emp2web/webcast/web2py/applications/proyectos/sessions/127.0.0.1-be82b3d9-4d64-4bfc-8d3a-c456e8044ba2', mode 'rb+' at 0xb495ec80>"
p5924
asbasbasbag57
(g73
g59
NtRp5925
(dp5926
g62
(dp5927
sg71
g4147
sg64
(lp5928
g57
(g78
g59
NtRp5929
(dp5930
g62
(dp5931
g82
g83
ssg71
g5925
sg64
(lp5932
S'session_filename'
p5933
asbag57
(g78
g59
NtRp5934
(dp5935
g62
(dp5936
g89
g90
ssg71
g5925
sg64
(lp5937
S':'
asbag57
(g78
g59
NtRp5938
(dp5939
g62
(dp5940
sg71
g5925
sg64
(lp5941
g57
(g58
g59
NtRp5942
(dp5943
g62
(dp5944
g70
I5
ssg71
g5938
sg64
(lp5945
S'/home/emp2web/webcast/web2py/applications/proyectos/sessions/127.0.0.1-be82b3d9-4d64-4bfc-8d3a-c456e8044ba2'
p5946
asbasbasbag57
(g73
g59
NtRp5947
(dp5948
g62
(dp5949
sg71
g4147
sg64
(lp5950
g57
(g78
g59
NtRp5951
(dp5952
g62
(dp5953
g82
g83
ssg71
g5947
sg64
(lp5954
S'session_id'
p5955
asbag57
(g78
g59
NtRp5956
(dp5957
g62
(dp5958
g89
g90
ssg71
g5947
sg64
(lp5959
S':'
asbag57
(g78
g59
NtRp5960
(dp5961
g62
(dp5962
sg71
g5947
sg64
(lp5963
g57
(g58
g59
NtRp5964
(dp5965
g62
(dp5966
g70
I5
ssg71
g5960
sg64
(lp5967
g699
asbasbasbag57
(g73
g59
NtRp5968
(dp5969
g62
(dp5970
sg71
g4147
sg64
(lp5971
g57
(g78
g59
NtRp5972
(dp5973
g62
(dp5974
g82
g83
ssg71
g5968
sg64
(lp5975
S'session_id_name'
p5976
asbag57
(g78
g59
NtRp5977
(dp5978
g62
(dp5979
g89
g90
ssg71
g5968
sg64
(lp5980
S':'
asbag57
(g78
g59
NtRp5981
(dp5982
g62
(dp5983
sg71
g5968
sg64
(lp5984
g57
(g58
g59
NtRp5985
(dp5986
g62
(dp5987
g70
I5
ssg71
g5981
sg64
(lp5988
g4204
asbasbasbag57
(g73
g59
NtRp5989
(dp5990
g62
(dp5991
sg71
g4147
sg64
(lp5992
g57
(g78
g59
NtRp5993
(dp5994
g62
(dp5995
g82
g83
ssg71
g5989
sg64
(lp5996
S'session_locked'
p5997
asbag57
(g78
g59
NtRp5998
(dp5999
g62
(dp6000
g89
g90
ssg71
g5989
sg64
(lp6001
S':'
asbag57
(g78
g59
NtRp6002
(dp6003
g62
(dp6004
sg71
g5989
sg64
(lp6005
g57
(g58
g59
NtRp6006
(dp6007
g62
(dp6008
g70
I5
ssg71
g6002
sg64
(lp6009
g2134
asbasbasbag57
(g73
g59
NtRp6010
(dp6011
g62
(dp6012
sg71
g4147
sg64
(lp6013
g57
(g78
g59
NtRp6014
(dp6015
g62
(dp6016
g82
g83
ssg71
g6010
sg64
(lp6017
S'session_new'
p6018
asbag57
(g78
g59
NtRp6019
(dp6020
g62
(dp6021
g89
g90
ssg71
g6010
sg64
(lp6022
S':'
asbag57
(g78
g59
NtRp6023
(dp6024
g62
(dp6025
sg71
g6010
sg64
(lp6026
g57
(g58
g59
NtRp6027
(dp6028
g62
(dp6029
g70
I5
ssg71
g6023
sg64
(lp6030
g100
asbasbasbag57
(g73
g59
NtRp6031
(dp6032
g62
(dp6033
sg71
g4147
sg64
(lp6034
g57
(g78
g59
NtRp6035
(dp6036
g62
(dp6037
g82
g83
ssg71
g6031
sg64
(lp6038
S'status'
p6039
asbag57
(g78
g59
NtRp6040
(dp6041
g62
(dp6042
g89
g90
ssg71
g6031
sg64
(lp6043
S':'
asbag57
(g78
g59
NtRp6044
(dp6045
g62
(dp6046
sg71
g6031
sg64
(lp6047
g57
(g58
g59
NtRp6048
(dp6049
g62
(dp6050
g70
I5
ssg71
g6044
sg64
(lp6051
S'200'
p6052
asbasbasbag57
(g73
g59
NtRp6053
(dp6054
g62
(dp6055
sg71
g4147
sg64
(lp6056
g57
(g78
g59
NtRp6057
(dp6058
g62
(dp6059
g82
g83
ssg71
g6053
sg64
(lp6060
S'subtitle'
p6061
asbag57
(g78
g59
NtRp6062
(dp6063
g62
(dp6064
g89
g90
ssg71
g6053
sg64
(lp6065
S':'
asbag57
(g78
g59
NtRp6066
(dp6067
g62
(dp6068
sg71
g6053
sg64
(lp6069
g57
(g58
g59
NtRp6070
(dp6071
g62
(dp6072
g70
I5
ssg71
g6066
sg64
(lp6073
g4725
(S's\t\x00\x00\x00Adaptame!'
tRp6074
asbasbasbag57
(g73
g59
NtRp6075
(dp6076
g62
(dp6077
sg71
g4147
sg64
(lp6078
g57
(g78
g59
NtRp6079
(dp6080
g62
(dp6081
g82
g83
ssg71
g6075
sg64
(lp6082
S'title'
p6083
asbag57
(g78
g59
NtRp6084
(dp6085
g62
(dp6086
g89
g90
ssg71
g6075
sg64
(lp6087
S':'
asbag57
(g78
g59
NtRp6088
(dp6089
g62
(dp6090
sg71
g6075
sg64
(lp6091
g57
(g58
g59
NtRp6092
(dp6093
g62
(dp6094
g70
I5
ssg71
g6088
sg64
(lp6095
S'Proyectos'
p6096
asbasbasbag57
(g73
g59
NtRp6097
(dp6098
g62
(dp6099
sg71
g4147
sg64
(lp6100
g57
(g78
g59
NtRp6101
(dp6102
g62
(dp6103
g82
g83
ssg71
g6097
sg64
(lp6104
S'view'
p6105
asbag57
(g78
g59
NtRp6106
(dp6107
g62
(dp6108
g89
g90
ssg71
g6097
sg64
(lp6109
S':'
asbag57
(g78
g59
NtRp6110
(dp6111
g62
(dp6112
sg71
g6097
sg64
(lp6113
g57
(g58
g59
NtRp6114
(dp6115
g62
(dp6116
g70
I5
ssg71
g6110
sg64
(lp6117
S'configuracion/proyectos.html'
p6118
asbasbasbasbasbsS'locals'
p6119
(dp6120
S'self'
p6121
S'<Table clientes (id,nombres,apellidos,empresa,telefono,email,observacion,foto)>'
p6122
sS'key'
p6123
S"'onservacion'"
p6124
sssS'traceback'
p6125
S'Traceback (most recent call last):\n  File "/home/emp2web/webcast/web2py/gluon/restricted.py", line 209, in restricted\n    exec ccode in environment\n  File "/home/emp2web/webcast/web2py/applications/proyectos/controllers/configuracion.py", line 26, in <module>\n  File "/home/emp2web/webcast/web2py/gluon/globals.py", line 185, in <lambda>\n    self._caller = lambda f: f()\n  File "/home/emp2web/webcast/web2py/applications/proyectos/controllers/configuracion.py", line 23, in proyectos\n    formulario=SQLFORM.smartgrid(db.proyecto)\n  File "/home/emp2web/webcast/web2py/gluon/sqlhtml.py", line 2246, in smartgrid\n    user_signature=user_signature,**kwargs)\n  File "/home/emp2web/webcast/web2py/gluon/sqlhtml.py", line 1744, in grid\n    **sqlformargs)\n  File "/home/emp2web/webcast/web2py/gluon/sqlhtml.py", line 1014, in __init__\n    inp = self.widgets.options.widget(field, default)\n  File "/home/emp2web/webcast/web2py/gluon/sqlhtml.py", line 227, in widget\n    options = requires[0].options()\n  File "/home/emp2web/webcast/web2py/gluon/validators.py", line 479, in options\n    self.build_set()\n  File "/home/emp2web/webcast/web2py/gluon/validators.py", line 459, in build_set\n    fields = [table[k] for k in self.fields]\n  File "/home/emp2web/webcast/web2py/gluon/dal.py", line 7567, in __getitem__\n    return ogetattr(self, str(key))\nAttributeError: \'Table\' object has no attribute \'onservacion\'\n'
p6126
s.