(dp1
S'output'
p2
S"<type 'exceptions.IndentationError'> unexpected indent (db.py, line 92)"
p3
sS'layer'
p4
S'/home/emp2web/ejecutar/web2py/applications/proyecto_webcast/models/db.py'
p5
sS'code'
p6
S'# -*- coding: utf-8 -*-\n\n#########################################################################\n## This scaffolding model makes your app work on Google App Engine too\n## File is released under public domain and you can use without limitations\n#########################################################################\n\n## if SSL/HTTPS is properly configured and you want all HTTP requests to\n## be redirected to HTTPS, uncomment the line below:\n# request.requires_https()\n\nif not request.env.web2py_runtime_gae:\n    ## if NOT running on Google App Engine use SQLite or other DB\n    db = DAL(\'sqlite://storage.sqlite\')\nelse:\n    ## connect to Google BigTable (optional \'google:datastore://namespace\')\n    db = DAL(\'google:datastore\')\n    ## store sessions and tickets there\n    session.connect(request, response, db = db)\n    ## or store session in Memcache, Redis, etc.\n    ## from gluon.contrib.memdb import MEMDB\n    ## from google.appengine.api.memcache import Client\n    ## session.connect(request, response, db = MEMDB(Client()))\n\n## by default give a view/generic.extension to all actions from localhost\n## none otherwise. a pattern can be \'controller/function.extension\'\nresponse.generic_patterns = [\'*\'] if request.is_local else []\n## (optional) optimize handling of static files\n# response.optimize_css = \'concat,minify,inline\'\n# response.optimize_js = \'concat,minify,inline\'\n\n#########################################################################\n## Here is sample code if you need for\n## - email capabilities\n## - authentication (registration, login, logout, ... )\n## - authorization (role based authorization)\n## - services (xml, csv, json, xmlrpc, jsonrpc, amf, rss)\n## - old style crud actions\n## (more options discussed in gluon/tools.py)\n#########################################################################\n\nfrom gluon.tools import Auth, Crud, Service, PluginManager, prettydate\nauth = Auth(db)\ncrud, service, plugins = Crud(db), Service(), PluginManager()\n\n## create all tables needed by auth if not custom tables\nauth.define_tables(username=True, signature=False)\n\n\n## configure email\nmail=auth.settings.mailer\nmail.settings.server = \'logging\' or \'smtp.gmail.com:587\'\nmail.settings.sender = \'you@gmail.com\'\nmail.settings.login = \'username:password\'\n\n## configure auth policy\nauth.settings.registration_requires_verification = False\nauth.settings.registration_requires_approval = False\nauth.settings.reset_password_requires_verification = True\n\n## if you need to use OpenID, Facebook, MySpace, Twitter, Linkedin, etc.\n## register with janrain.com, write your domain:api_key in private/janrain.key\nfrom gluon.contrib.login_methods.rpx_account import use_janrain\nuse_janrain(auth,filename=\'private/janrain.key\')\n\n#########################################################################\n## Define your tables below (or better in another model file) for example\n##\n## >>> db.define_table(\'mytable\',Field(\'myfield\',\'string\'))\n##\n## Fields can be \'string\',\'text\',\'password\',\'integer\',\'double\',\'boolean\'\n##       \'date\',\'time\',\'datetime\',\'blob\',\'upload\', \'reference TABLENAME\'\n## There is an implicit \'id integer autoincrement\' field\n## Consult manual for more options, validators, etc.\n##\n## More API examples for controllers:\n##\n## >>> db.mytable.insert(myfield=\'value\')\n## >>> rows=db(db.mytable.myfield==\'value\').select(db.mytable.ALL)\n## >>> for row in rows: print row.id, row.myfield\n#########################################################################\n\n## after defining tables, uncomment below to enable auditing\n# auth.enable_record_versioning(db)\n\n\n\ndb.define_table("grupos",\n    Field("grupo",requires = IS_NOT_EMPTY(error_message=T(\'El campo grupo es obligatorio\'))),\n    format = \'%(grupo)s\'\n    )\n    db.grupos.grupo.requires = IS_NOT_IN_DB(db, \'grupos.grupo\')\n\ndb.define_table("estados",\n    Field("grupo", db.grupos),\n    Field("estado",requires = IS_NOT_EMPTY(error_message=T(\'El campo estado es obligatorio\'))),\n    format = \'%(estado)s\'\n    )\n    db.estados.estado.requires = IS_NOT_IN_DB(db, \'estados.estado\')\n\ndb.define_table("tipos",\n    Field("grupo", db.grupos),\n    Field("tipo",requires = IS_NOT_EMPTY(error_message=T(\'El campo tipo es obligatorio\'))),\n    format = \'%(tipo)s\'\n    )\n    db.tipos.tipo.requires = IS_NOT_IN_DB(db, \'tipos.tipo\')\n\ndb.define_table("clientes",\n    Field("nombres",requires = IS_NOT_EMPTY(error_message=T(\'El campo nombre es obligatorio\'))),\n    Field("apellidos",requires = IS_NOT_EMPTY(error_message=T(\'El campo apellido es obligatorio\'))),\n    Field("empresa",requires = IS_NOT_EMPTY(error_message=T(\'El campo empresa es obligatorio\'))),\n    Field("telefono"),\n    Field("email",requires = IS_EMAIL(error_message=T(\'Email Invalido !\'))),\n    Field("observacion", "text"),\n    Field("foto", "upload"),\n    format = \'%(apellidos)s %(nombres)s\'\n    )\n\nIS_DATE\nrequires = IS_EMAIL(error_message=T(\'invalid email!\'))\n\ndb.define_table("proyecto",\n    Field("nombre", default=None),\n    Field("cliente", db.clientes),\n    Field("tipo", db.tipos),\n    Field("estado", db.estados),\n    Field("fecha_inicio", "date", notnull=True, default=None),\n    Field("fecha_fin", "date", notnull=True, default=None),\n    Field("valor", "integer", notnull=True, default=None),\n    Field("observacion", "text", default=None),\n    Field("usuario", db.auth_user, default=None))\n\ndb.define_table("tareas",\n    Field("tarea", "text", notnull=True, default=None),\n    Field("proyecto", db.proyecto),\n    Field("estado", db.estados),\n    Field("fecha_inicio", "date", notnull=True, default=None),\n    Field("fecha_fin", "date", notnull=True, default=None))\n\n'
p7
sS'snapshot'
p8
(dp9
S'exception'
p10
(dp11
S'__getslice__'
p12
S"<method-wrapper '__getslice__' of exceptions.IndentationError object>"
p13
sS'text'
p14
S'"    db.grupos.grupo.requires = IS_NOT_IN_DB(db, \'grupos.grupo\')\\n"'
p15
sS'__str__'
p16
S"<method-wrapper '__str__' of exceptions.IndentationError object>"
p17
sS'__reduce__'
p18
S'<built-in method __reduce__ of exceptions.IndentationError object>'
p19
sS'__dict__'
p20
S'{}'
p21
sS'__sizeof__'
p22
S'<built-in method __sizeof__ of exceptions.IndentationError object>'
p23
sS'__init__'
p24
S"<method-wrapper '__init__' of exceptions.IndentationError object>"
p25
sS'__setattr__'
p26
S"<method-wrapper '__setattr__' of exceptions.IndentationError object>"
p27
sS'__reduce_ex__'
p28
S'<built-in method __reduce_ex__ of exceptions.IndentationError object>'
p29
sS'__new__'
p30
S'<built-in method __new__ of type object>'
p31
sS'__format__'
p32
S'<built-in method __format__ of exceptions.IndentationError object>'
p33
sS'__class__'
p34
S"<type 'exceptions.IndentationError'>"
p35
sS'filename'
p36
S"'/home/emp2web/ejecutar/web2py/applications/proyecto_webcast/models/db.py'"
p37
sS'lineno'
p38
S'92'
p39
sS'msg'
p40
S"'unexpected indent'"
p41
sS'__doc__'
p42
S"'Improper indentation.'"
p43
sS'__getitem__'
p44
S"<method-wrapper '__getitem__' of exceptions.IndentationError object>"
p45
sS'__setstate__'
p46
S'<built-in method __setstate__ of exceptions.IndentationError object>'
p47
sS'__getattribute__'
p48
S"<method-wrapper '__getattribute__' of exceptions.IndentationError object>"
p49
sS'print_file_and_line'
p50
S'None'
p51
sS'args'
p52
S'(\'unexpected indent\', (\'/home/emp2web/ejecutar/web2py/applications/proyecto_webcast/models/db.py\', 92, 4, "    db.grupos.grupo.requires = IS_NOT_IN_DB(db, \'grupos.grupo\')\\n"))'
p53
sS'__subclasshook__'
p54
S'<built-in method __subclasshook__ of type object>'
p55
sS'offset'
p56
S'4'
sS'__unicode__'
p57
S'<built-in method __unicode__ of exceptions.IndentationError object>'
p58
sS'__delattr__'
p59
S"<method-wrapper '__delattr__' of exceptions.IndentationError object>"
p60
sS'__repr__'
p61
S"<method-wrapper '__repr__' of exceptions.IndentationError object>"
p62
sS'__hash__'
p63
S"<method-wrapper '__hash__' of exceptions.IndentationError object>"
p64
ssS'evalue'
p65
S'unexpected indent (db.py, line 92)'
p66
sS'request'
p67
ccopy_reg
_reconstructor
p68
(cgluon.html
BEAUTIFY
p69
c__builtin__
object
p70
NtRp71
(dp72
S'attributes'
p73
(dp74
sS'components'
p75
(lp76
g68
(cgluon.html
TABLE
p77
g70
NtRp78
(dp79
g73
(dp80
S'level'
p81
I5
ssS'parent'
p82
Nsg75
(lp83
g68
(cgluon.html
TR
p84
g70
NtRp85
(dp86
g73
(dp87
sg82
g78
sg75
(lp88
g68
(cgluon.html
TD
p89
g70
NtRp90
(dp91
g73
(dp92
S'_style'
p93
S'font-weight:bold;vertical-align:top'
p94
ssg82
g85
sg75
(lp95
S'ajax'
p96
asbag68
(g89
g70
NtRp97
(dp98
g73
(dp99
S'_valign'
p100
S'top'
p101
ssg82
g85
sg75
(lp102
S':'
asbag68
(g89
g70
NtRp103
(dp104
g73
(dp105
sg82
g85
sg75
(lp106
g68
(g69
g70
NtRp107
(dp108
g73
(dp109
g81
I5
ssg82
g103
sg75
(lp110
S'False'
p111
asbasbasbag68
(g84
g70
NtRp112
(dp113
g73
(dp114
sg82
g78
sg75
(lp115
g68
(g89
g70
NtRp116
(dp117
g73
(dp118
g93
g94
ssg82
g112
sg75
(lp119
S'application'
p120
asbag68
(g89
g70
NtRp121
(dp122
g73
(dp123
g100
g101
ssg82
g112
sg75
(lp124
S':'
asbag68
(g89
g70
NtRp125
(dp126
g73
(dp127
sg82
g112
sg75
(lp128
g68
(g69
g70
NtRp129
(dp130
g73
(dp131
g81
I5
ssg82
g125
sg75
(lp132
S'proyecto_webcast'
p133
asbasbasbag68
(g84
g70
NtRp134
(dp135
g73
(dp136
sg82
g78
sg75
(lp137
g68
(g89
g70
NtRp138
(dp139
g73
(dp140
g93
g94
ssg82
g134
sg75
(lp141
g52
asbag68
(g89
g70
NtRp142
(dp143
g73
(dp144
g100
g101
ssg82
g134
sg75
(lp145
S':'
asbag68
(g89
g70
NtRp146
(dp147
g73
(dp148
sg82
g134
sg75
(lp149
g68
(g69
g70
NtRp150
(dp151
g73
(dp152
g81
I5
ssg82
g146
sg75
(lp153
g68
(g77
g70
NtRp154
(dp155
g73
(dp156
g81
I4
ssg82
Nsg75
(lp157
sbasbasbasbag68
(g84
g70
NtRp158
(dp159
g73
(dp160
sg82
g78
sg75
(lp161
g68
(g89
g70
NtRp162
(dp163
g73
(dp164
g93
g94
ssg82
g158
sg75
(lp165
S'body'
p166
asbag68
(g89
g70
NtRp167
(dp168
g73
(dp169
g100
g101
ssg82
g158
sg75
(lp170
S':'
asbag68
(g89
g70
NtRp171
(dp172
g73
(dp173
sg82
g158
sg75
(lp174
g68
(g69
g70
NtRp175
(dp176
g73
(dp177
g81
I5
ssg82
g171
sg75
(lp178
S'<cStringIO.StringO object at 0xae555d40>'
p179
asbasbasbag68
(g84
g70
NtRp180
(dp181
g73
(dp182
sg82
g78
sg75
(lp183
g68
(g89
g70
NtRp184
(dp185
g73
(dp186
g93
g94
ssg82
g180
sg75
(lp187
S'cid'
p188
asbag68
(g89
g70
NtRp189
(dp190
g73
(dp191
g100
g101
ssg82
g180
sg75
(lp192
S':'
asbag68
(g89
g70
NtRp193
(dp194
g73
(dp195
sg82
g180
sg75
(lp196
g68
(g69
g70
NtRp197
(dp198
g73
(dp199
g81
I5
ssg82
g193
sg75
(lp200
S'None'
p201
asbasbasbag68
(g84
g70
NtRp202
(dp203
g73
(dp204
sg82
g78
sg75
(lp205
g68
(g89
g70
NtRp206
(dp207
g73
(dp208
g93
g94
ssg82
g202
sg75
(lp209
S'client'
p210
asbag68
(g89
g70
NtRp211
(dp212
g73
(dp213
g100
g101
ssg82
g202
sg75
(lp214
S':'
asbag68
(g89
g70
NtRp215
(dp216
g73
(dp217
sg82
g202
sg75
(lp218
g68
(g69
g70
NtRp219
(dp220
g73
(dp221
g81
I5
ssg82
g215
sg75
(lp222
S'127.0.0.1'
p223
asbasbasbag68
(g84
g70
NtRp224
(dp225
g73
(dp226
sg82
g78
sg75
(lp227
g68
(g89
g70
NtRp228
(dp229
g73
(dp230
g93
g94
ssg82
g224
sg75
(lp231
S'controller'
p232
asbag68
(g89
g70
NtRp233
(dp234
g73
(dp235
g100
g101
ssg82
g224
sg75
(lp236
S':'
asbag68
(g89
g70
NtRp237
(dp238
g73
(dp239
sg82
g224
sg75
(lp240
g68
(g69
g70
NtRp241
(dp242
g73
(dp243
g81
I5
ssg82
g237
sg75
(lp244
S'default'
p245
asbasbasbag68
(g84
g70
NtRp246
(dp247
g73
(dp248
sg82
g78
sg75
(lp249
g68
(g89
g70
NtRp250
(dp251
g73
(dp252
g93
g94
ssg82
g246
sg75
(lp253
S'cookies'
p254
asbag68
(g89
g70
NtRp255
(dp256
g73
(dp257
g100
g101
ssg82
g246
sg75
(lp258
S':'
asbag68
(g89
g70
NtRp259
(dp260
g73
(dp261
sg82
g246
sg75
(lp262
g68
(g69
g70
NtRp263
(dp264
g73
(dp265
g81
I5
ssg82
g259
sg75
(lp266
g68
(g77
g70
NtRp267
(dp268
g73
(dp269
g81
I4
ssg82
Nsg75
(lp270
g68
(g84
g70
NtRp271
(dp272
g73
(dp273
sg82
g267
sg75
(lp274
g68
(g89
g70
NtRp275
(dp276
g73
(dp277
g93
g94
ssg82
g271
sg75
(lp278
S'CP.mode'
p279
asbag68
(g89
g70
NtRp280
(dp281
g73
(dp282
g100
g101
ssg82
g271
sg75
(lp283
S':'
asbag68
(g89
g70
NtRp284
(dp285
g73
(dp286
sg82
g271
sg75
(lp287
g68
(g69
g70
NtRp288
(dp289
g73
(dp290
g81
I4
ssg82
g284
sg75
(lp291
S'B'
ag68
(g77
g70
NtRp292
(dp293
g73
(dp294
g81
I3
ssg82
Nsg75
(lp295
g68
(g84
g70
NtRp296
(dp297
g73
(dp298
sg82
g292
sg75
(lp299
g68
(g89
g70
NtRp300
(dp301
g73
(dp302
g93
g94
ssg82
g296
sg75
(lp303
S'comment'
p304
asbag68
(g89
g70
NtRp305
(dp306
g73
(dp307
g100
g101
ssg82
g296
sg75
(lp308
S':'
asbag68
(g89
g70
NtRp309
(dp310
g73
(dp311
sg82
g296
sg75
(lp312
g68
(g69
g70
NtRp313
(dp314
g73
(dp315
g81
I3
ssg82
g309
sg75
(lp316
S''
asbasbasbag68
(g84
g70
NtRp317
(dp318
g73
(dp319
sg82
g292
sg75
(lp320
g68
(g89
g70
NtRp321
(dp322
g73
(dp323
g93
g94
ssg82
g317
sg75
(lp324
S'domain'
p325
asbag68
(g89
g70
NtRp326
(dp327
g73
(dp328
g100
g101
ssg82
g317
sg75
(lp329
S':'
asbag68
(g89
g70
NtRp330
(dp331
g73
(dp332
sg82
g317
sg75
(lp333
g68
(g69
g70
NtRp334
(dp335
g73
(dp336
g81
I3
ssg82
g330
sg75
(lp337
S''
asbasbasbag68
(g84
g70
NtRp338
(dp339
g73
(dp340
sg82
g292
sg75
(lp341
g68
(g89
g70
NtRp342
(dp343
g73
(dp344
g93
g94
ssg82
g338
sg75
(lp345
S'expires'
p346
asbag68
(g89
g70
NtRp347
(dp348
g73
(dp349
g100
g101
ssg82
g338
sg75
(lp350
S':'
asbag68
(g89
g70
NtRp351
(dp352
g73
(dp353
sg82
g338
sg75
(lp354
g68
(g69
g70
NtRp355
(dp356
g73
(dp357
g81
I3
ssg82
g351
sg75
(lp358
S''
asbasbasbag68
(g84
g70
NtRp359
(dp360
g73
(dp361
sg82
g292
sg75
(lp362
g68
(g89
g70
NtRp363
(dp364
g73
(dp365
g93
g94
ssg82
g359
sg75
(lp366
S'httponly'
p367
asbag68
(g89
g70
NtRp368
(dp369
g73
(dp370
g100
g101
ssg82
g359
sg75
(lp371
S':'
asbag68
(g89
g70
NtRp372
(dp373
g73
(dp374
sg82
g359
sg75
(lp375
g68
(g69
g70
NtRp376
(dp377
g73
(dp378
g81
I3
ssg82
g372
sg75
(lp379
S''
asbasbasbag68
(g84
g70
NtRp380
(dp381
g73
(dp382
sg82
g292
sg75
(lp383
g68
(g89
g70
NtRp384
(dp385
g73
(dp386
g93
g94
ssg82
g380
sg75
(lp387
S'max-age'
p388
asbag68
(g89
g70
NtRp389
(dp390
g73
(dp391
g100
g101
ssg82
g380
sg75
(lp392
S':'
asbag68
(g89
g70
NtRp393
(dp394
g73
(dp395
sg82
g380
sg75
(lp396
g68
(g69
g70
NtRp397
(dp398
g73
(dp399
g81
I3
ssg82
g393
sg75
(lp400
S''
asbasbasbag68
(g84
g70
NtRp401
(dp402
g73
(dp403
sg82
g292
sg75
(lp404
g68
(g89
g70
NtRp405
(dp406
g73
(dp407
g93
g94
ssg82
g401
sg75
(lp408
S'path'
p409
asbag68
(g89
g70
NtRp410
(dp411
g73
(dp412
g100
g101
ssg82
g401
sg75
(lp413
S':'
asbag68
(g89
g70
NtRp414
(dp415
g73
(dp416
sg82
g401
sg75
(lp417
g68
(g69
g70
NtRp418
(dp419
g73
(dp420
g81
I3
ssg82
g414
sg75
(lp421
S''
asbasbasbag68
(g84
g70
NtRp422
(dp423
g73
(dp424
sg82
g292
sg75
(lp425
g68
(g89
g70
NtRp426
(dp427
g73
(dp428
g93
g94
ssg82
g422
sg75
(lp429
S'secure'
p430
asbag68
(g89
g70
NtRp431
(dp432
g73
(dp433
g100
g101
ssg82
g422
sg75
(lp434
S':'
asbag68
(g89
g70
NtRp435
(dp436
g73
(dp437
sg82
g422
sg75
(lp438
g68
(g69
g70
NtRp439
(dp440
g73
(dp441
g81
I3
ssg82
g435
sg75
(lp442
S''
asbasbasbag68
(g84
g70
NtRp443
(dp444
g73
(dp445
sg82
g292
sg75
(lp446
g68
(g89
g70
NtRp447
(dp448
g73
(dp449
g93
g94
ssg82
g443
sg75
(lp450
S'version'
p451
asbag68
(g89
g70
NtRp452
(dp453
g73
(dp454
g100
g101
ssg82
g443
sg75
(lp455
S':'
asbag68
(g89
g70
NtRp456
(dp457
g73
(dp458
sg82
g443
sg75
(lp459
g68
(g69
g70
NtRp460
(dp461
g73
(dp462
g81
I3
ssg82
g456
sg75
(lp463
S''
asbasbasbasbasbasbasbag68
(g84
g70
NtRp464
(dp465
g73
(dp466
sg82
g267
sg75
(lp467
g68
(g89
g70
NtRp468
(dp469
g73
(dp470
g93
g94
ssg82
g464
sg75
(lp471
S'PHPSESSID'
p472
asbag68
(g89
g70
NtRp473
(dp474
g73
(dp475
g100
g101
ssg82
g464
sg75
(lp476
S':'
asbag68
(g89
g70
NtRp477
(dp478
g73
(dp479
sg82
g464
sg75
(lp480
g68
(g69
g70
NtRp481
(dp482
g73
(dp483
g81
I4
ssg82
g477
sg75
(lp484
S's5drhn7fvaqkm891pj8ls1frb6'
p485
ag68
(g77
g70
NtRp486
(dp487
g73
(dp488
g81
I3
ssg82
Nsg75
(lp489
g68
(g84
g70
NtRp490
(dp491
g73
(dp492
sg82
g486
sg75
(lp493
g68
(g89
g70
NtRp494
(dp495
g73
(dp496
g93
g94
ssg82
g490
sg75
(lp497
g304
asbag68
(g89
g70
NtRp498
(dp499
g73
(dp500
g100
g101
ssg82
g490
sg75
(lp501
S':'
asbag68
(g89
g70
NtRp502
(dp503
g73
(dp504
sg82
g490
sg75
(lp505
g68
(g69
g70
NtRp506
(dp507
g73
(dp508
g81
I3
ssg82
g502
sg75
(lp509
S''
asbasbasbag68
(g84
g70
NtRp510
(dp511
g73
(dp512
sg82
g486
sg75
(lp513
g68
(g89
g70
NtRp514
(dp515
g73
(dp516
g93
g94
ssg82
g510
sg75
(lp517
g325
asbag68
(g89
g70
NtRp518
(dp519
g73
(dp520
g100
g101
ssg82
g510
sg75
(lp521
S':'
asbag68
(g89
g70
NtRp522
(dp523
g73
(dp524
sg82
g510
sg75
(lp525
g68
(g69
g70
NtRp526
(dp527
g73
(dp528
g81
I3
ssg82
g522
sg75
(lp529
S''
asbasbasbag68
(g84
g70
NtRp530
(dp531
g73
(dp532
sg82
g486
sg75
(lp533
g68
(g89
g70
NtRp534
(dp535
g73
(dp536
g93
g94
ssg82
g530
sg75
(lp537
g346
asbag68
(g89
g70
NtRp538
(dp539
g73
(dp540
g100
g101
ssg82
g530
sg75
(lp541
S':'
asbag68
(g89
g70
NtRp542
(dp543
g73
(dp544
sg82
g530
sg75
(lp545
g68
(g69
g70
NtRp546
(dp547
g73
(dp548
g81
I3
ssg82
g542
sg75
(lp549
S''
asbasbasbag68
(g84
g70
NtRp550
(dp551
g73
(dp552
sg82
g486
sg75
(lp553
g68
(g89
g70
NtRp554
(dp555
g73
(dp556
g93
g94
ssg82
g550
sg75
(lp557
g367
asbag68
(g89
g70
NtRp558
(dp559
g73
(dp560
g100
g101
ssg82
g550
sg75
(lp561
S':'
asbag68
(g89
g70
NtRp562
(dp563
g73
(dp564
sg82
g550
sg75
(lp565
g68
(g69
g70
NtRp566
(dp567
g73
(dp568
g81
I3
ssg82
g562
sg75
(lp569
S''
asbasbasbag68
(g84
g70
NtRp570
(dp571
g73
(dp572
sg82
g486
sg75
(lp573
g68
(g89
g70
NtRp574
(dp575
g73
(dp576
g93
g94
ssg82
g570
sg75
(lp577
g388
asbag68
(g89
g70
NtRp578
(dp579
g73
(dp580
g100
g101
ssg82
g570
sg75
(lp581
S':'
asbag68
(g89
g70
NtRp582
(dp583
g73
(dp584
sg82
g570
sg75
(lp585
g68
(g69
g70
NtRp586
(dp587
g73
(dp588
g81
I3
ssg82
g582
sg75
(lp589
S''
asbasbasbag68
(g84
g70
NtRp590
(dp591
g73
(dp592
sg82
g486
sg75
(lp593
g68
(g89
g70
NtRp594
(dp595
g73
(dp596
g93
g94
ssg82
g590
sg75
(lp597
g409
asbag68
(g89
g70
NtRp598
(dp599
g73
(dp600
g100
g101
ssg82
g590
sg75
(lp601
S':'
asbag68
(g89
g70
NtRp602
(dp603
g73
(dp604
sg82
g590
sg75
(lp605
g68
(g69
g70
NtRp606
(dp607
g73
(dp608
g81
I3
ssg82
g602
sg75
(lp609
S''
asbasbasbag68
(g84
g70
NtRp610
(dp611
g73
(dp612
sg82
g486
sg75
(lp613
g68
(g89
g70
NtRp614
(dp615
g73
(dp616
g93
g94
ssg82
g610
sg75
(lp617
g430
asbag68
(g89
g70
NtRp618
(dp619
g73
(dp620
g100
g101
ssg82
g610
sg75
(lp621
S':'
asbag68
(g89
g70
NtRp622
(dp623
g73
(dp624
sg82
g610
sg75
(lp625
g68
(g69
g70
NtRp626
(dp627
g73
(dp628
g81
I3
ssg82
g622
sg75
(lp629
S''
asbasbasbag68
(g84
g70
NtRp630
(dp631
g73
(dp632
sg82
g486
sg75
(lp633
g68
(g89
g70
NtRp634
(dp635
g73
(dp636
g93
g94
ssg82
g630
sg75
(lp637
g451
asbag68
(g89
g70
NtRp638
(dp639
g73
(dp640
g100
g101
ssg82
g630
sg75
(lp641
S':'
asbag68
(g89
g70
NtRp642
(dp643
g73
(dp644
sg82
g630
sg75
(lp645
g68
(g69
g70
NtRp646
(dp647
g73
(dp648
g81
I3
ssg82
g642
sg75
(lp649
S''
asbasbasbasbasbasbasbag68
(g84
g70
NtRp650
(dp651
g73
(dp652
sg82
g267
sg75
(lp653
g68
(g89
g70
NtRp654
(dp655
g73
(dp656
g93
g94
ssg82
g650
sg75
(lp657
S'session_id_admin'
p658
asbag68
(g89
g70
NtRp659
(dp660
g73
(dp661
g100
g101
ssg82
g650
sg75
(lp662
S':'
asbag68
(g89
g70
NtRp663
(dp664
g73
(dp665
sg82
g650
sg75
(lp666
g68
(g69
g70
NtRp667
(dp668
g73
(dp669
g81
I4
ssg82
g663
sg75
(lp670
S'127.0.0.1-c56b24a4-31bb-46fd-8649-53a36305f5bf'
p671
ag68
(g77
g70
NtRp672
(dp673
g73
(dp674
g81
I3
ssg82
Nsg75
(lp675
g68
(g84
g70
NtRp676
(dp677
g73
(dp678
sg82
g672
sg75
(lp679
g68
(g89
g70
NtRp680
(dp681
g73
(dp682
g93
g94
ssg82
g676
sg75
(lp683
g304
asbag68
(g89
g70
NtRp684
(dp685
g73
(dp686
g100
g101
ssg82
g676
sg75
(lp687
S':'
asbag68
(g89
g70
NtRp688
(dp689
g73
(dp690
sg82
g676
sg75
(lp691
g68
(g69
g70
NtRp692
(dp693
g73
(dp694
g81
I3
ssg82
g688
sg75
(lp695
S''
asbasbasbag68
(g84
g70
NtRp696
(dp697
g73
(dp698
sg82
g672
sg75
(lp699
g68
(g89
g70
NtRp700
(dp701
g73
(dp702
g93
g94
ssg82
g696
sg75
(lp703
g325
asbag68
(g89
g70
NtRp704
(dp705
g73
(dp706
g100
g101
ssg82
g696
sg75
(lp707
S':'
asbag68
(g89
g70
NtRp708
(dp709
g73
(dp710
sg82
g696
sg75
(lp711
g68
(g69
g70
NtRp712
(dp713
g73
(dp714
g81
I3
ssg82
g708
sg75
(lp715
S''
asbasbasbag68
(g84
g70
NtRp716
(dp717
g73
(dp718
sg82
g672
sg75
(lp719
g68
(g89
g70
NtRp720
(dp721
g73
(dp722
g93
g94
ssg82
g716
sg75
(lp723
g346
asbag68
(g89
g70
NtRp724
(dp725
g73
(dp726
g100
g101
ssg82
g716
sg75
(lp727
S':'
asbag68
(g89
g70
NtRp728
(dp729
g73
(dp730
sg82
g716
sg75
(lp731
g68
(g69
g70
NtRp732
(dp733
g73
(dp734
g81
I3
ssg82
g728
sg75
(lp735
S''
asbasbasbag68
(g84
g70
NtRp736
(dp737
g73
(dp738
sg82
g672
sg75
(lp739
g68
(g89
g70
NtRp740
(dp741
g73
(dp742
g93
g94
ssg82
g736
sg75
(lp743
g367
asbag68
(g89
g70
NtRp744
(dp745
g73
(dp746
g100
g101
ssg82
g736
sg75
(lp747
S':'
asbag68
(g89
g70
NtRp748
(dp749
g73
(dp750
sg82
g736
sg75
(lp751
g68
(g69
g70
NtRp752
(dp753
g73
(dp754
g81
I3
ssg82
g748
sg75
(lp755
S''
asbasbasbag68
(g84
g70
NtRp756
(dp757
g73
(dp758
sg82
g672
sg75
(lp759
g68
(g89
g70
NtRp760
(dp761
g73
(dp762
g93
g94
ssg82
g756
sg75
(lp763
g388
asbag68
(g89
g70
NtRp764
(dp765
g73
(dp766
g100
g101
ssg82
g756
sg75
(lp767
S':'
asbag68
(g89
g70
NtRp768
(dp769
g73
(dp770
sg82
g756
sg75
(lp771
g68
(g69
g70
NtRp772
(dp773
g73
(dp774
g81
I3
ssg82
g768
sg75
(lp775
S''
asbasbasbag68
(g84
g70
NtRp776
(dp777
g73
(dp778
sg82
g672
sg75
(lp779
g68
(g89
g70
NtRp780
(dp781
g73
(dp782
g93
g94
ssg82
g776
sg75
(lp783
g409
asbag68
(g89
g70
NtRp784
(dp785
g73
(dp786
g100
g101
ssg82
g776
sg75
(lp787
S':'
asbag68
(g89
g70
NtRp788
(dp789
g73
(dp790
sg82
g776
sg75
(lp791
g68
(g69
g70
NtRp792
(dp793
g73
(dp794
g81
I3
ssg82
g788
sg75
(lp795
S''
asbasbasbag68
(g84
g70
NtRp796
(dp797
g73
(dp798
sg82
g672
sg75
(lp799
g68
(g89
g70
NtRp800
(dp801
g73
(dp802
g93
g94
ssg82
g796
sg75
(lp803
g430
asbag68
(g89
g70
NtRp804
(dp805
g73
(dp806
g100
g101
ssg82
g796
sg75
(lp807
S':'
asbag68
(g89
g70
NtRp808
(dp809
g73
(dp810
sg82
g796
sg75
(lp811
g68
(g69
g70
NtRp812
(dp813
g73
(dp814
g81
I3
ssg82
g808
sg75
(lp815
S''
asbasbasbag68
(g84
g70
NtRp816
(dp817
g73
(dp818
sg82
g672
sg75
(lp819
g68
(g89
g70
NtRp820
(dp821
g73
(dp822
g93
g94
ssg82
g816
sg75
(lp823
g451
asbag68
(g89
g70
NtRp824
(dp825
g73
(dp826
g100
g101
ssg82
g816
sg75
(lp827
S':'
asbag68
(g89
g70
NtRp828
(dp829
g73
(dp830
sg82
g816
sg75
(lp831
g68
(g69
g70
NtRp832
(dp833
g73
(dp834
g81
I3
ssg82
g828
sg75
(lp835
S''
asbasbasbasbasbasbasbag68
(g84
g70
NtRp836
(dp837
g73
(dp838
sg82
g267
sg75
(lp839
g68
(g89
g70
NtRp840
(dp841
g73
(dp842
g93
g94
ssg82
g836
sg75
(lp843
S'session_id_proyecto_webcast'
p844
asbag68
(g89
g70
NtRp845
(dp846
g73
(dp847
g100
g101
ssg82
g836
sg75
(lp848
S':'
asbag68
(g89
g70
NtRp849
(dp850
g73
(dp851
sg82
g836
sg75
(lp852
g68
(g69
g70
NtRp853
(dp854
g73
(dp855
g81
I4
ssg82
g849
sg75
(lp856
S'127.0.0.1-3575e940-2aa6-4413-a80f-60a8b60379f5'
p857
ag68
(g77
g70
NtRp858
(dp859
g73
(dp860
g81
I3
ssg82
Nsg75
(lp861
g68
(g84
g70
NtRp862
(dp863
g73
(dp864
sg82
g858
sg75
(lp865
g68
(g89
g70
NtRp866
(dp867
g73
(dp868
g93
g94
ssg82
g862
sg75
(lp869
g304
asbag68
(g89
g70
NtRp870
(dp871
g73
(dp872
g100
g101
ssg82
g862
sg75
(lp873
S':'
asbag68
(g89
g70
NtRp874
(dp875
g73
(dp876
sg82
g862
sg75
(lp877
g68
(g69
g70
NtRp878
(dp879
g73
(dp880
g81
I3
ssg82
g874
sg75
(lp881
S''
asbasbasbag68
(g84
g70
NtRp882
(dp883
g73
(dp884
sg82
g858
sg75
(lp885
g68
(g89
g70
NtRp886
(dp887
g73
(dp888
g93
g94
ssg82
g882
sg75
(lp889
g325
asbag68
(g89
g70
NtRp890
(dp891
g73
(dp892
g100
g101
ssg82
g882
sg75
(lp893
S':'
asbag68
(g89
g70
NtRp894
(dp895
g73
(dp896
sg82
g882
sg75
(lp897
g68
(g69
g70
NtRp898
(dp899
g73
(dp900
g81
I3
ssg82
g894
sg75
(lp901
S''
asbasbasbag68
(g84
g70
NtRp902
(dp903
g73
(dp904
sg82
g858
sg75
(lp905
g68
(g89
g70
NtRp906
(dp907
g73
(dp908
g93
g94
ssg82
g902
sg75
(lp909
g346
asbag68
(g89
g70
NtRp910
(dp911
g73
(dp912
g100
g101
ssg82
g902
sg75
(lp913
S':'
asbag68
(g89
g70
NtRp914
(dp915
g73
(dp916
sg82
g902
sg75
(lp917
g68
(g69
g70
NtRp918
(dp919
g73
(dp920
g81
I3
ssg82
g914
sg75
(lp921
S''
asbasbasbag68
(g84
g70
NtRp922
(dp923
g73
(dp924
sg82
g858
sg75
(lp925
g68
(g89
g70
NtRp926
(dp927
g73
(dp928
g93
g94
ssg82
g922
sg75
(lp929
g367
asbag68
(g89
g70
NtRp930
(dp931
g73
(dp932
g100
g101
ssg82
g922
sg75
(lp933
S':'
asbag68
(g89
g70
NtRp934
(dp935
g73
(dp936
sg82
g922
sg75
(lp937
g68
(g69
g70
NtRp938
(dp939
g73
(dp940
g81
I3
ssg82
g934
sg75
(lp941
S''
asbasbasbag68
(g84
g70
NtRp942
(dp943
g73
(dp944
sg82
g858
sg75
(lp945
g68
(g89
g70
NtRp946
(dp947
g73
(dp948
g93
g94
ssg82
g942
sg75
(lp949
g388
asbag68
(g89
g70
NtRp950
(dp951
g73
(dp952
g100
g101
ssg82
g942
sg75
(lp953
S':'
asbag68
(g89
g70
NtRp954
(dp955
g73
(dp956
sg82
g942
sg75
(lp957
g68
(g69
g70
NtRp958
(dp959
g73
(dp960
g81
I3
ssg82
g954
sg75
(lp961
S''
asbasbasbag68
(g84
g70
NtRp962
(dp963
g73
(dp964
sg82
g858
sg75
(lp965
g68
(g89
g70
NtRp966
(dp967
g73
(dp968
g93
g94
ssg82
g962
sg75
(lp969
g409
asbag68
(g89
g70
NtRp970
(dp971
g73
(dp972
g100
g101
ssg82
g962
sg75
(lp973
S':'
asbag68
(g89
g70
NtRp974
(dp975
g73
(dp976
sg82
g962
sg75
(lp977
g68
(g69
g70
NtRp978
(dp979
g73
(dp980
g81
I3
ssg82
g974
sg75
(lp981
S''
asbasbasbag68
(g84
g70
NtRp982
(dp983
g73
(dp984
sg82
g858
sg75
(lp985
g68
(g89
g70
NtRp986
(dp987
g73
(dp988
g93
g94
ssg82
g982
sg75
(lp989
g430
asbag68
(g89
g70
NtRp990
(dp991
g73
(dp992
g100
g101
ssg82
g982
sg75
(lp993
S':'
asbag68
(g89
g70
NtRp994
(dp995
g73
(dp996
sg82
g982
sg75
(lp997
g68
(g69
g70
NtRp998
(dp999
g73
(dp1000
g81
I3
ssg82
g994
sg75
(lp1001
S''
asbasbasbag68
(g84
g70
NtRp1002
(dp1003
g73
(dp1004
sg82
g858
sg75
(lp1005
g68
(g89
g70
NtRp1006
(dp1007
g73
(dp1008
g93
g94
ssg82
g1002
sg75
(lp1009
g451
asbag68
(g89
g70
NtRp1010
(dp1011
g73
(dp1012
g100
g101
ssg82
g1002
sg75
(lp1013
S':'
asbag68
(g89
g70
NtRp1014
(dp1015
g73
(dp1016
sg82
g1002
sg75
(lp1017
g68
(g69
g70
NtRp1018
(dp1019
g73
(dp1020
g81
I3
ssg82
g1014
sg75
(lp1021
S''
asbasbasbasbasbasbasbag68
(g84
g70
NtRp1022
(dp1023
g73
(dp1024
sg82
g267
sg75
(lp1025
g68
(g89
g70
NtRp1026
(dp1027
g73
(dp1028
g93
g94
ssg82
g1022
sg75
(lp1029
S'session_id_saaf'
p1030
asbag68
(g89
g70
NtRp1031
(dp1032
g73
(dp1033
g100
g101
ssg82
g1022
sg75
(lp1034
S':'
asbag68
(g89
g70
NtRp1035
(dp1036
g73
(dp1037
sg82
g1022
sg75
(lp1038
g68
(g69
g70
NtRp1039
(dp1040
g73
(dp1041
g81
I4
ssg82
g1035
sg75
(lp1042
S'127.0.0.1-a5ace905-b0d7-4ad9-bad5-3f425942dffe'
p1043
ag68
(g77
g70
NtRp1044
(dp1045
g73
(dp1046
g81
I3
ssg82
Nsg75
(lp1047
g68
(g84
g70
NtRp1048
(dp1049
g73
(dp1050
sg82
g1044
sg75
(lp1051
g68
(g89
g70
NtRp1052
(dp1053
g73
(dp1054
g93
g94
ssg82
g1048
sg75
(lp1055
g304
asbag68
(g89
g70
NtRp1056
(dp1057
g73
(dp1058
g100
g101
ssg82
g1048
sg75
(lp1059
S':'
asbag68
(g89
g70
NtRp1060
(dp1061
g73
(dp1062
sg82
g1048
sg75
(lp1063
g68
(g69
g70
NtRp1064
(dp1065
g73
(dp1066
g81
I3
ssg82
g1060
sg75
(lp1067
S''
asbasbasbag68
(g84
g70
NtRp1068
(dp1069
g73
(dp1070
sg82
g1044
sg75
(lp1071
g68
(g89
g70
NtRp1072
(dp1073
g73
(dp1074
g93
g94
ssg82
g1068
sg75
(lp1075
g325
asbag68
(g89
g70
NtRp1076
(dp1077
g73
(dp1078
g100
g101
ssg82
g1068
sg75
(lp1079
S':'
asbag68
(g89
g70
NtRp1080
(dp1081
g73
(dp1082
sg82
g1068
sg75
(lp1083
g68
(g69
g70
NtRp1084
(dp1085
g73
(dp1086
g81
I3
ssg82
g1080
sg75
(lp1087
S''
asbasbasbag68
(g84
g70
NtRp1088
(dp1089
g73
(dp1090
sg82
g1044
sg75
(lp1091
g68
(g89
g70
NtRp1092
(dp1093
g73
(dp1094
g93
g94
ssg82
g1088
sg75
(lp1095
g346
asbag68
(g89
g70
NtRp1096
(dp1097
g73
(dp1098
g100
g101
ssg82
g1088
sg75
(lp1099
S':'
asbag68
(g89
g70
NtRp1100
(dp1101
g73
(dp1102
sg82
g1088
sg75
(lp1103
g68
(g69
g70
NtRp1104
(dp1105
g73
(dp1106
g81
I3
ssg82
g1100
sg75
(lp1107
S''
asbasbasbag68
(g84
g70
NtRp1108
(dp1109
g73
(dp1110
sg82
g1044
sg75
(lp1111
g68
(g89
g70
NtRp1112
(dp1113
g73
(dp1114
g93
g94
ssg82
g1108
sg75
(lp1115
g367
asbag68
(g89
g70
NtRp1116
(dp1117
g73
(dp1118
g100
g101
ssg82
g1108
sg75
(lp1119
S':'
asbag68
(g89
g70
NtRp1120
(dp1121
g73
(dp1122
sg82
g1108
sg75
(lp1123
g68
(g69
g70
NtRp1124
(dp1125
g73
(dp1126
g81
I3
ssg82
g1120
sg75
(lp1127
S''
asbasbasbag68
(g84
g70
NtRp1128
(dp1129
g73
(dp1130
sg82
g1044
sg75
(lp1131
g68
(g89
g70
NtRp1132
(dp1133
g73
(dp1134
g93
g94
ssg82
g1128
sg75
(lp1135
g388
asbag68
(g89
g70
NtRp1136
(dp1137
g73
(dp1138
g100
g101
ssg82
g1128
sg75
(lp1139
S':'
asbag68
(g89
g70
NtRp1140
(dp1141
g73
(dp1142
sg82
g1128
sg75
(lp1143
g68
(g69
g70
NtRp1144
(dp1145
g73
(dp1146
g81
I3
ssg82
g1140
sg75
(lp1147
S''
asbasbasbag68
(g84
g70
NtRp1148
(dp1149
g73
(dp1150
sg82
g1044
sg75
(lp1151
g68
(g89
g70
NtRp1152
(dp1153
g73
(dp1154
g93
g94
ssg82
g1148
sg75
(lp1155
g409
asbag68
(g89
g70
NtRp1156
(dp1157
g73
(dp1158
g100
g101
ssg82
g1148
sg75
(lp1159
S':'
asbag68
(g89
g70
NtRp1160
(dp1161
g73
(dp1162
sg82
g1148
sg75
(lp1163
g68
(g69
g70
NtRp1164
(dp1165
g73
(dp1166
g81
I3
ssg82
g1160
sg75
(lp1167
S''
asbasbasbag68
(g84
g70
NtRp1168
(dp1169
g73
(dp1170
sg82
g1044
sg75
(lp1171
g68
(g89
g70
NtRp1172
(dp1173
g73
(dp1174
g93
g94
ssg82
g1168
sg75
(lp1175
g430
asbag68
(g89
g70
NtRp1176
(dp1177
g73
(dp1178
g100
g101
ssg82
g1168
sg75
(lp1179
S':'
asbag68
(g89
g70
NtRp1180
(dp1181
g73
(dp1182
sg82
g1168
sg75
(lp1183
g68
(g69
g70
NtRp1184
(dp1185
g73
(dp1186
g81
I3
ssg82
g1180
sg75
(lp1187
S''
asbasbasbag68
(g84
g70
NtRp1188
(dp1189
g73
(dp1190
sg82
g1044
sg75
(lp1191
g68
(g89
g70
NtRp1192
(dp1193
g73
(dp1194
g93
g94
ssg82
g1188
sg75
(lp1195
g451
asbag68
(g89
g70
NtRp1196
(dp1197
g73
(dp1198
g100
g101
ssg82
g1188
sg75
(lp1199
S':'
asbag68
(g89
g70
NtRp1200
(dp1201
g73
(dp1202
sg82
g1188
sg75
(lp1203
g68
(g69
g70
NtRp1204
(dp1205
g73
(dp1206
g81
I3
ssg82
g1200
sg75
(lp1207
S''
asbasbasbasbasbasbasbag68
(g84
g70
NtRp1208
(dp1209
g73
(dp1210
sg82
g267
sg75
(lp1211
g68
(g89
g70
NtRp1212
(dp1213
g73
(dp1214
g93
g94
ssg82
g1208
sg75
(lp1215
S'session_id_saaf_or'
p1216
asbag68
(g89
g70
NtRp1217
(dp1218
g73
(dp1219
g100
g101
ssg82
g1208
sg75
(lp1220
S':'
asbag68
(g89
g70
NtRp1221
(dp1222
g73
(dp1223
sg82
g1208
sg75
(lp1224
g68
(g69
g70
NtRp1225
(dp1226
g73
(dp1227
g81
I4
ssg82
g1221
sg75
(lp1228
S'127.0.0.1-df669e4b-d48a-49bf-be9c-20f13552c37e'
p1229
ag68
(g77
g70
NtRp1230
(dp1231
g73
(dp1232
g81
I3
ssg82
Nsg75
(lp1233
g68
(g84
g70
NtRp1234
(dp1235
g73
(dp1236
sg82
g1230
sg75
(lp1237
g68
(g89
g70
NtRp1238
(dp1239
g73
(dp1240
g93
g94
ssg82
g1234
sg75
(lp1241
g304
asbag68
(g89
g70
NtRp1242
(dp1243
g73
(dp1244
g100
g101
ssg82
g1234
sg75
(lp1245
S':'
asbag68
(g89
g70
NtRp1246
(dp1247
g73
(dp1248
sg82
g1234
sg75
(lp1249
g68
(g69
g70
NtRp1250
(dp1251
g73
(dp1252
g81
I3
ssg82
g1246
sg75
(lp1253
S''
asbasbasbag68
(g84
g70
NtRp1254
(dp1255
g73
(dp1256
sg82
g1230
sg75
(lp1257
g68
(g89
g70
NtRp1258
(dp1259
g73
(dp1260
g93
g94
ssg82
g1254
sg75
(lp1261
g325
asbag68
(g89
g70
NtRp1262
(dp1263
g73
(dp1264
g100
g101
ssg82
g1254
sg75
(lp1265
S':'
asbag68
(g89
g70
NtRp1266
(dp1267
g73
(dp1268
sg82
g1254
sg75
(lp1269
g68
(g69
g70
NtRp1270
(dp1271
g73
(dp1272
g81
I3
ssg82
g1266
sg75
(lp1273
S''
asbasbasbag68
(g84
g70
NtRp1274
(dp1275
g73
(dp1276
sg82
g1230
sg75
(lp1277
g68
(g89
g70
NtRp1278
(dp1279
g73
(dp1280
g93
g94
ssg82
g1274
sg75
(lp1281
g346
asbag68
(g89
g70
NtRp1282
(dp1283
g73
(dp1284
g100
g101
ssg82
g1274
sg75
(lp1285
S':'
asbag68
(g89
g70
NtRp1286
(dp1287
g73
(dp1288
sg82
g1274
sg75
(lp1289
g68
(g69
g70
NtRp1290
(dp1291
g73
(dp1292
g81
I3
ssg82
g1286
sg75
(lp1293
S''
asbasbasbag68
(g84
g70
NtRp1294
(dp1295
g73
(dp1296
sg82
g1230
sg75
(lp1297
g68
(g89
g70
NtRp1298
(dp1299
g73
(dp1300
g93
g94
ssg82
g1294
sg75
(lp1301
g367
asbag68
(g89
g70
NtRp1302
(dp1303
g73
(dp1304
g100
g101
ssg82
g1294
sg75
(lp1305
S':'
asbag68
(g89
g70
NtRp1306
(dp1307
g73
(dp1308
sg82
g1294
sg75
(lp1309
g68
(g69
g70
NtRp1310
(dp1311
g73
(dp1312
g81
I3
ssg82
g1306
sg75
(lp1313
S''
asbasbasbag68
(g84
g70
NtRp1314
(dp1315
g73
(dp1316
sg82
g1230
sg75
(lp1317
g68
(g89
g70
NtRp1318
(dp1319
g73
(dp1320
g93
g94
ssg82
g1314
sg75
(lp1321
g388
asbag68
(g89
g70
NtRp1322
(dp1323
g73
(dp1324
g100
g101
ssg82
g1314
sg75
(lp1325
S':'
asbag68
(g89
g70
NtRp1326
(dp1327
g73
(dp1328
sg82
g1314
sg75
(lp1329
g68
(g69
g70
NtRp1330
(dp1331
g73
(dp1332
g81
I3
ssg82
g1326
sg75
(lp1333
S''
asbasbasbag68
(g84
g70
NtRp1334
(dp1335
g73
(dp1336
sg82
g1230
sg75
(lp1337
g68
(g89
g70
NtRp1338
(dp1339
g73
(dp1340
g93
g94
ssg82
g1334
sg75
(lp1341
g409
asbag68
(g89
g70
NtRp1342
(dp1343
g73
(dp1344
g100
g101
ssg82
g1334
sg75
(lp1345
S':'
asbag68
(g89
g70
NtRp1346
(dp1347
g73
(dp1348
sg82
g1334
sg75
(lp1349
g68
(g69
g70
NtRp1350
(dp1351
g73
(dp1352
g81
I3
ssg82
g1346
sg75
(lp1353
S''
asbasbasbag68
(g84
g70
NtRp1354
(dp1355
g73
(dp1356
sg82
g1230
sg75
(lp1357
g68
(g89
g70
NtRp1358
(dp1359
g73
(dp1360
g93
g94
ssg82
g1354
sg75
(lp1361
g430
asbag68
(g89
g70
NtRp1362
(dp1363
g73
(dp1364
g100
g101
ssg82
g1354
sg75
(lp1365
S':'
asbag68
(g89
g70
NtRp1366
(dp1367
g73
(dp1368
sg82
g1354
sg75
(lp1369
g68
(g69
g70
NtRp1370
(dp1371
g73
(dp1372
g81
I3
ssg82
g1366
sg75
(lp1373
S''
asbasbasbag68
(g84
g70
NtRp1374
(dp1375
g73
(dp1376
sg82
g1230
sg75
(lp1377
g68
(g89
g70
NtRp1378
(dp1379
g73
(dp1380
g93
g94
ssg82
g1374
sg75
(lp1381
g451
asbag68
(g89
g70
NtRp1382
(dp1383
g73
(dp1384
g100
g101
ssg82
g1374
sg75
(lp1385
S':'
asbag68
(g89
g70
NtRp1386
(dp1387
g73
(dp1388
sg82
g1374
sg75
(lp1389
g68
(g69
g70
NtRp1390
(dp1391
g73
(dp1392
g81
I3
ssg82
g1386
sg75
(lp1393
S''
asbasbasbasbasbasbasbag68
(g84
g70
NtRp1394
(dp1395
g73
(dp1396
sg82
g267
sg75
(lp1397
g68
(g89
g70
NtRp1398
(dp1399
g73
(dp1400
g93
g94
ssg82
g1394
sg75
(lp1401
S'session_id_welcome'
p1402
asbag68
(g89
g70
NtRp1403
(dp1404
g73
(dp1405
g100
g101
ssg82
g1394
sg75
(lp1406
S':'
asbag68
(g89
g70
NtRp1407
(dp1408
g73
(dp1409
sg82
g1394
sg75
(lp1410
g68
(g69
g70
NtRp1411
(dp1412
g73
(dp1413
g81
I4
ssg82
g1407
sg75
(lp1414
S'127.0.0.1-0284afb1-4258-43f6-8382-1399f79e74ff'
p1415
ag68
(g77
g70
NtRp1416
(dp1417
g73
(dp1418
g81
I3
ssg82
Nsg75
(lp1419
g68
(g84
g70
NtRp1420
(dp1421
g73
(dp1422
sg82
g1416
sg75
(lp1423
g68
(g89
g70
NtRp1424
(dp1425
g73
(dp1426
g93
g94
ssg82
g1420
sg75
(lp1427
g304
asbag68
(g89
g70
NtRp1428
(dp1429
g73
(dp1430
g100
g101
ssg82
g1420
sg75
(lp1431
S':'
asbag68
(g89
g70
NtRp1432
(dp1433
g73
(dp1434
sg82
g1420
sg75
(lp1435
g68
(g69
g70
NtRp1436
(dp1437
g73
(dp1438
g81
I3
ssg82
g1432
sg75
(lp1439
S''
asbasbasbag68
(g84
g70
NtRp1440
(dp1441
g73
(dp1442
sg82
g1416
sg75
(lp1443
g68
(g89
g70
NtRp1444
(dp1445
g73
(dp1446
g93
g94
ssg82
g1440
sg75
(lp1447
g325
asbag68
(g89
g70
NtRp1448
(dp1449
g73
(dp1450
g100
g101
ssg82
g1440
sg75
(lp1451
S':'
asbag68
(g89
g70
NtRp1452
(dp1453
g73
(dp1454
sg82
g1440
sg75
(lp1455
g68
(g69
g70
NtRp1456
(dp1457
g73
(dp1458
g81
I3
ssg82
g1452
sg75
(lp1459
S''
asbasbasbag68
(g84
g70
NtRp1460
(dp1461
g73
(dp1462
sg82
g1416
sg75
(lp1463
g68
(g89
g70
NtRp1464
(dp1465
g73
(dp1466
g93
g94
ssg82
g1460
sg75
(lp1467
g346
asbag68
(g89
g70
NtRp1468
(dp1469
g73
(dp1470
g100
g101
ssg82
g1460
sg75
(lp1471
S':'
asbag68
(g89
g70
NtRp1472
(dp1473
g73
(dp1474
sg82
g1460
sg75
(lp1475
g68
(g69
g70
NtRp1476
(dp1477
g73
(dp1478
g81
I3
ssg82
g1472
sg75
(lp1479
S''
asbasbasbag68
(g84
g70
NtRp1480
(dp1481
g73
(dp1482
sg82
g1416
sg75
(lp1483
g68
(g89
g70
NtRp1484
(dp1485
g73
(dp1486
g93
g94
ssg82
g1480
sg75
(lp1487
g367
asbag68
(g89
g70
NtRp1488
(dp1489
g73
(dp1490
g100
g101
ssg82
g1480
sg75
(lp1491
S':'
asbag68
(g89
g70
NtRp1492
(dp1493
g73
(dp1494
sg82
g1480
sg75
(lp1495
g68
(g69
g70
NtRp1496
(dp1497
g73
(dp1498
g81
I3
ssg82
g1492
sg75
(lp1499
S''
asbasbasbag68
(g84
g70
NtRp1500
(dp1501
g73
(dp1502
sg82
g1416
sg75
(lp1503
g68
(g89
g70
NtRp1504
(dp1505
g73
(dp1506
g93
g94
ssg82
g1500
sg75
(lp1507
g388
asbag68
(g89
g70
NtRp1508
(dp1509
g73
(dp1510
g100
g101
ssg82
g1500
sg75
(lp1511
S':'
asbag68
(g89
g70
NtRp1512
(dp1513
g73
(dp1514
sg82
g1500
sg75
(lp1515
g68
(g69
g70
NtRp1516
(dp1517
g73
(dp1518
g81
I3
ssg82
g1512
sg75
(lp1519
S''
asbasbasbag68
(g84
g70
NtRp1520
(dp1521
g73
(dp1522
sg82
g1416
sg75
(lp1523
g68
(g89
g70
NtRp1524
(dp1525
g73
(dp1526
g93
g94
ssg82
g1520
sg75
(lp1527
g409
asbag68
(g89
g70
NtRp1528
(dp1529
g73
(dp1530
g100
g101
ssg82
g1520
sg75
(lp1531
S':'
asbag68
(g89
g70
NtRp1532
(dp1533
g73
(dp1534
sg82
g1520
sg75
(lp1535
g68
(g69
g70
NtRp1536
(dp1537
g73
(dp1538
g81
I3
ssg82
g1532
sg75
(lp1539
S''
asbasbasbag68
(g84
g70
NtRp1540
(dp1541
g73
(dp1542
sg82
g1416
sg75
(lp1543
g68
(g89
g70
NtRp1544
(dp1545
g73
(dp1546
g93
g94
ssg82
g1540
sg75
(lp1547
g430
asbag68
(g89
g70
NtRp1548
(dp1549
g73
(dp1550
g100
g101
ssg82
g1540
sg75
(lp1551
S':'
asbag68
(g89
g70
NtRp1552
(dp1553
g73
(dp1554
sg82
g1540
sg75
(lp1555
g68
(g69
g70
NtRp1556
(dp1557
g73
(dp1558
g81
I3
ssg82
g1552
sg75
(lp1559
S''
asbasbasbag68
(g84
g70
NtRp1560
(dp1561
g73
(dp1562
sg82
g1416
sg75
(lp1563
g68
(g89
g70
NtRp1564
(dp1565
g73
(dp1566
g93
g94
ssg82
g1560
sg75
(lp1567
g451
asbag68
(g89
g70
NtRp1568
(dp1569
g73
(dp1570
g100
g101
ssg82
g1560
sg75
(lp1571
S':'
asbag68
(g89
g70
NtRp1572
(dp1573
g73
(dp1574
sg82
g1560
sg75
(lp1575
g68
(g69
g70
NtRp1576
(dp1577
g73
(dp1578
g81
I3
ssg82
g1572
sg75
(lp1579
S''
asbasbasbasbasbasbasbag68
(g84
g70
NtRp1580
(dp1581
g73
(dp1582
sg82
g267
sg75
(lp1583
g68
(g89
g70
NtRp1584
(dp1585
g73
(dp1586
g93
g94
ssg82
g1580
sg75
(lp1587
S'size'
p1588
asbag68
(g89
g70
NtRp1589
(dp1590
g73
(dp1591
g100
g101
ssg82
g1580
sg75
(lp1592
S':'
asbag68
(g89
g70
NtRp1593
(dp1594
g73
(dp1595
sg82
g1580
sg75
(lp1596
g68
(g69
g70
NtRp1597
(dp1598
g73
(dp1599
g81
I4
ssg82
g1593
sg75
(lp1600
S'4'
ag68
(g77
g70
NtRp1601
(dp1602
g73
(dp1603
g81
I3
ssg82
Nsg75
(lp1604
g68
(g84
g70
NtRp1605
(dp1606
g73
(dp1607
sg82
g1601
sg75
(lp1608
g68
(g89
g70
NtRp1609
(dp1610
g73
(dp1611
g93
g94
ssg82
g1605
sg75
(lp1612
g304
asbag68
(g89
g70
NtRp1613
(dp1614
g73
(dp1615
g100
g101
ssg82
g1605
sg75
(lp1616
S':'
asbag68
(g89
g70
NtRp1617
(dp1618
g73
(dp1619
sg82
g1605
sg75
(lp1620
g68
(g69
g70
NtRp1621
(dp1622
g73
(dp1623
g81
I3
ssg82
g1617
sg75
(lp1624
S''
asbasbasbag68
(g84
g70
NtRp1625
(dp1626
g73
(dp1627
sg82
g1601
sg75
(lp1628
g68
(g89
g70
NtRp1629
(dp1630
g73
(dp1631
g93
g94
ssg82
g1625
sg75
(lp1632
g325
asbag68
(g89
g70
NtRp1633
(dp1634
g73
(dp1635
g100
g101
ssg82
g1625
sg75
(lp1636
S':'
asbag68
(g89
g70
NtRp1637
(dp1638
g73
(dp1639
sg82
g1625
sg75
(lp1640
g68
(g69
g70
NtRp1641
(dp1642
g73
(dp1643
g81
I3
ssg82
g1637
sg75
(lp1644
S''
asbasbasbag68
(g84
g70
NtRp1645
(dp1646
g73
(dp1647
sg82
g1601
sg75
(lp1648
g68
(g89
g70
NtRp1649
(dp1650
g73
(dp1651
g93
g94
ssg82
g1645
sg75
(lp1652
g346
asbag68
(g89
g70
NtRp1653
(dp1654
g73
(dp1655
g100
g101
ssg82
g1645
sg75
(lp1656
S':'
asbag68
(g89
g70
NtRp1657
(dp1658
g73
(dp1659
sg82
g1645
sg75
(lp1660
g68
(g69
g70
NtRp1661
(dp1662
g73
(dp1663
g81
I3
ssg82
g1657
sg75
(lp1664
S''
asbasbasbag68
(g84
g70
NtRp1665
(dp1666
g73
(dp1667
sg82
g1601
sg75
(lp1668
g68
(g89
g70
NtRp1669
(dp1670
g73
(dp1671
g93
g94
ssg82
g1665
sg75
(lp1672
g367
asbag68
(g89
g70
NtRp1673
(dp1674
g73
(dp1675
g100
g101
ssg82
g1665
sg75
(lp1676
S':'
asbag68
(g89
g70
NtRp1677
(dp1678
g73
(dp1679
sg82
g1665
sg75
(lp1680
g68
(g69
g70
NtRp1681
(dp1682
g73
(dp1683
g81
I3
ssg82
g1677
sg75
(lp1684
S''
asbasbasbag68
(g84
g70
NtRp1685
(dp1686
g73
(dp1687
sg82
g1601
sg75
(lp1688
g68
(g89
g70
NtRp1689
(dp1690
g73
(dp1691
g93
g94
ssg82
g1685
sg75
(lp1692
g388
asbag68
(g89
g70
NtRp1693
(dp1694
g73
(dp1695
g100
g101
ssg82
g1685
sg75
(lp1696
S':'
asbag68
(g89
g70
NtRp1697
(dp1698
g73
(dp1699
sg82
g1685
sg75
(lp1700
g68
(g69
g70
NtRp1701
(dp1702
g73
(dp1703
g81
I3
ssg82
g1697
sg75
(lp1704
S''
asbasbasbag68
(g84
g70
NtRp1705
(dp1706
g73
(dp1707
sg82
g1601
sg75
(lp1708
g68
(g89
g70
NtRp1709
(dp1710
g73
(dp1711
g93
g94
ssg82
g1705
sg75
(lp1712
g409
asbag68
(g89
g70
NtRp1713
(dp1714
g73
(dp1715
g100
g101
ssg82
g1705
sg75
(lp1716
S':'
asbag68
(g89
g70
NtRp1717
(dp1718
g73
(dp1719
sg82
g1705
sg75
(lp1720
g68
(g69
g70
NtRp1721
(dp1722
g73
(dp1723
g81
I3
ssg82
g1717
sg75
(lp1724
S''
asbasbasbag68
(g84
g70
NtRp1725
(dp1726
g73
(dp1727
sg82
g1601
sg75
(lp1728
g68
(g89
g70
NtRp1729
(dp1730
g73
(dp1731
g93
g94
ssg82
g1725
sg75
(lp1732
g430
asbag68
(g89
g70
NtRp1733
(dp1734
g73
(dp1735
g100
g101
ssg82
g1725
sg75
(lp1736
S':'
asbag68
(g89
g70
NtRp1737
(dp1738
g73
(dp1739
sg82
g1725
sg75
(lp1740
g68
(g69
g70
NtRp1741
(dp1742
g73
(dp1743
g81
I3
ssg82
g1737
sg75
(lp1744
S''
asbasbasbag68
(g84
g70
NtRp1745
(dp1746
g73
(dp1747
sg82
g1601
sg75
(lp1748
g68
(g89
g70
NtRp1749
(dp1750
g73
(dp1751
g93
g94
ssg82
g1745
sg75
(lp1752
g451
asbag68
(g89
g70
NtRp1753
(dp1754
g73
(dp1755
g100
g101
ssg82
g1745
sg75
(lp1756
S':'
asbag68
(g89
g70
NtRp1757
(dp1758
g73
(dp1759
sg82
g1745
sg75
(lp1760
g68
(g69
g70
NtRp1761
(dp1762
g73
(dp1763
g81
I3
ssg82
g1757
sg75
(lp1764
S''
asbasbasbasbasbasbasbasbasbasbasbag68
(g84
g70
NtRp1765
(dp1766
g73
(dp1767
sg82
g78
sg75
(lp1768
g68
(g89
g70
NtRp1769
(dp1770
g73
(dp1771
g93
g94
ssg82
g1765
sg75
(lp1772
S'env'
p1773
asbag68
(g89
g70
NtRp1774
(dp1775
g73
(dp1776
g100
g101
ssg82
g1765
sg75
(lp1777
S':'
asbag68
(g89
g70
NtRp1778
(dp1779
g73
(dp1780
sg82
g1765
sg75
(lp1781
g68
(g69
g70
NtRp1782
(dp1783
g73
(dp1784
g81
I5
ssg82
g1778
sg75
(lp1785
g68
(g77
g70
NtRp1786
(dp1787
g73
(dp1788
g81
I4
ssg82
Nsg75
(lp1789
g68
(g84
g70
NtRp1790
(dp1791
g73
(dp1792
sg82
g1786
sg75
(lp1793
g68
(g89
g70
NtRp1794
(dp1795
g73
(dp1796
g93
g94
ssg82
g1790
sg75
(lp1797
S'app_folders'
p1798
asbag68
(g89
g70
NtRp1799
(dp1800
g73
(dp1801
g100
g101
ssg82
g1790
sg75
(lp1802
S':'
asbag68
(g89
g70
NtRp1803
(dp1804
g73
(dp1805
sg82
g1790
sg75
(lp1806
g68
(g69
g70
NtRp1807
(dp1808
g73
(dp1809
g81
I4
ssg82
g1803
sg75
(lp1810
S"set(['/home/emp2web/ejecutar/web2py/applications/welcome/', '/home/emp2web/ejecutar/web2py/applications/admin/', '/home/emp2web/ejecutar/web2py/applications/proyecto_webcast/', '/home/emp2web/ejecutar/web2py/applications/saaf/', '/home/emp2web/ejecutar/web2py/applications/saaf_or/', '/home/emp2web/ejecutar/web2py/applications/examples/'])"
p1811
asbasbasbag68
(g84
g70
NtRp1812
(dp1813
g73
(dp1814
sg82
g1786
sg75
(lp1815
g68
(g89
g70
NtRp1816
(dp1817
g73
(dp1818
g93
g94
ssg82
g1812
sg75
(lp1819
S'applications_parent'
p1820
asbag68
(g89
g70
NtRp1821
(dp1822
g73
(dp1823
g100
g101
ssg82
g1812
sg75
(lp1824
S':'
asbag68
(g89
g70
NtRp1825
(dp1826
g73
(dp1827
sg82
g1812
sg75
(lp1828
g68
(g69
g70
NtRp1829
(dp1830
g73
(dp1831
g81
I4
ssg82
g1825
sg75
(lp1832
S'/home/emp2web/ejecutar/web2py'
p1833
asbasbasbag68
(g84
g70
NtRp1834
(dp1835
g73
(dp1836
sg82
g1786
sg75
(lp1837
g68
(g89
g70
NtRp1838
(dp1839
g73
(dp1840
g93
g94
ssg82
g1834
sg75
(lp1841
S'cmd_args'
p1842
asbag68
(g89
g70
NtRp1843
(dp1844
g73
(dp1845
g100
g101
ssg82
g1834
sg75
(lp1846
S':'
asbag68
(g89
g70
NtRp1847
(dp1848
g73
(dp1849
sg82
g1834
sg75
(lp1850
g68
(g69
g70
NtRp1851
(dp1852
g73
(dp1853
g81
I4
ssg82
g1847
sg75
(lp1854
g68
(g77
g70
NtRp1855
(dp1856
g73
(dp1857
g81
I3
ssg82
Nsg75
(lp1858
sbasbasbasbag68
(g84
g70
NtRp1859
(dp1860
g73
(dp1861
sg82
g1786
sg75
(lp1862
g68
(g89
g70
NtRp1863
(dp1864
g73
(dp1865
g93
g94
ssg82
g1859
sg75
(lp1866
S'cmd_options'
p1867
asbag68
(g89
g70
NtRp1868
(dp1869
g73
(dp1870
g100
g101
ssg82
g1859
sg75
(lp1871
S':'
asbag68
(g89
g70
NtRp1872
(dp1873
g73
(dp1874
sg82
g1859
sg75
(lp1875
g68
(g69
g70
NtRp1876
(dp1877
g73
(dp1878
g81
I4
ssg82
g1872
sg75
(lp1879
S"<Values at 0x96abd4c: {'verbose': False, 'ip': '127.0.0.1', 'with_scheduler': False, 'ips': [], 'shutdown_timeout': 5, 'taskbar': False, 'port': 8000, 'maxthreads': None, 'softcron': False, 'server_name': 'emp2web', 'bpython': False, 'nogui': False, 'nocron': False, 'extcron': False, 'run_system_tests': False, 'test': None, 'folder': '/home/emp2web/ejecutar/web2py', 'config': '', 'import_models': False, 'winservice': '', 'shell': None, 'run': '', 'log_filename': 'httpserver.log', 'debuglevel': 30, 'args': [''], 'socket_timeout': 5, 'ssl_ca_certificate': None, 'scheduler': None, 'profiler_filename': None, 'ssl_private_key': '', 'scheduler_groups': None, 'password': 'admin', 'request_queue_size': 5, 'ssl_certificate': '', 'cronjob': False, 'numthreads': None, 'quiet': False, 'interfaces': None, 'minthreads': None, 'timeout': 10, 'plain': False, 'nobanner': False, 'pid_filename': 'httpserver.pid'}>"
p1880
asbasbasbag68
(g84
g70
NtRp1881
(dp1882
g73
(dp1883
sg82
g1786
sg75
(lp1884
g68
(g89
g70
NtRp1885
(dp1886
g73
(dp1887
g93
g94
ssg82
g1881
sg75
(lp1888
S'db_sessions'
p1889
asbag68
(g89
g70
NtRp1890
(dp1891
g73
(dp1892
g100
g101
ssg82
g1881
sg75
(lp1893
S':'
asbag68
(g89
g70
NtRp1894
(dp1895
g73
(dp1896
sg82
g1881
sg75
(lp1897
g68
(g69
g70
NtRp1898
(dp1899
g73
(dp1900
g81
I4
ssg82
g1894
sg75
(lp1901
S'set([])'
p1902
asbasbasbag68
(g84
g70
NtRp1903
(dp1904
g73
(dp1905
sg82
g1786
sg75
(lp1906
g68
(g89
g70
NtRp1907
(dp1908
g73
(dp1909
g93
g94
ssg82
g1903
sg75
(lp1910
S'debugging'
p1911
asbag68
(g89
g70
NtRp1912
(dp1913
g73
(dp1914
g100
g101
ssg82
g1903
sg75
(lp1915
S':'
asbag68
(g89
g70
NtRp1916
(dp1917
g73
(dp1918
sg82
g1903
sg75
(lp1919
g68
(g69
g70
NtRp1920
(dp1921
g73
(dp1922
g81
I4
ssg82
g1916
sg75
(lp1923
S'True'
p1924
asbasbasbag68
(g84
g70
NtRp1925
(dp1926
g73
(dp1927
sg82
g1786
sg75
(lp1928
g68
(g89
g70
NtRp1929
(dp1930
g73
(dp1931
g93
g94
ssg82
g1925
sg75
(lp1932
S'gluon_parent'
p1933
asbag68
(g89
g70
NtRp1934
(dp1935
g73
(dp1936
g100
g101
ssg82
g1925
sg75
(lp1937
S':'
asbag68
(g89
g70
NtRp1938
(dp1939
g73
(dp1940
sg82
g1925
sg75
(lp1941
g68
(g69
g70
NtRp1942
(dp1943
g73
(dp1944
g81
I4
ssg82
g1938
sg75
(lp1945
S'/home/emp2web/ejecutar/web2py'
p1946
asbasbasbag68
(g84
g70
NtRp1947
(dp1948
g73
(dp1949
sg82
g1786
sg75
(lp1950
g68
(g89
g70
NtRp1951
(dp1952
g73
(dp1953
g93
g94
ssg82
g1947
sg75
(lp1954
S'http_accept'
p1955
asbag68
(g89
g70
NtRp1956
(dp1957
g73
(dp1958
g100
g101
ssg82
g1947
sg75
(lp1959
S':'
asbag68
(g89
g70
NtRp1960
(dp1961
g73
(dp1962
sg82
g1947
sg75
(lp1963
g68
(g69
g70
NtRp1964
(dp1965
g73
(dp1966
g81
I4
ssg82
g1960
sg75
(lp1967
S'text/html,application/xhtml+xml,application/xml;q=0.9,*/*;q=0.8'
p1968
asbasbasbag68
(g84
g70
NtRp1969
(dp1970
g73
(dp1971
sg82
g1786
sg75
(lp1972
g68
(g89
g70
NtRp1973
(dp1974
g73
(dp1975
g93
g94
ssg82
g1969
sg75
(lp1976
S'http_accept_charset'
p1977
asbag68
(g89
g70
NtRp1978
(dp1979
g73
(dp1980
g100
g101
ssg82
g1969
sg75
(lp1981
S':'
asbag68
(g89
g70
NtRp1982
(dp1983
g73
(dp1984
sg82
g1969
sg75
(lp1985
g68
(g69
g70
NtRp1986
(dp1987
g73
(dp1988
g81
I4
ssg82
g1982
sg75
(lp1989
S'ISO-8859-1,utf-8;q=0.7,*;q=0.3'
p1990
asbasbasbag68
(g84
g70
NtRp1991
(dp1992
g73
(dp1993
sg82
g1786
sg75
(lp1994
g68
(g89
g70
NtRp1995
(dp1996
g73
(dp1997
g93
g94
ssg82
g1991
sg75
(lp1998
S'http_accept_encoding'
p1999
asbag68
(g89
g70
NtRp2000
(dp2001
g73
(dp2002
g100
g101
ssg82
g1991
sg75
(lp2003
S':'
asbag68
(g89
g70
NtRp2004
(dp2005
g73
(dp2006
sg82
g1991
sg75
(lp2007
g68
(g69
g70
NtRp2008
(dp2009
g73
(dp2010
g81
I4
ssg82
g2004
sg75
(lp2011
S'gzip,deflate,sdch'
p2012
asbasbasbag68
(g84
g70
NtRp2013
(dp2014
g73
(dp2015
sg82
g1786
sg75
(lp2016
g68
(g89
g70
NtRp2017
(dp2018
g73
(dp2019
g93
g94
ssg82
g2013
sg75
(lp2020
S'http_accept_language'
p2021
asbag68
(g89
g70
NtRp2022
(dp2023
g73
(dp2024
g100
g101
ssg82
g2013
sg75
(lp2025
S':'
asbag68
(g89
g70
NtRp2026
(dp2027
g73
(dp2028
sg82
g2013
sg75
(lp2029
g68
(g69
g70
NtRp2030
(dp2031
g73
(dp2032
g81
I4
ssg82
g2026
sg75
(lp2033
S'es-ES,es;q=0.8'
p2034
asbasbasbag68
(g84
g70
NtRp2035
(dp2036
g73
(dp2037
sg82
g1786
sg75
(lp2038
g68
(g89
g70
NtRp2039
(dp2040
g73
(dp2041
g93
g94
ssg82
g2035
sg75
(lp2042
S'http_cache_control'
p2043
asbag68
(g89
g70
NtRp2044
(dp2045
g73
(dp2046
g100
g101
ssg82
g2035
sg75
(lp2047
S':'
asbag68
(g89
g70
NtRp2048
(dp2049
g73
(dp2050
sg82
g2035
sg75
(lp2051
g68
(g69
g70
NtRp2052
(dp2053
g73
(dp2054
g81
I4
ssg82
g2048
sg75
(lp2055
S'max-age=0'
p2056
asbasbasbag68
(g84
g70
NtRp2057
(dp2058
g73
(dp2059
sg82
g1786
sg75
(lp2060
g68
(g89
g70
NtRp2061
(dp2062
g73
(dp2063
g93
g94
ssg82
g2057
sg75
(lp2064
S'http_connection'
p2065
asbag68
(g89
g70
NtRp2066
(dp2067
g73
(dp2068
g100
g101
ssg82
g2057
sg75
(lp2069
S':'
asbag68
(g89
g70
NtRp2070
(dp2071
g73
(dp2072
sg82
g2057
sg75
(lp2073
g68
(g69
g70
NtRp2074
(dp2075
g73
(dp2076
g81
I4
ssg82
g2070
sg75
(lp2077
S'keep-alive'
p2078
asbasbasbag68
(g84
g70
NtRp2079
(dp2080
g73
(dp2081
sg82
g1786
sg75
(lp2082
g68
(g89
g70
NtRp2083
(dp2084
g73
(dp2085
g93
g94
ssg82
g2079
sg75
(lp2086
S'http_cookie'
p2087
asbag68
(g89
g70
NtRp2088
(dp2089
g73
(dp2090
g100
g101
ssg82
g2079
sg75
(lp2091
S':'
asbag68
(g89
g70
NtRp2092
(dp2093
g73
(dp2094
sg82
g2079
sg75
(lp2095
g68
(g69
g70
NtRp2096
(dp2097
g73
(dp2098
g81
I4
ssg82
g2092
sg75
(lp2099
S'size=4; CP.mode=B; session_id_welcome=127.0.0.1-0284afb1-4258-43f6-8382-1399f79e74ff; session_id_saaf_or=127.0.0.1-df669e4b-d48a-49bf-be9c-20f13552c37e; session_id_saaf=127.0.0.1-a5ace905-b0d7-4ad9-bad5-3f425942dffe; PHPSESSID=s5drhn7fvaqkm891pj8ls1frb6; session_id_proyecto_webcast=127.0.0.1-3575e940-2aa6-4413-a80f-60a8b60379f5; session_id_admin=127.0.0.1-c56b24a4-31bb-46fd-8649-53a36305f5bf'
p2100
asbasbasbag68
(g84
g70
NtRp2101
(dp2102
g73
(dp2103
sg82
g1786
sg75
(lp2104
g68
(g89
g70
NtRp2105
(dp2106
g73
(dp2107
g93
g94
ssg82
g2101
sg75
(lp2108
S'http_host'
p2109
asbag68
(g89
g70
NtRp2110
(dp2111
g73
(dp2112
g100
g101
ssg82
g2101
sg75
(lp2113
S':'
asbag68
(g89
g70
NtRp2114
(dp2115
g73
(dp2116
sg82
g2101
sg75
(lp2117
g68
(g69
g70
NtRp2118
(dp2119
g73
(dp2120
g81
I4
ssg82
g2114
sg75
(lp2121
S'localhost:8000'
p2122
asbasbasbag68
(g84
g70
NtRp2123
(dp2124
g73
(dp2125
sg82
g1786
sg75
(lp2126
g68
(g89
g70
NtRp2127
(dp2128
g73
(dp2129
g93
g94
ssg82
g2123
sg75
(lp2130
S'http_referer'
p2131
asbag68
(g89
g70
NtRp2132
(dp2133
g73
(dp2134
g100
g101
ssg82
g2123
sg75
(lp2135
S':'
asbag68
(g89
g70
NtRp2136
(dp2137
g73
(dp2138
sg82
g2123
sg75
(lp2139
g68
(g69
g70
NtRp2140
(dp2141
g73
(dp2142
g81
I4
ssg82
g2136
sg75
(lp2143
S'http://localhost:8000/admin/default/design/proyecto_webcast'
p2144
asbasbasbag68
(g84
g70
NtRp2145
(dp2146
g73
(dp2147
sg82
g1786
sg75
(lp2148
g68
(g89
g70
NtRp2149
(dp2150
g73
(dp2151
g93
g94
ssg82
g2145
sg75
(lp2152
S'http_user_agent'
p2153
asbag68
(g89
g70
NtRp2154
(dp2155
g73
(dp2156
g100
g101
ssg82
g2145
sg75
(lp2157
S':'
asbag68
(g89
g70
NtRp2158
(dp2159
g73
(dp2160
sg82
g2145
sg75
(lp2161
g68
(g69
g70
NtRp2162
(dp2163
g73
(dp2164
g81
I4
ssg82
g2158
sg75
(lp2165
S'Mozilla/5.0 (X11; Linux i686) AppleWebKit/535.19 (KHTML, like Gecko) Ubuntu/12.04 Chromium/18.0.1025.168 Chrome/18.0.1025.168 Safari/535.19'
p2166
asbasbasbag68
(g84
g70
NtRp2167
(dp2168
g73
(dp2169
sg82
g1786
sg75
(lp2170
g68
(g89
g70
NtRp2171
(dp2172
g73
(dp2173
g93
g94
ssg82
g2167
sg75
(lp2174
S'is_jython'
p2175
asbag68
(g89
g70
NtRp2176
(dp2177
g73
(dp2178
g100
g101
ssg82
g2167
sg75
(lp2179
S':'
asbag68
(g89
g70
NtRp2180
(dp2181
g73
(dp2182
sg82
g2167
sg75
(lp2183
g68
(g69
g70
NtRp2184
(dp2185
g73
(dp2186
g81
I4
ssg82
g2180
sg75
(lp2187
g111
asbasbasbag68
(g84
g70
NtRp2188
(dp2189
g73
(dp2190
sg82
g1786
sg75
(lp2191
g68
(g89
g70
NtRp2192
(dp2193
g73
(dp2194
g93
g94
ssg82
g2188
sg75
(lp2195
S'is_pypy'
p2196
asbag68
(g89
g70
NtRp2197
(dp2198
g73
(dp2199
g100
g101
ssg82
g2188
sg75
(lp2200
S':'
asbag68
(g89
g70
NtRp2201
(dp2202
g73
(dp2203
sg82
g2188
sg75
(lp2204
g68
(g69
g70
NtRp2205
(dp2206
g73
(dp2207
g81
I4
ssg82
g2201
sg75
(lp2208
g111
asbasbasbag68
(g84
g70
NtRp2209
(dp2210
g73
(dp2211
sg82
g1786
sg75
(lp2212
g68
(g89
g70
NtRp2213
(dp2214
g73
(dp2215
g93
g94
ssg82
g2209
sg75
(lp2216
S'path_info'
p2217
asbag68
(g89
g70
NtRp2218
(dp2219
g73
(dp2220
g100
g101
ssg82
g2209
sg75
(lp2221
S':'
asbag68
(g89
g70
NtRp2222
(dp2223
g73
(dp2224
sg82
g2209
sg75
(lp2225
g68
(g69
g70
NtRp2226
(dp2227
g73
(dp2228
g81
I4
ssg82
g2222
sg75
(lp2229
S'/proyecto_webcast/default/index'
p2230
asbasbasbag68
(g84
g70
NtRp2231
(dp2232
g73
(dp2233
sg82
g1786
sg75
(lp2234
g68
(g89
g70
NtRp2235
(dp2236
g73
(dp2237
g93
g94
ssg82
g2231
sg75
(lp2238
S'query_string'
p2239
asbag68
(g89
g70
NtRp2240
(dp2241
g73
(dp2242
g100
g101
ssg82
g2231
sg75
(lp2243
S':'
asbag68
(g89
g70
NtRp2244
(dp2245
g73
(dp2246
sg82
g2231
sg75
(lp2247
g68
(g69
g70
NtRp2248
(dp2249
g73
(dp2250
g81
I4
ssg82
g2244
sg75
(lp2251
S''
asbasbasbag68
(g84
g70
NtRp2252
(dp2253
g73
(dp2254
sg82
g1786
sg75
(lp2255
g68
(g89
g70
NtRp2256
(dp2257
g73
(dp2258
g93
g94
ssg82
g2252
sg75
(lp2259
S'remote_addr'
p2260
asbag68
(g89
g70
NtRp2261
(dp2262
g73
(dp2263
g100
g101
ssg82
g2252
sg75
(lp2264
S':'
asbag68
(g89
g70
NtRp2265
(dp2266
g73
(dp2267
sg82
g2252
sg75
(lp2268
g68
(g69
g70
NtRp2269
(dp2270
g73
(dp2271
g81
I4
ssg82
g2265
sg75
(lp2272
g223
asbasbasbag68
(g84
g70
NtRp2273
(dp2274
g73
(dp2275
sg82
g1786
sg75
(lp2276
g68
(g89
g70
NtRp2277
(dp2278
g73
(dp2279
g93
g94
ssg82
g2273
sg75
(lp2280
S'remote_port'
p2281
asbag68
(g89
g70
NtRp2282
(dp2283
g73
(dp2284
g100
g101
ssg82
g2273
sg75
(lp2285
S':'
asbag68
(g89
g70
NtRp2286
(dp2287
g73
(dp2288
sg82
g2273
sg75
(lp2289
g68
(g69
g70
NtRp2290
(dp2291
g73
(dp2292
g81
I4
ssg82
g2286
sg75
(lp2293
S'35653'
p2294
asbasbasbag68
(g84
g70
NtRp2295
(dp2296
g73
(dp2297
sg82
g1786
sg75
(lp2298
g68
(g89
g70
NtRp2299
(dp2300
g73
(dp2301
g93
g94
ssg82
g2295
sg75
(lp2302
S'request_method'
p2303
asbag68
(g89
g70
NtRp2304
(dp2305
g73
(dp2306
g100
g101
ssg82
g2295
sg75
(lp2307
S':'
asbag68
(g89
g70
NtRp2308
(dp2309
g73
(dp2310
sg82
g2295
sg75
(lp2311
g68
(g69
g70
NtRp2312
(dp2313
g73
(dp2314
g81
I4
ssg82
g2308
sg75
(lp2315
S'GET'
p2316
asbasbasbag68
(g84
g70
NtRp2317
(dp2318
g73
(dp2319
sg82
g1786
sg75
(lp2320
g68
(g89
g70
NtRp2321
(dp2322
g73
(dp2323
g93
g94
ssg82
g2317
sg75
(lp2324
S'request_uri'
p2325
asbag68
(g89
g70
NtRp2326
(dp2327
g73
(dp2328
g100
g101
ssg82
g2317
sg75
(lp2329
S':'
asbag68
(g89
g70
NtRp2330
(dp2331
g73
(dp2332
sg82
g2317
sg75
(lp2333
g68
(g69
g70
NtRp2334
(dp2335
g73
(dp2336
g81
I4
ssg82
g2330
sg75
(lp2337
g2230
asbasbasbag68
(g84
g70
NtRp2338
(dp2339
g73
(dp2340
sg82
g1786
sg75
(lp2341
g68
(g89
g70
NtRp2342
(dp2343
g73
(dp2344
g93
g94
ssg82
g2338
sg75
(lp2345
S'script_name'
p2346
asbag68
(g89
g70
NtRp2347
(dp2348
g73
(dp2349
g100
g101
ssg82
g2338
sg75
(lp2350
S':'
asbag68
(g89
g70
NtRp2351
(dp2352
g73
(dp2353
sg82
g2338
sg75
(lp2354
g68
(g69
g70
NtRp2355
(dp2356
g73
(dp2357
g81
I4
ssg82
g2351
sg75
(lp2358
S''
asbasbasbag68
(g84
g70
NtRp2359
(dp2360
g73
(dp2361
sg82
g1786
sg75
(lp2362
g68
(g89
g70
NtRp2363
(dp2364
g73
(dp2365
g93
g94
ssg82
g2359
sg75
(lp2366
S'server_name'
p2367
asbag68
(g89
g70
NtRp2368
(dp2369
g73
(dp2370
g100
g101
ssg82
g2359
sg75
(lp2371
S':'
asbag68
(g89
g70
NtRp2372
(dp2373
g73
(dp2374
sg82
g2359
sg75
(lp2375
g68
(g69
g70
NtRp2376
(dp2377
g73
(dp2378
g81
I4
ssg82
g2372
sg75
(lp2379
S'emp2web'
p2380
asbasbasbag68
(g84
g70
NtRp2381
(dp2382
g73
(dp2383
sg82
g1786
sg75
(lp2384
g68
(g89
g70
NtRp2385
(dp2386
g73
(dp2387
g93
g94
ssg82
g2381
sg75
(lp2388
S'server_port'
p2389
asbag68
(g89
g70
NtRp2390
(dp2391
g73
(dp2392
g100
g101
ssg82
g2381
sg75
(lp2393
S':'
asbag68
(g89
g70
NtRp2394
(dp2395
g73
(dp2396
sg82
g2381
sg75
(lp2397
g68
(g69
g70
NtRp2398
(dp2399
g73
(dp2400
g81
I4
ssg82
g2394
sg75
(lp2401
S'8000'
p2402
asbasbasbag68
(g84
g70
NtRp2403
(dp2404
g73
(dp2405
sg82
g1786
sg75
(lp2406
g68
(g89
g70
NtRp2407
(dp2408
g73
(dp2409
g93
g94
ssg82
g2403
sg75
(lp2410
S'server_protocol'
p2411
asbag68
(g89
g70
NtRp2412
(dp2413
g73
(dp2414
g100
g101
ssg82
g2403
sg75
(lp2415
S':'
asbag68
(g89
g70
NtRp2416
(dp2417
g73
(dp2418
sg82
g2403
sg75
(lp2419
g68
(g69
g70
NtRp2420
(dp2421
g73
(dp2422
g81
I4
ssg82
g2416
sg75
(lp2423
S'HTTP/1.1'
p2424
asbasbasbag68
(g84
g70
NtRp2425
(dp2426
g73
(dp2427
sg82
g1786
sg75
(lp2428
g68
(g89
g70
NtRp2429
(dp2430
g73
(dp2431
g93
g94
ssg82
g2425
sg75
(lp2432
S'server_software'
p2433
asbag68
(g89
g70
NtRp2434
(dp2435
g73
(dp2436
g100
g101
ssg82
g2425
sg75
(lp2437
S':'
asbag68
(g89
g70
NtRp2438
(dp2439
g73
(dp2440
sg82
g2425
sg75
(lp2441
g68
(g69
g70
NtRp2442
(dp2443
g73
(dp2444
g81
I4
ssg82
g2438
sg75
(lp2445
S'Rocket 1.2.4'
p2446
asbasbasbag68
(g84
g70
NtRp2447
(dp2448
g73
(dp2449
sg82
g1786
sg75
(lp2450
g68
(g89
g70
NtRp2451
(dp2452
g73
(dp2453
g93
g94
ssg82
g2447
sg75
(lp2454
S'web2py_crontype'
p2455
asbag68
(g89
g70
NtRp2456
(dp2457
g73
(dp2458
g100
g101
ssg82
g2447
sg75
(lp2459
S':'
asbag68
(g89
g70
NtRp2460
(dp2461
g73
(dp2462
sg82
g2447
sg75
(lp2463
g68
(g69
g70
NtRp2464
(dp2465
g73
(dp2466
g81
I4
ssg82
g2460
sg75
(lp2467
S'hard'
p2468
asbasbasbag68
(g84
g70
NtRp2469
(dp2470
g73
(dp2471
sg82
g1786
sg75
(lp2472
g68
(g89
g70
NtRp2473
(dp2474
g73
(dp2475
g93
g94
ssg82
g2469
sg75
(lp2476
S'web2py_path'
p2477
asbag68
(g89
g70
NtRp2478
(dp2479
g73
(dp2480
g100
g101
ssg82
g2469
sg75
(lp2481
S':'
asbag68
(g89
g70
NtRp2482
(dp2483
g73
(dp2484
sg82
g2469
sg75
(lp2485
g68
(g69
g70
NtRp2486
(dp2487
g73
(dp2488
g81
I4
ssg82
g2482
sg75
(lp2489
g1833
asbasbasbag68
(g84
g70
NtRp2490
(dp2491
g73
(dp2492
sg82
g1786
sg75
(lp2493
g68
(g89
g70
NtRp2494
(dp2495
g73
(dp2496
g93
g94
ssg82
g2490
sg75
(lp2497
S'web2py_version'
p2498
asbag68
(g89
g70
NtRp2499
(dp2500
g73
(dp2501
g100
g101
ssg82
g2490
sg75
(lp2502
S':'
asbag68
(g89
g70
NtRp2503
(dp2504
g73
(dp2505
sg82
g2490
sg75
(lp2506
g68
(g69
g70
NtRp2507
(dp2508
g73
(dp2509
g81
I4
ssg82
g2503
sg75
(lp2510
g68
(g77
g70
NtRp2511
(dp2512
g73
(dp2513
g81
I3
ssg82
Nsg75
(lp2514
g68
(g84
g70
NtRp2515
(dp2516
g73
(dp2517
sg82
g2511
sg75
(lp2518
g68
(g89
g70
NtRp2519
(dp2520
g73
(dp2521
sg82
g2515
sg75
(lp2522
g68
(g69
g70
NtRp2523
(dp2524
g73
(dp2525
g81
I3
ssg82
g2519
sg75
(lp2526
S'2'
asbasbasbag68
(g84
g70
NtRp2527
(dp2528
g73
(dp2529
sg82
g2511
sg75
(lp2530
g68
(g89
g70
NtRp2531
(dp2532
g73
(dp2533
sg82
g2527
sg75
(lp2534
g68
(g69
g70
NtRp2535
(dp2536
g73
(dp2537
g81
I3
ssg82
g2531
sg75
(lp2538
S'0'
asbasbasbag68
(g84
g70
NtRp2539
(dp2540
g73
(dp2541
sg82
g2511
sg75
(lp2542
g68
(g89
g70
NtRp2543
(dp2544
g73
(dp2545
sg82
g2539
sg75
(lp2546
g68
(g69
g70
NtRp2547
(dp2548
g73
(dp2549
g81
I3
ssg82
g2543
sg75
(lp2550
S'6'
asbasbasbag68
(g84
g70
NtRp2551
(dp2552
g73
(dp2553
sg82
g2511
sg75
(lp2554
g68
(g89
g70
NtRp2555
(dp2556
g73
(dp2557
sg82
g2551
sg75
(lp2558
g68
(g69
g70
NtRp2559
(dp2560
g73
(dp2561
g81
I3
ssg82
g2555
sg75
(lp2562
S'datetime.datetime(2012, 9, 2, 4, 44, 23)'
p2563
asbasbasbag68
(g84
g70
NtRp2564
(dp2565
g73
(dp2566
sg82
g2511
sg75
(lp2567
g68
(g89
g70
NtRp2568
(dp2569
g73
(dp2570
sg82
g2564
sg75
(lp2571
g68
(g69
g70
NtRp2572
(dp2573
g73
(dp2574
g81
I3
ssg82
g2568
sg75
(lp2575
S'stable'
p2576
asbasbasbasbasbasbasbag68
(g84
g70
NtRp2577
(dp2578
g73
(dp2579
sg82
g1786
sg75
(lp2580
g68
(g89
g70
NtRp2581
(dp2582
g73
(dp2583
g93
g94
ssg82
g2577
sg75
(lp2584
S'wsgi_errors'
p2585
asbag68
(g89
g70
NtRp2586
(dp2587
g73
(dp2588
g100
g101
ssg82
g2577
sg75
(lp2589
S':'
asbag68
(g89
g70
NtRp2590
(dp2591
g73
(dp2592
sg82
g2577
sg75
(lp2593
g68
(g69
g70
NtRp2594
(dp2595
g73
(dp2596
g81
I4
ssg82
g2590
sg75
(lp2597
S"<open file '<stderr>', mode 'w' at 0xb73770d0>"
p2598
asbasbasbag68
(g84
g70
NtRp2599
(dp2600
g73
(dp2601
sg82
g1786
sg75
(lp2602
g68
(g89
g70
NtRp2603
(dp2604
g73
(dp2605
g93
g94
ssg82
g2599
sg75
(lp2606
S'wsgi_file_wrapper'
p2607
asbag68
(g89
g70
NtRp2608
(dp2609
g73
(dp2610
g100
g101
ssg82
g2599
sg75
(lp2611
S':'
asbag68
(g89
g70
NtRp2612
(dp2613
g73
(dp2614
sg82
g2599
sg75
(lp2615
g68
(g69
g70
NtRp2616
(dp2617
g73
(dp2618
g81
I4
ssg82
g2612
sg75
(lp2619
S'<class wsgiref.util.FileWrapper at 0x9663fbc>'
p2620
asbasbasbag68
(g84
g70
NtRp2621
(dp2622
g73
(dp2623
sg82
g1786
sg75
(lp2624
g68
(g89
g70
NtRp2625
(dp2626
g73
(dp2627
g93
g94
ssg82
g2621
sg75
(lp2628
S'wsgi_input'
p2629
asbag68
(g89
g70
NtRp2630
(dp2631
g73
(dp2632
g100
g101
ssg82
g2621
sg75
(lp2633
S':'
asbag68
(g89
g70
NtRp2634
(dp2635
g73
(dp2636
sg82
g2621
sg75
(lp2637
g68
(g69
g70
NtRp2638
(dp2639
g73
(dp2640
g81
I4
ssg82
g2634
sg75
(lp2641
S'<socket._fileobject object at 0x9a0ed6c>'
p2642
asbasbasbag68
(g84
g70
NtRp2643
(dp2644
g73
(dp2645
sg82
g1786
sg75
(lp2646
g68
(g89
g70
NtRp2647
(dp2648
g73
(dp2649
g93
g94
ssg82
g2643
sg75
(lp2650
S'wsgi_multiprocess'
p2651
asbag68
(g89
g70
NtRp2652
(dp2653
g73
(dp2654
g100
g101
ssg82
g2643
sg75
(lp2655
S':'
asbag68
(g89
g70
NtRp2656
(dp2657
g73
(dp2658
sg82
g2643
sg75
(lp2659
g68
(g69
g70
NtRp2660
(dp2661
g73
(dp2662
g81
I4
ssg82
g2656
sg75
(lp2663
g111
asbasbasbag68
(g84
g70
NtRp2664
(dp2665
g73
(dp2666
sg82
g1786
sg75
(lp2667
g68
(g89
g70
NtRp2668
(dp2669
g73
(dp2670
g93
g94
ssg82
g2664
sg75
(lp2671
S'wsgi_multithread'
p2672
asbag68
(g89
g70
NtRp2673
(dp2674
g73
(dp2675
g100
g101
ssg82
g2664
sg75
(lp2676
S':'
asbag68
(g89
g70
NtRp2677
(dp2678
g73
(dp2679
sg82
g2664
sg75
(lp2680
g68
(g69
g70
NtRp2681
(dp2682
g73
(dp2683
g81
I4
ssg82
g2677
sg75
(lp2684
g1924
asbasbasbag68
(g84
g70
NtRp2685
(dp2686
g73
(dp2687
sg82
g1786
sg75
(lp2688
g68
(g89
g70
NtRp2689
(dp2690
g73
(dp2691
g93
g94
ssg82
g2685
sg75
(lp2692
S'wsgi_run_once'
p2693
asbag68
(g89
g70
NtRp2694
(dp2695
g73
(dp2696
g100
g101
ssg82
g2685
sg75
(lp2697
S':'
asbag68
(g89
g70
NtRp2698
(dp2699
g73
(dp2700
sg82
g2685
sg75
(lp2701
g68
(g69
g70
NtRp2702
(dp2703
g73
(dp2704
g81
I4
ssg82
g2698
sg75
(lp2705
g111
asbasbasbag68
(g84
g70
NtRp2706
(dp2707
g73
(dp2708
sg82
g1786
sg75
(lp2709
g68
(g89
g70
NtRp2710
(dp2711
g73
(dp2712
g93
g94
ssg82
g2706
sg75
(lp2713
S'wsgi_url_scheme'
p2714
asbag68
(g89
g70
NtRp2715
(dp2716
g73
(dp2717
g100
g101
ssg82
g2706
sg75
(lp2718
S':'
asbag68
(g89
g70
NtRp2719
(dp2720
g73
(dp2721
sg82
g2706
sg75
(lp2722
g68
(g69
g70
NtRp2723
(dp2724
g73
(dp2725
g81
I4
ssg82
g2719
sg75
(lp2726
S'http'
p2727
asbasbasbag68
(g84
g70
NtRp2728
(dp2729
g73
(dp2730
sg82
g1786
sg75
(lp2731
g68
(g89
g70
NtRp2732
(dp2733
g73
(dp2734
g93
g94
ssg82
g2728
sg75
(lp2735
S'wsgi_version'
p2736
asbag68
(g89
g70
NtRp2737
(dp2738
g73
(dp2739
g100
g101
ssg82
g2728
sg75
(lp2740
S':'
asbag68
(g89
g70
NtRp2741
(dp2742
g73
(dp2743
sg82
g2728
sg75
(lp2744
g68
(g69
g70
NtRp2745
(dp2746
g73
(dp2747
g81
I4
ssg82
g2741
sg75
(lp2748
g68
(g77
g70
NtRp2749
(dp2750
g73
(dp2751
g81
I3
ssg82
Nsg75
(lp2752
g68
(g84
g70
NtRp2753
(dp2754
g73
(dp2755
sg82
g2749
sg75
(lp2756
g68
(g89
g70
NtRp2757
(dp2758
g73
(dp2759
sg82
g2753
sg75
(lp2760
g68
(g69
g70
NtRp2761
(dp2762
g73
(dp2763
g81
I3
ssg82
g2757
sg75
(lp2764
S'1'
asbasbasbag68
(g84
g70
NtRp2765
(dp2766
g73
(dp2767
sg82
g2749
sg75
(lp2768
g68
(g89
g70
NtRp2769
(dp2770
g73
(dp2771
sg82
g2765
sg75
(lp2772
g68
(g69
g70
NtRp2773
(dp2774
g73
(dp2775
g81
I3
ssg82
g2769
sg75
(lp2776
S'0'
asbasbasbasbasbasbasbasbasbasbasbag68
(g84
g70
NtRp2777
(dp2778
g73
(dp2779
sg82
g78
sg75
(lp2780
g68
(g89
g70
NtRp2781
(dp2782
g73
(dp2783
g93
g94
ssg82
g2777
sg75
(lp2784
S'extension'
p2785
asbag68
(g89
g70
NtRp2786
(dp2787
g73
(dp2788
g100
g101
ssg82
g2777
sg75
(lp2789
S':'
asbag68
(g89
g70
NtRp2790
(dp2791
g73
(dp2792
sg82
g2777
sg75
(lp2793
g68
(g69
g70
NtRp2794
(dp2795
g73
(dp2796
g81
I5
ssg82
g2790
sg75
(lp2797
S'html'
p2798
asbasbasbag68
(g84
g70
NtRp2799
(dp2800
g73
(dp2801
sg82
g78
sg75
(lp2802
g68
(g89
g70
NtRp2803
(dp2804
g73
(dp2805
g93
g94
ssg82
g2799
sg75
(lp2806
S'folder'
p2807
asbag68
(g89
g70
NtRp2808
(dp2809
g73
(dp2810
g100
g101
ssg82
g2799
sg75
(lp2811
S':'
asbag68
(g89
g70
NtRp2812
(dp2813
g73
(dp2814
sg82
g2799
sg75
(lp2815
g68
(g69
g70
NtRp2816
(dp2817
g73
(dp2818
g81
I5
ssg82
g2812
sg75
(lp2819
S'/home/emp2web/ejecutar/web2py/applications/proyecto_webcast/'
p2820
asbasbasbag68
(g84
g70
NtRp2821
(dp2822
g73
(dp2823
sg82
g78
sg75
(lp2824
g68
(g89
g70
NtRp2825
(dp2826
g73
(dp2827
g93
g94
ssg82
g2821
sg75
(lp2828
S'function'
p2829
asbag68
(g89
g70
NtRp2830
(dp2831
g73
(dp2832
g100
g101
ssg82
g2821
sg75
(lp2833
S':'
asbag68
(g89
g70
NtRp2834
(dp2835
g73
(dp2836
sg82
g2821
sg75
(lp2837
g68
(g69
g70
NtRp2838
(dp2839
g73
(dp2840
g81
I5
ssg82
g2834
sg75
(lp2841
S'index'
p2842
asbasbasbag68
(g84
g70
NtRp2843
(dp2844
g73
(dp2845
sg82
g78
sg75
(lp2846
g68
(g89
g70
NtRp2847
(dp2848
g73
(dp2849
g93
g94
ssg82
g2843
sg75
(lp2850
S'get_vars'
p2851
asbag68
(g89
g70
NtRp2852
(dp2853
g73
(dp2854
g100
g101
ssg82
g2843
sg75
(lp2855
S':'
asbag68
(g89
g70
NtRp2856
(dp2857
g73
(dp2858
sg82
g2843
sg75
(lp2859
g68
(g69
g70
NtRp2860
(dp2861
g73
(dp2862
g81
I5
ssg82
g2856
sg75
(lp2863
g68
(g77
g70
NtRp2864
(dp2865
g73
(dp2866
g81
I4
ssg82
Nsg75
(lp2867
sbasbasbasbag68
(g84
g70
NtRp2868
(dp2869
g73
(dp2870
sg82
g78
sg75
(lp2871
g68
(g89
g70
NtRp2872
(dp2873
g73
(dp2874
g93
g94
ssg82
g2868
sg75
(lp2875
S'global_settings'
p2876
asbag68
(g89
g70
NtRp2877
(dp2878
g73
(dp2879
g100
g101
ssg82
g2868
sg75
(lp2880
S':'
asbag68
(g89
g70
NtRp2881
(dp2882
g73
(dp2883
sg82
g2868
sg75
(lp2884
g68
(g69
g70
NtRp2885
(dp2886
g73
(dp2887
g81
I5
ssg82
g2881
sg75
(lp2888
g68
(g77
g70
NtRp2889
(dp2890
g73
(dp2891
g81
I4
ssg82
Nsg75
(lp2892
g68
(g84
g70
NtRp2893
(dp2894
g73
(dp2895
sg82
g2889
sg75
(lp2896
g68
(g89
g70
NtRp2897
(dp2898
g73
(dp2899
g93
g94
ssg82
g2893
sg75
(lp2900
g1798
asbag68
(g89
g70
NtRp2901
(dp2902
g73
(dp2903
g100
g101
ssg82
g2893
sg75
(lp2904
S':'
asbag68
(g89
g70
NtRp2905
(dp2906
g73
(dp2907
sg82
g2893
sg75
(lp2908
g68
(g69
g70
NtRp2909
(dp2910
g73
(dp2911
g81
I4
ssg82
g2905
sg75
(lp2912
S"set(['/home/emp2web/ejecutar/web2py/applications/welcome/', '/home/emp2web/ejecutar/web2py/applications/admin/', '/home/emp2web/ejecutar/web2py/applications/proyecto_webcast/', '/home/emp2web/ejecutar/web2py/applications/saaf/', '/home/emp2web/ejecutar/web2py/applications/saaf_or/', '/home/emp2web/ejecutar/web2py/applications/examples/'])"
p2913
asbasbasbag68
(g84
g70
NtRp2914
(dp2915
g73
(dp2916
sg82
g2889
sg75
(lp2917
g68
(g89
g70
NtRp2918
(dp2919
g73
(dp2920
g93
g94
ssg82
g2914
sg75
(lp2921
g1820
asbag68
(g89
g70
NtRp2922
(dp2923
g73
(dp2924
g100
g101
ssg82
g2914
sg75
(lp2925
S':'
asbag68
(g89
g70
NtRp2926
(dp2927
g73
(dp2928
sg82
g2914
sg75
(lp2929
g68
(g69
g70
NtRp2930
(dp2931
g73
(dp2932
g81
I4
ssg82
g2926
sg75
(lp2933
g1833
asbasbasbag68
(g84
g70
NtRp2934
(dp2935
g73
(dp2936
sg82
g2889
sg75
(lp2937
g68
(g89
g70
NtRp2938
(dp2939
g73
(dp2940
g93
g94
ssg82
g2934
sg75
(lp2941
g1842
asbag68
(g89
g70
NtRp2942
(dp2943
g73
(dp2944
g100
g101
ssg82
g2934
sg75
(lp2945
S':'
asbag68
(g89
g70
NtRp2946
(dp2947
g73
(dp2948
sg82
g2934
sg75
(lp2949
g68
(g69
g70
NtRp2950
(dp2951
g73
(dp2952
g81
I4
ssg82
g2946
sg75
(lp2953
g68
(g77
g70
NtRp2954
(dp2955
g73
(dp2956
g81
I3
ssg82
Nsg75
(lp2957
sbasbasbasbag68
(g84
g70
NtRp2958
(dp2959
g73
(dp2960
sg82
g2889
sg75
(lp2961
g68
(g89
g70
NtRp2962
(dp2963
g73
(dp2964
g93
g94
ssg82
g2958
sg75
(lp2965
g1867
asbag68
(g89
g70
NtRp2966
(dp2967
g73
(dp2968
g100
g101
ssg82
g2958
sg75
(lp2969
S':'
asbag68
(g89
g70
NtRp2970
(dp2971
g73
(dp2972
sg82
g2958
sg75
(lp2973
g68
(g69
g70
NtRp2974
(dp2975
g73
(dp2976
g81
I4
ssg82
g2970
sg75
(lp2977
S"<Values at 0x96abd4c: {'verbose': False, 'ip': '127.0.0.1', 'with_scheduler': False, 'ips': [], 'shutdown_timeout': 5, 'taskbar': False, 'port': 8000, 'maxthreads': None, 'softcron': False, 'server_name': 'emp2web', 'bpython': False, 'nogui': False, 'nocron': False, 'extcron': False, 'run_system_tests': False, 'test': None, 'folder': '/home/emp2web/ejecutar/web2py', 'config': '', 'import_models': False, 'winservice': '', 'shell': None, 'run': '', 'log_filename': 'httpserver.log', 'debuglevel': 30, 'args': [''], 'socket_timeout': 5, 'ssl_ca_certificate': None, 'scheduler': None, 'profiler_filename': None, 'ssl_private_key': '', 'scheduler_groups': None, 'password': 'admin', 'request_queue_size': 5, 'ssl_certificate': '', 'cronjob': False, 'numthreads': None, 'quiet': False, 'interfaces': None, 'minthreads': None, 'timeout': 10, 'plain': False, 'nobanner': False, 'pid_filename': 'httpserver.pid'}>"
p2978
asbasbasbag68
(g84
g70
NtRp2979
(dp2980
g73
(dp2981
sg82
g2889
sg75
(lp2982
g68
(g89
g70
NtRp2983
(dp2984
g73
(dp2985
g93
g94
ssg82
g2979
sg75
(lp2986
g1889
asbag68
(g89
g70
NtRp2987
(dp2988
g73
(dp2989
g100
g101
ssg82
g2979
sg75
(lp2990
S':'
asbag68
(g89
g70
NtRp2991
(dp2992
g73
(dp2993
sg82
g2979
sg75
(lp2994
g68
(g69
g70
NtRp2995
(dp2996
g73
(dp2997
g81
I4
ssg82
g2991
sg75
(lp2998
S'set([])'
p2999
asbasbasbag68
(g84
g70
NtRp3000
(dp3001
g73
(dp3002
sg82
g2889
sg75
(lp3003
g68
(g89
g70
NtRp3004
(dp3005
g73
(dp3006
g93
g94
ssg82
g3000
sg75
(lp3007
g1911
asbag68
(g89
g70
NtRp3008
(dp3009
g73
(dp3010
g100
g101
ssg82
g3000
sg75
(lp3011
S':'
asbag68
(g89
g70
NtRp3012
(dp3013
g73
(dp3014
sg82
g3000
sg75
(lp3015
g68
(g69
g70
NtRp3016
(dp3017
g73
(dp3018
g81
I4
ssg82
g3012
sg75
(lp3019
g1924
asbasbasbag68
(g84
g70
NtRp3020
(dp3021
g73
(dp3022
sg82
g2889
sg75
(lp3023
g68
(g89
g70
NtRp3024
(dp3025
g73
(dp3026
g93
g94
ssg82
g3020
sg75
(lp3027
g1933
asbag68
(g89
g70
NtRp3028
(dp3029
g73
(dp3030
g100
g101
ssg82
g3020
sg75
(lp3031
S':'
asbag68
(g89
g70
NtRp3032
(dp3033
g73
(dp3034
sg82
g3020
sg75
(lp3035
g68
(g69
g70
NtRp3036
(dp3037
g73
(dp3038
g81
I4
ssg82
g3032
sg75
(lp3039
g1946
asbasbasbag68
(g84
g70
NtRp3040
(dp3041
g73
(dp3042
sg82
g2889
sg75
(lp3043
g68
(g89
g70
NtRp3044
(dp3045
g73
(dp3046
g93
g94
ssg82
g3040
sg75
(lp3047
g2175
asbag68
(g89
g70
NtRp3048
(dp3049
g73
(dp3050
g100
g101
ssg82
g3040
sg75
(lp3051
S':'
asbag68
(g89
g70
NtRp3052
(dp3053
g73
(dp3054
sg82
g3040
sg75
(lp3055
g68
(g69
g70
NtRp3056
(dp3057
g73
(dp3058
g81
I4
ssg82
g3052
sg75
(lp3059
g111
asbasbasbag68
(g84
g70
NtRp3060
(dp3061
g73
(dp3062
sg82
g2889
sg75
(lp3063
g68
(g89
g70
NtRp3064
(dp3065
g73
(dp3066
g93
g94
ssg82
g3060
sg75
(lp3067
g2196
asbag68
(g89
g70
NtRp3068
(dp3069
g73
(dp3070
g100
g101
ssg82
g3060
sg75
(lp3071
S':'
asbag68
(g89
g70
NtRp3072
(dp3073
g73
(dp3074
sg82
g3060
sg75
(lp3075
g68
(g69
g70
NtRp3076
(dp3077
g73
(dp3078
g81
I4
ssg82
g3072
sg75
(lp3079
g111
asbasbasbag68
(g84
g70
NtRp3080
(dp3081
g73
(dp3082
sg82
g2889
sg75
(lp3083
g68
(g89
g70
NtRp3084
(dp3085
g73
(dp3086
g93
g94
ssg82
g3080
sg75
(lp3087
g2455
asbag68
(g89
g70
NtRp3088
(dp3089
g73
(dp3090
g100
g101
ssg82
g3080
sg75
(lp3091
S':'
asbag68
(g89
g70
NtRp3092
(dp3093
g73
(dp3094
sg82
g3080
sg75
(lp3095
g68
(g69
g70
NtRp3096
(dp3097
g73
(dp3098
g81
I4
ssg82
g3092
sg75
(lp3099
g2468
asbasbasbag68
(g84
g70
NtRp3100
(dp3101
g73
(dp3102
sg82
g2889
sg75
(lp3103
g68
(g89
g70
NtRp3104
(dp3105
g73
(dp3106
g93
g94
ssg82
g3100
sg75
(lp3107
g2498
asbag68
(g89
g70
NtRp3108
(dp3109
g73
(dp3110
g100
g101
ssg82
g3100
sg75
(lp3111
S':'
asbag68
(g89
g70
NtRp3112
(dp3113
g73
(dp3114
sg82
g3100
sg75
(lp3115
g68
(g69
g70
NtRp3116
(dp3117
g73
(dp3118
g81
I4
ssg82
g3112
sg75
(lp3119
g68
(g77
g70
NtRp3120
(dp3121
g73
(dp3122
g81
I3
ssg82
Nsg75
(lp3123
g68
(g84
g70
NtRp3124
(dp3125
g73
(dp3126
sg82
g3120
sg75
(lp3127
g68
(g89
g70
NtRp3128
(dp3129
g73
(dp3130
sg82
g3124
sg75
(lp3131
g68
(g69
g70
NtRp3132
(dp3133
g73
(dp3134
g81
I3
ssg82
g3128
sg75
(lp3135
S'2'
asbasbasbag68
(g84
g70
NtRp3136
(dp3137
g73
(dp3138
sg82
g3120
sg75
(lp3139
g68
(g89
g70
NtRp3140
(dp3141
g73
(dp3142
sg82
g3136
sg75
(lp3143
g68
(g69
g70
NtRp3144
(dp3145
g73
(dp3146
g81
I3
ssg82
g3140
sg75
(lp3147
S'0'
asbasbasbag68
(g84
g70
NtRp3148
(dp3149
g73
(dp3150
sg82
g3120
sg75
(lp3151
g68
(g89
g70
NtRp3152
(dp3153
g73
(dp3154
sg82
g3148
sg75
(lp3155
g68
(g69
g70
NtRp3156
(dp3157
g73
(dp3158
g81
I3
ssg82
g3152
sg75
(lp3159
S'6'
asbasbasbag68
(g84
g70
NtRp3160
(dp3161
g73
(dp3162
sg82
g3120
sg75
(lp3163
g68
(g89
g70
NtRp3164
(dp3165
g73
(dp3166
sg82
g3160
sg75
(lp3167
g68
(g69
g70
NtRp3168
(dp3169
g73
(dp3170
g81
I3
ssg82
g3164
sg75
(lp3171
S'datetime.datetime(2012, 9, 2, 4, 44, 23)'
p3172
asbasbasbag68
(g84
g70
NtRp3173
(dp3174
g73
(dp3175
sg82
g3120
sg75
(lp3176
g68
(g89
g70
NtRp3177
(dp3178
g73
(dp3179
sg82
g3173
sg75
(lp3180
g68
(g69
g70
NtRp3181
(dp3182
g73
(dp3183
g81
I3
ssg82
g3177
sg75
(lp3184
g2576
asbasbasbasbasbasbasbasbasbasbasbag68
(g84
g70
NtRp3185
(dp3186
g73
(dp3187
sg82
g78
sg75
(lp3188
g68
(g89
g70
NtRp3189
(dp3190
g73
(dp3191
g93
g94
ssg82
g3185
sg75
(lp3192
S'is_https'
p3193
asbag68
(g89
g70
NtRp3194
(dp3195
g73
(dp3196
g100
g101
ssg82
g3185
sg75
(lp3197
S':'
asbag68
(g89
g70
NtRp3198
(dp3199
g73
(dp3200
sg82
g3185
sg75
(lp3201
g68
(g69
g70
NtRp3202
(dp3203
g73
(dp3204
g81
I5
ssg82
g3198
sg75
(lp3205
g111
asbasbasbag68
(g84
g70
NtRp3206
(dp3207
g73
(dp3208
sg82
g78
sg75
(lp3209
g68
(g89
g70
NtRp3210
(dp3211
g73
(dp3212
g93
g94
ssg82
g3206
sg75
(lp3213
S'is_local'
p3214
asbag68
(g89
g70
NtRp3215
(dp3216
g73
(dp3217
g100
g101
ssg82
g3206
sg75
(lp3218
S':'
asbag68
(g89
g70
NtRp3219
(dp3220
g73
(dp3221
sg82
g3206
sg75
(lp3222
g68
(g69
g70
NtRp3223
(dp3224
g73
(dp3225
g81
I5
ssg82
g3219
sg75
(lp3226
g1924
asbasbasbag68
(g84
g70
NtRp3227
(dp3228
g73
(dp3229
sg82
g78
sg75
(lp3230
g68
(g89
g70
NtRp3231
(dp3232
g73
(dp3233
g93
g94
ssg82
g3227
sg75
(lp3234
S'is_restful'
p3235
asbag68
(g89
g70
NtRp3236
(dp3237
g73
(dp3238
g100
g101
ssg82
g3227
sg75
(lp3239
S':'
asbag68
(g89
g70
NtRp3240
(dp3241
g73
(dp3242
sg82
g3227
sg75
(lp3243
g68
(g69
g70
NtRp3244
(dp3245
g73
(dp3246
g81
I5
ssg82
g3240
sg75
(lp3247
g111
asbasbasbag68
(g84
g70
NtRp3248
(dp3249
g73
(dp3250
sg82
g78
sg75
(lp3251
g68
(g89
g70
NtRp3252
(dp3253
g73
(dp3254
g93
g94
ssg82
g3248
sg75
(lp3255
S'now'
p3256
asbag68
(g89
g70
NtRp3257
(dp3258
g73
(dp3259
g100
g101
ssg82
g3248
sg75
(lp3260
S':'
asbag68
(g89
g70
NtRp3261
(dp3262
g73
(dp3263
sg82
g3248
sg75
(lp3264
g68
(g69
g70
NtRp3265
(dp3266
g73
(dp3267
g81
I5
ssg82
g3261
sg75
(lp3268
S'datetime.datetime(2012, 9, 13, 2, 55, 0, 41072)'
p3269
asbasbasbag68
(g84
g70
NtRp3270
(dp3271
g73
(dp3272
sg82
g78
sg75
(lp3273
g68
(g89
g70
NtRp3274
(dp3275
g73
(dp3276
g93
g94
ssg82
g3270
sg75
(lp3277
S'post_vars'
p3278
asbag68
(g89
g70
NtRp3279
(dp3280
g73
(dp3281
g100
g101
ssg82
g3270
sg75
(lp3282
S':'
asbag68
(g89
g70
NtRp3283
(dp3284
g73
(dp3285
sg82
g3270
sg75
(lp3286
g68
(g69
g70
NtRp3287
(dp3288
g73
(dp3289
g81
I5
ssg82
g3283
sg75
(lp3290
g68
(g77
g70
NtRp3291
(dp3292
g73
(dp3293
g81
I4
ssg82
Nsg75
(lp3294
sbasbasbasbag68
(g84
g70
NtRp3295
(dp3296
g73
(dp3297
sg82
g78
sg75
(lp3298
g68
(g89
g70
NtRp3299
(dp3300
g73
(dp3301
g93
g94
ssg82
g3295
sg75
(lp3302
S'raw_args'
p3303
asbag68
(g89
g70
NtRp3304
(dp3305
g73
(dp3306
g100
g101
ssg82
g3295
sg75
(lp3307
S':'
asbag68
(g89
g70
NtRp3308
(dp3309
g73
(dp3310
sg82
g3295
sg75
(lp3311
g68
(g69
g70
NtRp3312
(dp3313
g73
(dp3314
g81
I5
ssg82
g3308
sg75
(lp3315
S'None'
p3316
asbasbasbag68
(g84
g70
NtRp3317
(dp3318
g73
(dp3319
sg82
g78
sg75
(lp3320
g68
(g89
g70
NtRp3321
(dp3322
g73
(dp3323
g93
g94
ssg82
g3317
sg75
(lp3324
S'raw_extension'
p3325
asbag68
(g89
g70
NtRp3326
(dp3327
g73
(dp3328
g100
g101
ssg82
g3317
sg75
(lp3329
S':'
asbag68
(g89
g70
NtRp3330
(dp3331
g73
(dp3332
sg82
g3317
sg75
(lp3333
g68
(g69
g70
NtRp3334
(dp3335
g73
(dp3336
g81
I5
ssg82
g3330
sg75
(lp3337
S'None'
p3338
asbasbasbag68
(g84
g70
NtRp3339
(dp3340
g73
(dp3341
sg82
g78
sg75
(lp3342
g68
(g89
g70
NtRp3343
(dp3344
g73
(dp3345
g93
g94
ssg82
g3339
sg75
(lp3346
S'url'
p3347
asbag68
(g89
g70
NtRp3348
(dp3349
g73
(dp3350
g100
g101
ssg82
g3339
sg75
(lp3351
S':'
asbag68
(g89
g70
NtRp3352
(dp3353
g73
(dp3354
sg82
g3339
sg75
(lp3355
g68
(g69
g70
NtRp3356
(dp3357
g73
(dp3358
g81
I5
ssg82
g3352
sg75
(lp3359
S'/proyecto_webcast/default/index'
p3360
asbasbasbag68
(g84
g70
NtRp3361
(dp3362
g73
(dp3363
sg82
g78
sg75
(lp3364
g68
(g89
g70
NtRp3365
(dp3366
g73
(dp3367
g93
g94
ssg82
g3361
sg75
(lp3368
S'utcnow'
p3369
asbag68
(g89
g70
NtRp3370
(dp3371
g73
(dp3372
g100
g101
ssg82
g3361
sg75
(lp3373
S':'
asbag68
(g89
g70
NtRp3374
(dp3375
g73
(dp3376
sg82
g3361
sg75
(lp3377
g68
(g69
g70
NtRp3378
(dp3379
g73
(dp3380
g81
I5
ssg82
g3374
sg75
(lp3381
S'datetime.datetime(2012, 9, 13, 7, 55, 0, 41125)'
p3382
asbasbasbag68
(g84
g70
NtRp3383
(dp3384
g73
(dp3385
sg82
g78
sg75
(lp3386
g68
(g89
g70
NtRp3387
(dp3388
g73
(dp3389
g93
g94
ssg82
g3383
sg75
(lp3390
S'uuid'
p3391
asbag68
(g89
g70
NtRp3392
(dp3393
g73
(dp3394
g100
g101
ssg82
g3383
sg75
(lp3395
S':'
asbag68
(g89
g70
NtRp3396
(dp3397
g73
(dp3398
sg82
g3383
sg75
(lp3399
g68
(g69
g70
NtRp3400
(dp3401
g73
(dp3402
g81
I5
ssg82
g3396
sg75
(lp3403
S'proyecto_webcast/127.0.0.1.2012-09-13.02-55-00.f1db9158-a28d-407f-8eb5-9e6a2969c426'
p3404
asbasbasbag68
(g84
g70
NtRp3405
(dp3406
g73
(dp3407
sg82
g78
sg75
(lp3408
g68
(g89
g70
NtRp3409
(dp3410
g73
(dp3411
g93
g94
ssg82
g3405
sg75
(lp3412
S'vars'
p3413
asbag68
(g89
g70
NtRp3414
(dp3415
g73
(dp3416
g100
g101
ssg82
g3405
sg75
(lp3417
S':'
asbag68
(g89
g70
NtRp3418
(dp3419
g73
(dp3420
sg82
g3405
sg75
(lp3421
g68
(g69
g70
NtRp3422
(dp3423
g73
(dp3424
g81
I5
ssg82
g3418
sg75
(lp3425
g68
(g77
g70
NtRp3426
(dp3427
g73
(dp3428
g81
I4
ssg82
Nsg75
(lp3429
sbasbasbasbag68
(g84
g70
NtRp3430
(dp3431
g73
(dp3432
sg82
g78
sg75
(lp3433
g68
(g89
g70
NtRp3434
(dp3435
g73
(dp3436
g93
g94
ssg82
g3430
sg75
(lp3437
S'wsgi'
p3438
asbag68
(g89
g70
NtRp3439
(dp3440
g73
(dp3441
g100
g101
ssg82
g3430
sg75
(lp3442
S':'
asbag68
(g89
g70
NtRp3443
(dp3444
g73
(dp3445
sg82
g3430
sg75
(lp3446
g68
(g69
g70
NtRp3447
(dp3448
g73
(dp3449
g81
I5
ssg82
g3443
sg75
(lp3450
g68
(g77
g70
NtRp3451
(dp3452
g73
(dp3453
g81
I4
ssg82
Nsg75
(lp3454
g68
(g84
g70
NtRp3455
(dp3456
g73
(dp3457
sg82
g3451
sg75
(lp3458
g68
(g89
g70
NtRp3459
(dp3460
g73
(dp3461
g93
g94
ssg82
g3455
sg75
(lp3462
S'environ'
p3463
asbag68
(g89
g70
NtRp3464
(dp3465
g73
(dp3466
g100
g101
ssg82
g3455
sg75
(lp3467
S':'
asbag68
(g89
g70
NtRp3468
(dp3469
g73
(dp3470
sg82
g3455
sg75
(lp3471
g68
(g69
g70
NtRp3472
(dp3473
g73
(dp3474
g81
I4
ssg82
g3468
sg75
(lp3475
g68
(g77
g70
NtRp3476
(dp3477
g73
(dp3478
g81
I3
ssg82
Nsg75
(lp3479
g68
(g84
g70
NtRp3480
(dp3481
g73
(dp3482
sg82
g3476
sg75
(lp3483
g68
(g89
g70
NtRp3484
(dp3485
g73
(dp3486
g93
g94
ssg82
g3480
sg75
(lp3487
S'HTTP_ACCEPT'
p3488
asbag68
(g89
g70
NtRp3489
(dp3490
g73
(dp3491
g100
g101
ssg82
g3480
sg75
(lp3492
S':'
asbag68
(g89
g70
NtRp3493
(dp3494
g73
(dp3495
sg82
g3480
sg75
(lp3496
g68
(g69
g70
NtRp3497
(dp3498
g73
(dp3499
g81
I3
ssg82
g3493
sg75
(lp3500
g1968
asbasbasbag68
(g84
g70
NtRp3501
(dp3502
g73
(dp3503
sg82
g3476
sg75
(lp3504
g68
(g89
g70
NtRp3505
(dp3506
g73
(dp3507
g93
g94
ssg82
g3501
sg75
(lp3508
S'HTTP_ACCEPT_CHARSET'
p3509
asbag68
(g89
g70
NtRp3510
(dp3511
g73
(dp3512
g100
g101
ssg82
g3501
sg75
(lp3513
S':'
asbag68
(g89
g70
NtRp3514
(dp3515
g73
(dp3516
sg82
g3501
sg75
(lp3517
g68
(g69
g70
NtRp3518
(dp3519
g73
(dp3520
g81
I3
ssg82
g3514
sg75
(lp3521
g1990
asbasbasbag68
(g84
g70
NtRp3522
(dp3523
g73
(dp3524
sg82
g3476
sg75
(lp3525
g68
(g89
g70
NtRp3526
(dp3527
g73
(dp3528
g93
g94
ssg82
g3522
sg75
(lp3529
S'HTTP_ACCEPT_ENCODING'
p3530
asbag68
(g89
g70
NtRp3531
(dp3532
g73
(dp3533
g100
g101
ssg82
g3522
sg75
(lp3534
S':'
asbag68
(g89
g70
NtRp3535
(dp3536
g73
(dp3537
sg82
g3522
sg75
(lp3538
g68
(g69
g70
NtRp3539
(dp3540
g73
(dp3541
g81
I3
ssg82
g3535
sg75
(lp3542
g2012
asbasbasbag68
(g84
g70
NtRp3543
(dp3544
g73
(dp3545
sg82
g3476
sg75
(lp3546
g68
(g89
g70
NtRp3547
(dp3548
g73
(dp3549
g93
g94
ssg82
g3543
sg75
(lp3550
S'HTTP_ACCEPT_LANGUAGE'
p3551
asbag68
(g89
g70
NtRp3552
(dp3553
g73
(dp3554
g100
g101
ssg82
g3543
sg75
(lp3555
S':'
asbag68
(g89
g70
NtRp3556
(dp3557
g73
(dp3558
sg82
g3543
sg75
(lp3559
g68
(g69
g70
NtRp3560
(dp3561
g73
(dp3562
g81
I3
ssg82
g3556
sg75
(lp3563
g2034
asbasbasbag68
(g84
g70
NtRp3564
(dp3565
g73
(dp3566
sg82
g3476
sg75
(lp3567
g68
(g89
g70
NtRp3568
(dp3569
g73
(dp3570
g93
g94
ssg82
g3564
sg75
(lp3571
S'HTTP_CACHE_CONTROL'
p3572
asbag68
(g89
g70
NtRp3573
(dp3574
g73
(dp3575
g100
g101
ssg82
g3564
sg75
(lp3576
S':'
asbag68
(g89
g70
NtRp3577
(dp3578
g73
(dp3579
sg82
g3564
sg75
(lp3580
g68
(g69
g70
NtRp3581
(dp3582
g73
(dp3583
g81
I3
ssg82
g3577
sg75
(lp3584
g2056
asbasbasbag68
(g84
g70
NtRp3585
(dp3586
g73
(dp3587
sg82
g3476
sg75
(lp3588
g68
(g89
g70
NtRp3589
(dp3590
g73
(dp3591
g93
g94
ssg82
g3585
sg75
(lp3592
S'HTTP_CONNECTION'
p3593
asbag68
(g89
g70
NtRp3594
(dp3595
g73
(dp3596
g100
g101
ssg82
g3585
sg75
(lp3597
S':'
asbag68
(g89
g70
NtRp3598
(dp3599
g73
(dp3600
sg82
g3585
sg75
(lp3601
g68
(g69
g70
NtRp3602
(dp3603
g73
(dp3604
g81
I3
ssg82
g3598
sg75
(lp3605
g2078
asbasbasbag68
(g84
g70
NtRp3606
(dp3607
g73
(dp3608
sg82
g3476
sg75
(lp3609
g68
(g89
g70
NtRp3610
(dp3611
g73
(dp3612
g93
g94
ssg82
g3606
sg75
(lp3613
S'HTTP_COOKIE'
p3614
asbag68
(g89
g70
NtRp3615
(dp3616
g73
(dp3617
g100
g101
ssg82
g3606
sg75
(lp3618
S':'
asbag68
(g89
g70
NtRp3619
(dp3620
g73
(dp3621
sg82
g3606
sg75
(lp3622
g68
(g69
g70
NtRp3623
(dp3624
g73
(dp3625
g81
I3
ssg82
g3619
sg75
(lp3626
g2100
asbasbasbag68
(g84
g70
NtRp3627
(dp3628
g73
(dp3629
sg82
g3476
sg75
(lp3630
g68
(g89
g70
NtRp3631
(dp3632
g73
(dp3633
g93
g94
ssg82
g3627
sg75
(lp3634
S'HTTP_HOST'
p3635
asbag68
(g89
g70
NtRp3636
(dp3637
g73
(dp3638
g100
g101
ssg82
g3627
sg75
(lp3639
S':'
asbag68
(g89
g70
NtRp3640
(dp3641
g73
(dp3642
sg82
g3627
sg75
(lp3643
g68
(g69
g70
NtRp3644
(dp3645
g73
(dp3646
g81
I3
ssg82
g3640
sg75
(lp3647
g2122
asbasbasbag68
(g84
g70
NtRp3648
(dp3649
g73
(dp3650
sg82
g3476
sg75
(lp3651
g68
(g89
g70
NtRp3652
(dp3653
g73
(dp3654
g93
g94
ssg82
g3648
sg75
(lp3655
S'HTTP_REFERER'
p3656
asbag68
(g89
g70
NtRp3657
(dp3658
g73
(dp3659
g100
g101
ssg82
g3648
sg75
(lp3660
S':'
asbag68
(g89
g70
NtRp3661
(dp3662
g73
(dp3663
sg82
g3648
sg75
(lp3664
g68
(g69
g70
NtRp3665
(dp3666
g73
(dp3667
g81
I3
ssg82
g3661
sg75
(lp3668
g2144
asbasbasbag68
(g84
g70
NtRp3669
(dp3670
g73
(dp3671
sg82
g3476
sg75
(lp3672
g68
(g89
g70
NtRp3673
(dp3674
g73
(dp3675
g93
g94
ssg82
g3669
sg75
(lp3676
S'HTTP_USER_AGENT'
p3677
asbag68
(g89
g70
NtRp3678
(dp3679
g73
(dp3680
g100
g101
ssg82
g3669
sg75
(lp3681
S':'
asbag68
(g89
g70
NtRp3682
(dp3683
g73
(dp3684
sg82
g3669
sg75
(lp3685
g68
(g69
g70
NtRp3686
(dp3687
g73
(dp3688
g81
I3
ssg82
g3682
sg75
(lp3689
g2166
asbasbasbag68
(g84
g70
NtRp3690
(dp3691
g73
(dp3692
sg82
g3476
sg75
(lp3693
g68
(g89
g70
NtRp3694
(dp3695
g73
(dp3696
g93
g94
ssg82
g3690
sg75
(lp3697
S'PATH_INFO'
p3698
asbag68
(g89
g70
NtRp3699
(dp3700
g73
(dp3701
g100
g101
ssg82
g3690
sg75
(lp3702
S':'
asbag68
(g89
g70
NtRp3703
(dp3704
g73
(dp3705
sg82
g3690
sg75
(lp3706
g68
(g69
g70
NtRp3707
(dp3708
g73
(dp3709
g81
I3
ssg82
g3703
sg75
(lp3710
g2230
asbasbasbag68
(g84
g70
NtRp3711
(dp3712
g73
(dp3713
sg82
g3476
sg75
(lp3714
g68
(g89
g70
NtRp3715
(dp3716
g73
(dp3717
g93
g94
ssg82
g3711
sg75
(lp3718
S'QUERY_STRING'
p3719
asbag68
(g89
g70
NtRp3720
(dp3721
g73
(dp3722
g100
g101
ssg82
g3711
sg75
(lp3723
S':'
asbag68
(g89
g70
NtRp3724
(dp3725
g73
(dp3726
sg82
g3711
sg75
(lp3727
g68
(g69
g70
NtRp3728
(dp3729
g73
(dp3730
g81
I3
ssg82
g3724
sg75
(lp3731
S''
asbasbasbag68
(g84
g70
NtRp3732
(dp3733
g73
(dp3734
sg82
g3476
sg75
(lp3735
g68
(g89
g70
NtRp3736
(dp3737
g73
(dp3738
g93
g94
ssg82
g3732
sg75
(lp3739
S'REMOTE_ADDR'
p3740
asbag68
(g89
g70
NtRp3741
(dp3742
g73
(dp3743
g100
g101
ssg82
g3732
sg75
(lp3744
S':'
asbag68
(g89
g70
NtRp3745
(dp3746
g73
(dp3747
sg82
g3732
sg75
(lp3748
g68
(g69
g70
NtRp3749
(dp3750
g73
(dp3751
g81
I3
ssg82
g3745
sg75
(lp3752
g223
asbasbasbag68
(g84
g70
NtRp3753
(dp3754
g73
(dp3755
sg82
g3476
sg75
(lp3756
g68
(g89
g70
NtRp3757
(dp3758
g73
(dp3759
g93
g94
ssg82
g3753
sg75
(lp3760
S'REMOTE_PORT'
p3761
asbag68
(g89
g70
NtRp3762
(dp3763
g73
(dp3764
g100
g101
ssg82
g3753
sg75
(lp3765
S':'
asbag68
(g89
g70
NtRp3766
(dp3767
g73
(dp3768
sg82
g3753
sg75
(lp3769
g68
(g69
g70
NtRp3770
(dp3771
g73
(dp3772
g81
I3
ssg82
g3766
sg75
(lp3773
g2294
asbasbasbag68
(g84
g70
NtRp3774
(dp3775
g73
(dp3776
sg82
g3476
sg75
(lp3777
g68
(g89
g70
NtRp3778
(dp3779
g73
(dp3780
g93
g94
ssg82
g3774
sg75
(lp3781
S'REQUEST_METHOD'
p3782
asbag68
(g89
g70
NtRp3783
(dp3784
g73
(dp3785
g100
g101
ssg82
g3774
sg75
(lp3786
S':'
asbag68
(g89
g70
NtRp3787
(dp3788
g73
(dp3789
sg82
g3774
sg75
(lp3790
g68
(g69
g70
NtRp3791
(dp3792
g73
(dp3793
g81
I3
ssg82
g3787
sg75
(lp3794
g2316
asbasbasbag68
(g84
g70
NtRp3795
(dp3796
g73
(dp3797
sg82
g3476
sg75
(lp3798
g68
(g89
g70
NtRp3799
(dp3800
g73
(dp3801
g93
g94
ssg82
g3795
sg75
(lp3802
S'REQUEST_URI'
p3803
asbag68
(g89
g70
NtRp3804
(dp3805
g73
(dp3806
g100
g101
ssg82
g3795
sg75
(lp3807
S':'
asbag68
(g89
g70
NtRp3808
(dp3809
g73
(dp3810
sg82
g3795
sg75
(lp3811
g68
(g69
g70
NtRp3812
(dp3813
g73
(dp3814
g81
I3
ssg82
g3808
sg75
(lp3815
g2230
asbasbasbag68
(g84
g70
NtRp3816
(dp3817
g73
(dp3818
sg82
g3476
sg75
(lp3819
g68
(g89
g70
NtRp3820
(dp3821
g73
(dp3822
g93
g94
ssg82
g3816
sg75
(lp3823
S'SCRIPT_NAME'
p3824
asbag68
(g89
g70
NtRp3825
(dp3826
g73
(dp3827
g100
g101
ssg82
g3816
sg75
(lp3828
S':'
asbag68
(g89
g70
NtRp3829
(dp3830
g73
(dp3831
sg82
g3816
sg75
(lp3832
g68
(g69
g70
NtRp3833
(dp3834
g73
(dp3835
g81
I3
ssg82
g3829
sg75
(lp3836
S''
asbasbasbag68
(g84
g70
NtRp3837
(dp3838
g73
(dp3839
sg82
g3476
sg75
(lp3840
g68
(g89
g70
NtRp3841
(dp3842
g73
(dp3843
g93
g94
ssg82
g3837
sg75
(lp3844
S'SERVER_NAME'
p3845
asbag68
(g89
g70
NtRp3846
(dp3847
g73
(dp3848
g100
g101
ssg82
g3837
sg75
(lp3849
S':'
asbag68
(g89
g70
NtRp3850
(dp3851
g73
(dp3852
sg82
g3837
sg75
(lp3853
g68
(g69
g70
NtRp3854
(dp3855
g73
(dp3856
g81
I3
ssg82
g3850
sg75
(lp3857
g2380
asbasbasbag68
(g84
g70
NtRp3858
(dp3859
g73
(dp3860
sg82
g3476
sg75
(lp3861
g68
(g89
g70
NtRp3862
(dp3863
g73
(dp3864
g93
g94
ssg82
g3858
sg75
(lp3865
S'SERVER_PORT'
p3866
asbag68
(g89
g70
NtRp3867
(dp3868
g73
(dp3869
g100
g101
ssg82
g3858
sg75
(lp3870
S':'
asbag68
(g89
g70
NtRp3871
(dp3872
g73
(dp3873
sg82
g3858
sg75
(lp3874
g68
(g69
g70
NtRp3875
(dp3876
g73
(dp3877
g81
I3
ssg82
g3871
sg75
(lp3878
g2402
asbasbasbag68
(g84
g70
NtRp3879
(dp3880
g73
(dp3881
sg82
g3476
sg75
(lp3882
g68
(g89
g70
NtRp3883
(dp3884
g73
(dp3885
g93
g94
ssg82
g3879
sg75
(lp3886
S'SERVER_PROTOCOL'
p3887
asbag68
(g89
g70
NtRp3888
(dp3889
g73
(dp3890
g100
g101
ssg82
g3879
sg75
(lp3891
S':'
asbag68
(g89
g70
NtRp3892
(dp3893
g73
(dp3894
sg82
g3879
sg75
(lp3895
g68
(g69
g70
NtRp3896
(dp3897
g73
(dp3898
g81
I3
ssg82
g3892
sg75
(lp3899
g2424
asbasbasbag68
(g84
g70
NtRp3900
(dp3901
g73
(dp3902
sg82
g3476
sg75
(lp3903
g68
(g89
g70
NtRp3904
(dp3905
g73
(dp3906
g93
g94
ssg82
g3900
sg75
(lp3907
S'SERVER_SOFTWARE'
p3908
asbag68
(g89
g70
NtRp3909
(dp3910
g73
(dp3911
g100
g101
ssg82
g3900
sg75
(lp3912
S':'
asbag68
(g89
g70
NtRp3913
(dp3914
g73
(dp3915
sg82
g3900
sg75
(lp3916
g68
(g69
g70
NtRp3917
(dp3918
g73
(dp3919
g81
I3
ssg82
g3913
sg75
(lp3920
g2446
asbasbasbag68
(g84
g70
NtRp3921
(dp3922
g73
(dp3923
sg82
g3476
sg75
(lp3924
g68
(g89
g70
NtRp3925
(dp3926
g73
(dp3927
g93
g94
ssg82
g3921
sg75
(lp3928
S'wsgi.errors'
p3929
asbag68
(g89
g70
NtRp3930
(dp3931
g73
(dp3932
g100
g101
ssg82
g3921
sg75
(lp3933
S':'
asbag68
(g89
g70
NtRp3934
(dp3935
g73
(dp3936
sg82
g3921
sg75
(lp3937
g68
(g69
g70
NtRp3938
(dp3939
g73
(dp3940
g81
I3
ssg82
g3934
sg75
(lp3941
S"<open file '<stderr>', mode 'w' at 0xb73770d0>"
p3942
asbasbasbag68
(g84
g70
NtRp3943
(dp3944
g73
(dp3945
sg82
g3476
sg75
(lp3946
g68
(g89
g70
NtRp3947
(dp3948
g73
(dp3949
g93
g94
ssg82
g3943
sg75
(lp3950
S'wsgi.file_wrapper'
p3951
asbag68
(g89
g70
NtRp3952
(dp3953
g73
(dp3954
g100
g101
ssg82
g3943
sg75
(lp3955
S':'
asbag68
(g89
g70
NtRp3956
(dp3957
g73
(dp3958
sg82
g3943
sg75
(lp3959
g68
(g69
g70
NtRp3960
(dp3961
g73
(dp3962
g81
I3
ssg82
g3956
sg75
(lp3963
S'<class wsgiref.util.FileWrapper at 0x9663fbc>'
p3964
asbasbasbag68
(g84
g70
NtRp3965
(dp3966
g73
(dp3967
sg82
g3476
sg75
(lp3968
g68
(g89
g70
NtRp3969
(dp3970
g73
(dp3971
g93
g94
ssg82
g3965
sg75
(lp3972
S'wsgi.input'
p3973
asbag68
(g89
g70
NtRp3974
(dp3975
g73
(dp3976
g100
g101
ssg82
g3965
sg75
(lp3977
S':'
asbag68
(g89
g70
NtRp3978
(dp3979
g73
(dp3980
sg82
g3965
sg75
(lp3981
g68
(g69
g70
NtRp3982
(dp3983
g73
(dp3984
g81
I3
ssg82
g3978
sg75
(lp3985
S'<cStringIO.StringO object at 0xae555d40>'
p3986
asbasbasbag68
(g84
g70
NtRp3987
(dp3988
g73
(dp3989
sg82
g3476
sg75
(lp3990
g68
(g89
g70
NtRp3991
(dp3992
g73
(dp3993
g93
g94
ssg82
g3987
sg75
(lp3994
S'wsgi.multiprocess'
p3995
asbag68
(g89
g70
NtRp3996
(dp3997
g73
(dp3998
g100
g101
ssg82
g3987
sg75
(lp3999
S':'
asbag68
(g89
g70
NtRp4000
(dp4001
g73
(dp4002
sg82
g3987
sg75
(lp4003
g68
(g69
g70
NtRp4004
(dp4005
g73
(dp4006
g81
I3
ssg82
g4000
sg75
(lp4007
g111
asbasbasbag68
(g84
g70
NtRp4008
(dp4009
g73
(dp4010
sg82
g3476
sg75
(lp4011
g68
(g89
g70
NtRp4012
(dp4013
g73
(dp4014
g93
g94
ssg82
g4008
sg75
(lp4015
S'wsgi.multithread'
p4016
asbag68
(g89
g70
NtRp4017
(dp4018
g73
(dp4019
g100
g101
ssg82
g4008
sg75
(lp4020
S':'
asbag68
(g89
g70
NtRp4021
(dp4022
g73
(dp4023
sg82
g4008
sg75
(lp4024
g68
(g69
g70
NtRp4025
(dp4026
g73
(dp4027
g81
I3
ssg82
g4021
sg75
(lp4028
g1924
asbasbasbag68
(g84
g70
NtRp4029
(dp4030
g73
(dp4031
sg82
g3476
sg75
(lp4032
g68
(g89
g70
NtRp4033
(dp4034
g73
(dp4035
g93
g94
ssg82
g4029
sg75
(lp4036
S'wsgi.run_once'
p4037
asbag68
(g89
g70
NtRp4038
(dp4039
g73
(dp4040
g100
g101
ssg82
g4029
sg75
(lp4041
S':'
asbag68
(g89
g70
NtRp4042
(dp4043
g73
(dp4044
sg82
g4029
sg75
(lp4045
g68
(g69
g70
NtRp4046
(dp4047
g73
(dp4048
g81
I3
ssg82
g4042
sg75
(lp4049
g111
asbasbasbag68
(g84
g70
NtRp4050
(dp4051
g73
(dp4052
sg82
g3476
sg75
(lp4053
g68
(g89
g70
NtRp4054
(dp4055
g73
(dp4056
g93
g94
ssg82
g4050
sg75
(lp4057
S'wsgi.url_scheme'
p4058
asbag68
(g89
g70
NtRp4059
(dp4060
g73
(dp4061
g100
g101
ssg82
g4050
sg75
(lp4062
S':'
asbag68
(g89
g70
NtRp4063
(dp4064
g73
(dp4065
sg82
g4050
sg75
(lp4066
g68
(g69
g70
NtRp4067
(dp4068
g73
(dp4069
g81
I3
ssg82
g4063
sg75
(lp4070
g2727
asbasbasbag68
(g84
g70
NtRp4071
(dp4072
g73
(dp4073
sg82
g3476
sg75
(lp4074
g68
(g89
g70
NtRp4075
(dp4076
g73
(dp4077
g93
g94
ssg82
g4071
sg75
(lp4078
S'wsgi.version'
p4079
asbag68
(g89
g70
NtRp4080
(dp4081
g73
(dp4082
g100
g101
ssg82
g4071
sg75
(lp4083
S':'
asbag68
(g89
g70
NtRp4084
(dp4085
g73
(dp4086
sg82
g4071
sg75
(lp4087
g68
(g69
g70
NtRp4088
(dp4089
g73
(dp4090
g81
I3
ssg82
g4084
sg75
(lp4091
S'1'
asbasbasbasbasbasbasbasbasbasbasbasbasbsS'frames'
p4092
(lp4093
(dp4094
S'file'
p4095
S'/home/emp2web/ejecutar/web2py/gluon/restricted.py'
p4096
sS'dump'
p4097
(dp4098
S'code'
p4099
S'\'# -*- coding: utf-8 -*-\\n\\n#######################...echa_fin", "date", notnull=True, default=None))\\n\\n\''
p4100
sS'layer'
p4101
S"'/home/emp2web/ejecutar/web2py/applications/proyecto_webcast/models/db.py'"
p4102
sS'global compile2'
p4103
S'<function compile2>'
p4104
sS'ccode'
p4105
S'undefined'
p4106
ssS'lnum'
p4107
I208
sS'lines'
p4108
(dp4109
I203
S"    environment['__name__'] = '__restricted__'"
p4110
sI204
S'    try:'
p4111
sI205
S'        if type(code) == types.CodeType:'
p4112
sI206
S'            ccode = code'
p4113
sI207
S'        else:'
p4114
sI208
S'            ccode = compile2(code,layer)'
p4115
sI209
S'        exec ccode in environment'
p4116
sI210
S'    except HTTP:'
p4117
sI211
S'        raise'
p4118
sI212
S'    except RestrictedError:'
p4119
ssS'call'
p4120
S'(code=\'# -*- coding: utf-8 -*-\\n\\n#######################...echa_fin", "date", notnull=True, default=None))\\n\\n\', environment={\'A\': <class \'gluon.html.A\'>, \'B\': <class \'gluon.html.B\'>, \'BEAUTIFY\': <class \'gluon.html.BEAUTIFY\'>, \'BODY\': <class \'gluon.html.BODY\'>, \'BR\': <class \'gluon.html.BR\'>, \'BUTTON\': <class \'gluon.html.BUTTON\'>, \'CAT\': <class \'gluon.html.CAT\'>, \'CENTER\': <class \'gluon.html.CENTER\'>, \'CLEANUP\': <class \'gluon.validators.CLEANUP\'>, \'CODE\': <class \'gluon.html.CODE\'>, ...}, layer=\'/home/emp2web/ejecutar/web2py/applications/proyecto_webcast/models/db.py\')'
p4121
sS'func'
p4122
S'restricted'
p4123
sa(dp4124
g4095
S'/home/emp2web/ejecutar/web2py/gluon/restricted.py'
p4125
sg4097
(dp4126
S'builtincompile'
p4127
S'<built-in function compile>'
p4128
sS'code'
p4129
S'\'# -*- coding: utf-8 -*-\\n\\n#######################...echa_fin", "date", notnull=True, default=None))\\n\\n\''
p4130
sS'code.rstrip'
p4131
S'<built-in method rstrip of str object>'
p4132
sS').replace'
p4133
g4106
sS'layer'
p4134
S"'/home/emp2web/ejecutar/web2py/applications/proyecto_webcast/models/db.py'"
p4135
ssg4107
I193
sg4108
(dp4136
I192
S'    """'
p4137
sI193
S"    return compile(code.rstrip().replace('\\r\\n','\\n')+'\\n', layer, 'exec')"
p4138
sI194
S''
sI195
S"def restricted(code, environment=None, layer='Unknown'):"
p4139
sI196
S'    """'
p4140
sI197
S'    runs code in environment and returns the output. if an exception occurs'
p4141
sI188
S''
sI189
S'def compile2(code,layer):'
p4142
sI190
S'    """'
p4143
sI191
S"    The +'\\n' is necessary else compile fails when code ends in a comment."
p4144
ssg4120
S'(code=\'# -*- coding: utf-8 -*-\\n\\n#######################...echa_fin", "date", notnull=True, default=None))\\n\\n\', layer=\'/home/emp2web/ejecutar/web2py/applications/proyecto_webcast/models/db.py\')'
p4145
sg4122
S'compile2'
p4146
sasS'pyver'
p4147
S'Python 2.7.3: /usr/bin/python2.7'
p4148
sS'session'
p4149
g68
(g69
g70
NtRp4150
(dp4151
g73
(dp4152
sg75
(lp4153
g68
(g77
g70
NtRp4154
(dp4155
g73
(dp4156
g81
I5
ssg82
Nsg75
(lp4157
g68
(g84
g70
NtRp4158
(dp4159
g73
(dp4160
sg82
g4154
sg75
(lp4161
g68
(g89
g70
NtRp4162
(dp4163
g73
(dp4164
g93
g94
ssg82
g4158
sg75
(lp4165
S'auth'
p4166
asbag68
(g89
g70
NtRp4167
(dp4168
g73
(dp4169
g100
g101
ssg82
g4158
sg75
(lp4170
S':'
asbag68
(g89
g70
NtRp4171
(dp4172
g73
(dp4173
sg82
g4158
sg75
(lp4174
g68
(g69
g70
NtRp4175
(dp4176
g73
(dp4177
g81
I5
ssg82
g4171
sg75
(lp4178
S'None'
p4179
asbasbasbasbasbsS'etype'
p4180
S"<type 'exceptions.IndentationError'>"
p4181
sS'date'
p4182
S'Thu Sep 13 02:55:00 2012'
p4183
sS'response'
p4184
g68
(g69
g70
NtRp4185
(dp4186
g73
(dp4187
sg75
(lp4188
g68
(g77
g70
NtRp4189
(dp4190
g73
(dp4191
g81
I5
ssg82
Nsg75
(lp4192
g68
(g84
g70
NtRp4193
(dp4194
g73
(dp4195
sg82
g4189
sg75
(lp4196
g68
(g89
g70
NtRp4197
(dp4198
g73
(dp4199
g93
g94
ssg82
g4193
sg75
(lp4200
g166
asbag68
(g89
g70
NtRp4201
(dp4202
g73
(dp4203
g100
g101
ssg82
g4193
sg75
(lp4204
S':'
asbag68
(g89
g70
NtRp4205
(dp4206
g73
(dp4207
sg82
g4193
sg75
(lp4208
g68
(g69
g70
NtRp4209
(dp4210
g73
(dp4211
g81
I5
ssg82
g4205
sg75
(lp4212
S'<cStringIO.StringO object at 0xaebb0ca0>'
p4213
asbasbasbag68
(g84
g70
NtRp4214
(dp4215
g73
(dp4216
sg82
g4189
sg75
(lp4217
g68
(g89
g70
NtRp4218
(dp4219
g73
(dp4220
g93
g94
ssg82
g4214
sg75
(lp4221
g254
asbag68
(g89
g70
NtRp4222
(dp4223
g73
(dp4224
g100
g101
ssg82
g4214
sg75
(lp4225
S':'
asbag68
(g89
g70
NtRp4226
(dp4227
g73
(dp4228
sg82
g4214
sg75
(lp4229
g68
(g69
g70
NtRp4230
(dp4231
g73
(dp4232
g81
I5
ssg82
g4226
sg75
(lp4233
g68
(g77
g70
NtRp4234
(dp4235
g73
(dp4236
g81
I4
ssg82
Nsg75
(lp4237
g68
(g84
g70
NtRp4238
(dp4239
g73
(dp4240
sg82
g4234
sg75
(lp4241
g68
(g89
g70
NtRp4242
(dp4243
g73
(dp4244
g93
g94
ssg82
g4238
sg75
(lp4245
S'session_id_proyecto_webcast'
p4246
asbag68
(g89
g70
NtRp4247
(dp4248
g73
(dp4249
g100
g101
ssg82
g4238
sg75
(lp4250
S':'
asbag68
(g89
g70
NtRp4251
(dp4252
g73
(dp4253
sg82
g4238
sg75
(lp4254
g68
(g69
g70
NtRp4255
(dp4256
g73
(dp4257
g81
I4
ssg82
g4251
sg75
(lp4258
g857
ag68
(g77
g70
NtRp4259
(dp4260
g73
(dp4261
g81
I3
ssg82
Nsg75
(lp4262
g68
(g84
g70
NtRp4263
(dp4264
g73
(dp4265
sg82
g4259
sg75
(lp4266
g68
(g89
g70
NtRp4267
(dp4268
g73
(dp4269
g93
g94
ssg82
g4263
sg75
(lp4270
g304
asbag68
(g89
g70
NtRp4271
(dp4272
g73
(dp4273
g100
g101
ssg82
g4263
sg75
(lp4274
S':'
asbag68
(g89
g70
NtRp4275
(dp4276
g73
(dp4277
sg82
g4263
sg75
(lp4278
g68
(g69
g70
NtRp4279
(dp4280
g73
(dp4281
g81
I3
ssg82
g4275
sg75
(lp4282
S''
asbasbasbag68
(g84
g70
NtRp4283
(dp4284
g73
(dp4285
sg82
g4259
sg75
(lp4286
g68
(g89
g70
NtRp4287
(dp4288
g73
(dp4289
g93
g94
ssg82
g4283
sg75
(lp4290
g325
asbag68
(g89
g70
NtRp4291
(dp4292
g73
(dp4293
g100
g101
ssg82
g4283
sg75
(lp4294
S':'
asbag68
(g89
g70
NtRp4295
(dp4296
g73
(dp4297
sg82
g4283
sg75
(lp4298
g68
(g69
g70
NtRp4299
(dp4300
g73
(dp4301
g81
I3
ssg82
g4295
sg75
(lp4302
S''
asbasbasbag68
(g84
g70
NtRp4303
(dp4304
g73
(dp4305
sg82
g4259
sg75
(lp4306
g68
(g89
g70
NtRp4307
(dp4308
g73
(dp4309
g93
g94
ssg82
g4303
sg75
(lp4310
g346
asbag68
(g89
g70
NtRp4311
(dp4312
g73
(dp4313
g100
g101
ssg82
g4303
sg75
(lp4314
S':'
asbag68
(g89
g70
NtRp4315
(dp4316
g73
(dp4317
sg82
g4303
sg75
(lp4318
g68
(g69
g70
NtRp4319
(dp4320
g73
(dp4321
g81
I3
ssg82
g4315
sg75
(lp4322
S''
asbasbasbag68
(g84
g70
NtRp4323
(dp4324
g73
(dp4325
sg82
g4259
sg75
(lp4326
g68
(g89
g70
NtRp4327
(dp4328
g73
(dp4329
g93
g94
ssg82
g4323
sg75
(lp4330
g367
asbag68
(g89
g70
NtRp4331
(dp4332
g73
(dp4333
g100
g101
ssg82
g4323
sg75
(lp4334
S':'
asbag68
(g89
g70
NtRp4335
(dp4336
g73
(dp4337
sg82
g4323
sg75
(lp4338
g68
(g69
g70
NtRp4339
(dp4340
g73
(dp4341
g81
I3
ssg82
g4335
sg75
(lp4342
S''
asbasbasbag68
(g84
g70
NtRp4343
(dp4344
g73
(dp4345
sg82
g4259
sg75
(lp4346
g68
(g89
g70
NtRp4347
(dp4348
g73
(dp4349
g93
g94
ssg82
g4343
sg75
(lp4350
g388
asbag68
(g89
g70
NtRp4351
(dp4352
g73
(dp4353
g100
g101
ssg82
g4343
sg75
(lp4354
S':'
asbag68
(g89
g70
NtRp4355
(dp4356
g73
(dp4357
sg82
g4343
sg75
(lp4358
g68
(g69
g70
NtRp4359
(dp4360
g73
(dp4361
g81
I3
ssg82
g4355
sg75
(lp4362
S''
asbasbasbag68
(g84
g70
NtRp4363
(dp4364
g73
(dp4365
sg82
g4259
sg75
(lp4366
g68
(g89
g70
NtRp4367
(dp4368
g73
(dp4369
g93
g94
ssg82
g4363
sg75
(lp4370
g409
asbag68
(g89
g70
NtRp4371
(dp4372
g73
(dp4373
g100
g101
ssg82
g4363
sg75
(lp4374
S':'
asbag68
(g89
g70
NtRp4375
(dp4376
g73
(dp4377
sg82
g4363
sg75
(lp4378
g68
(g69
g70
NtRp4379
(dp4380
g73
(dp4381
g81
I3
ssg82
g4375
sg75
(lp4382
S'/'
asbasbasbag68
(g84
g70
NtRp4383
(dp4384
g73
(dp4385
sg82
g4259
sg75
(lp4386
g68
(g89
g70
NtRp4387
(dp4388
g73
(dp4389
g93
g94
ssg82
g4383
sg75
(lp4390
g430
asbag68
(g89
g70
NtRp4391
(dp4392
g73
(dp4393
g100
g101
ssg82
g4383
sg75
(lp4394
S':'
asbag68
(g89
g70
NtRp4395
(dp4396
g73
(dp4397
sg82
g4383
sg75
(lp4398
g68
(g69
g70
NtRp4399
(dp4400
g73
(dp4401
g81
I3
ssg82
g4395
sg75
(lp4402
S''
asbasbasbag68
(g84
g70
NtRp4403
(dp4404
g73
(dp4405
sg82
g4259
sg75
(lp4406
g68
(g89
g70
NtRp4407
(dp4408
g73
(dp4409
g93
g94
ssg82
g4403
sg75
(lp4410
g451
asbag68
(g89
g70
NtRp4411
(dp4412
g73
(dp4413
g100
g101
ssg82
g4403
sg75
(lp4414
S':'
asbag68
(g89
g70
NtRp4415
(dp4416
g73
(dp4417
sg82
g4403
sg75
(lp4418
g68
(g69
g70
NtRp4419
(dp4420
g73
(dp4421
g81
I3
ssg82
g4415
sg75
(lp4422
S''
asbasbasbasbasbasbasbasbasbasbasbag68
(g84
g70
NtRp4423
(dp4424
g73
(dp4425
sg82
g4189
sg75
(lp4426
g68
(g89
g70
NtRp4427
(dp4428
g73
(dp4429
g93
g94
ssg82
g4423
sg75
(lp4430
S'delimiters'
p4431
asbag68
(g89
g70
NtRp4432
(dp4433
g73
(dp4434
g100
g101
ssg82
g4423
sg75
(lp4435
S':'
asbag68
(g89
g70
NtRp4436
(dp4437
g73
(dp4438
sg82
g4423
sg75
(lp4439
g68
(g69
g70
NtRp4440
(dp4441
g73
(dp4442
g81
I5
ssg82
g4436
sg75
(lp4443
g68
(g77
g70
NtRp4444
(dp4445
g73
(dp4446
g81
I4
ssg82
Nsg75
(lp4447
g68
(g84
g70
NtRp4448
(dp4449
g73
(dp4450
sg82
g4444
sg75
(lp4451
g68
(g89
g70
NtRp4452
(dp4453
g73
(dp4454
sg82
g4448
sg75
(lp4455
g68
(g69
g70
NtRp4456
(dp4457
g73
(dp4458
g81
I4
ssg82
g4452
sg75
(lp4459
S'{{'
p4460
asbasbasbag68
(g84
g70
NtRp4461
(dp4462
g73
(dp4463
sg82
g4444
sg75
(lp4464
g68
(g89
g70
NtRp4465
(dp4466
g73
(dp4467
sg82
g4461
sg75
(lp4468
g68
(g69
g70
NtRp4469
(dp4470
g73
(dp4471
g81
I4
ssg82
g4465
sg75
(lp4472
S'}}'
p4473
asbasbasbasbasbasbasbag68
(g84
g70
NtRp4474
(dp4475
g73
(dp4476
sg82
g4189
sg75
(lp4477
g68
(g89
g70
NtRp4478
(dp4479
g73
(dp4480
g93
g94
ssg82
g4474
sg75
(lp4481
S'files'
p4482
asbag68
(g89
g70
NtRp4483
(dp4484
g73
(dp4485
g100
g101
ssg82
g4474
sg75
(lp4486
S':'
asbag68
(g89
g70
NtRp4487
(dp4488
g73
(dp4489
sg82
g4474
sg75
(lp4490
g68
(g69
g70
NtRp4491
(dp4492
g73
(dp4493
g81
I5
ssg82
g4487
sg75
(lp4494
g68
(g77
g70
NtRp4495
(dp4496
g73
(dp4497
g81
I4
ssg82
Nsg75
(lp4498
sbasbasbasbag68
(g84
g70
NtRp4499
(dp4500
g73
(dp4501
sg82
g4189
sg75
(lp4502
g68
(g89
g70
NtRp4503
(dp4504
g73
(dp4505
g93
g94
ssg82
g4499
sg75
(lp4506
S'flash'
p4507
asbag68
(g89
g70
NtRp4508
(dp4509
g73
(dp4510
g100
g101
ssg82
g4499
sg75
(lp4511
S':'
asbag68
(g89
g70
NtRp4512
(dp4513
g73
(dp4514
sg82
g4499
sg75
(lp4515
g68
(g69
g70
NtRp4516
(dp4517
g73
(dp4518
g81
I5
ssg82
g4512
sg75
(lp4519
S''
asbasbasbag68
(g84
g70
NtRp4520
(dp4521
g73
(dp4522
sg82
g4189
sg75
(lp4523
g68
(g89
g70
NtRp4524
(dp4525
g73
(dp4526
g93
g94
ssg82
g4520
sg75
(lp4527
S'generic_patterns'
p4528
asbag68
(g89
g70
NtRp4529
(dp4530
g73
(dp4531
g100
g101
ssg82
g4520
sg75
(lp4532
S':'
asbag68
(g89
g70
NtRp4533
(dp4534
g73
(dp4535
sg82
g4520
sg75
(lp4536
g68
(g69
g70
NtRp4537
(dp4538
g73
(dp4539
g81
I5
ssg82
g4533
sg75
(lp4540
g68
(g77
g70
NtRp4541
(dp4542
g73
(dp4543
g81
I4
ssg82
Nsg75
(lp4544
sbasbasbasbag68
(g84
g70
NtRp4545
(dp4546
g73
(dp4547
sg82
g4189
sg75
(lp4548
g68
(g89
g70
NtRp4549
(dp4550
g73
(dp4551
g93
g94
ssg82
g4545
sg75
(lp4552
S'headers'
p4553
asbag68
(g89
g70
NtRp4554
(dp4555
g73
(dp4556
g100
g101
ssg82
g4545
sg75
(lp4557
S':'
asbag68
(g89
g70
NtRp4558
(dp4559
g73
(dp4560
sg82
g4545
sg75
(lp4561
g68
(g69
g70
NtRp4562
(dp4563
g73
(dp4564
g81
I5
ssg82
g4558
sg75
(lp4565
g68
(g77
g70
NtRp4566
(dp4567
g73
(dp4568
g81
I4
ssg82
Nsg75
(lp4569
g68
(g84
g70
NtRp4570
(dp4571
g73
(dp4572
sg82
g4566
sg75
(lp4573
g68
(g89
g70
NtRp4574
(dp4575
g73
(dp4576
g93
g94
ssg82
g4570
sg75
(lp4577
S'Cache-Control'
p4578
asbag68
(g89
g70
NtRp4579
(dp4580
g73
(dp4581
g100
g101
ssg82
g4570
sg75
(lp4582
S':'
asbag68
(g89
g70
NtRp4583
(dp4584
g73
(dp4585
sg82
g4570
sg75
(lp4586
g68
(g69
g70
NtRp4587
(dp4588
g73
(dp4589
g81
I4
ssg82
g4583
sg75
(lp4590
S'no-store, no-cache, must-revalidate, post-check=0, pre-check=0'
p4591
asbasbasbag68
(g84
g70
NtRp4592
(dp4593
g73
(dp4594
sg82
g4566
sg75
(lp4595
g68
(g89
g70
NtRp4596
(dp4597
g73
(dp4598
g93
g94
ssg82
g4592
sg75
(lp4599
S'Content-Type'
p4600
asbag68
(g89
g70
NtRp4601
(dp4602
g73
(dp4603
g100
g101
ssg82
g4592
sg75
(lp4604
S':'
asbag68
(g89
g70
NtRp4605
(dp4606
g73
(dp4607
sg82
g4592
sg75
(lp4608
g68
(g69
g70
NtRp4609
(dp4610
g73
(dp4611
g81
I4
ssg82
g4605
sg75
(lp4612
S'text/html; charset=utf-8'
p4613
asbasbasbag68
(g84
g70
NtRp4614
(dp4615
g73
(dp4616
sg82
g4566
sg75
(lp4617
g68
(g89
g70
NtRp4618
(dp4619
g73
(dp4620
g93
g94
ssg82
g4614
sg75
(lp4621
S'Expires'
p4622
asbag68
(g89
g70
NtRp4623
(dp4624
g73
(dp4625
g100
g101
ssg82
g4614
sg75
(lp4626
S':'
asbag68
(g89
g70
NtRp4627
(dp4628
g73
(dp4629
sg82
g4614
sg75
(lp4630
g68
(g69
g70
NtRp4631
(dp4632
g73
(dp4633
g81
I4
ssg82
g4627
sg75
(lp4634
S'Thu, 13 Sep 2012 07:55:00 GMT'
p4635
asbasbasbag68
(g84
g70
NtRp4636
(dp4637
g73
(dp4638
sg82
g4566
sg75
(lp4639
g68
(g89
g70
NtRp4640
(dp4641
g73
(dp4642
g93
g94
ssg82
g4636
sg75
(lp4643
S'Pragma'
p4644
asbag68
(g89
g70
NtRp4645
(dp4646
g73
(dp4647
g100
g101
ssg82
g4636
sg75
(lp4648
S':'
asbag68
(g89
g70
NtRp4649
(dp4650
g73
(dp4651
sg82
g4636
sg75
(lp4652
g68
(g69
g70
NtRp4653
(dp4654
g73
(dp4655
g81
I4
ssg82
g4649
sg75
(lp4656
S'no-cache'
p4657
asbasbasbag68
(g84
g70
NtRp4658
(dp4659
g73
(dp4660
sg82
g4566
sg75
(lp4661
g68
(g89
g70
NtRp4662
(dp4663
g73
(dp4664
g93
g94
ssg82
g4658
sg75
(lp4665
S'X-Powered-By'
p4666
asbag68
(g89
g70
NtRp4667
(dp4668
g73
(dp4669
g100
g101
ssg82
g4658
sg75
(lp4670
S':'
asbag68
(g89
g70
NtRp4671
(dp4672
g73
(dp4673
sg82
g4658
sg75
(lp4674
g68
(g69
g70
NtRp4675
(dp4676
g73
(dp4677
g81
I4
ssg82
g4671
sg75
(lp4678
S'web2py'
p4679
asbasbasbasbasbasbasbag68
(g84
g70
NtRp4680
(dp4681
g73
(dp4682
sg82
g4189
sg75
(lp4683
g68
(g89
g70
NtRp4684
(dp4685
g73
(dp4686
g93
g94
ssg82
g4680
sg75
(lp4687
S'menu'
p4688
asbag68
(g89
g70
NtRp4689
(dp4690
g73
(dp4691
g100
g101
ssg82
g4680
sg75
(lp4692
S':'
asbag68
(g89
g70
NtRp4693
(dp4694
g73
(dp4695
sg82
g4680
sg75
(lp4696
g68
(g69
g70
NtRp4697
(dp4698
g73
(dp4699
g81
I5
ssg82
g4693
sg75
(lp4700
g68
(g77
g70
NtRp4701
(dp4702
g73
(dp4703
g81
I4
ssg82
Nsg75
(lp4704
sbasbasbasbag68
(g84
g70
NtRp4705
(dp4706
g73
(dp4707
sg82
g4189
sg75
(lp4708
g68
(g89
g70
NtRp4709
(dp4710
g73
(dp4711
g93
g94
ssg82
g4705
sg75
(lp4712
S'meta'
p4713
asbag68
(g89
g70
NtRp4714
(dp4715
g73
(dp4716
g100
g101
ssg82
g4705
sg75
(lp4717
S':'
asbag68
(g89
g70
NtRp4718
(dp4719
g73
(dp4720
sg82
g4705
sg75
(lp4721
g68
(g69
g70
NtRp4722
(dp4723
g73
(dp4724
g81
I5
ssg82
g4718
sg75
(lp4725
g68
(g77
g70
NtRp4726
(dp4727
g73
(dp4728
g81
I4
ssg82
Nsg75
(lp4729
sbasbasbasbag68
(g84
g70
NtRp4730
(dp4731
g73
(dp4732
sg82
g4189
sg75
(lp4733
g68
(g89
g70
NtRp4734
(dp4735
g73
(dp4736
g93
g94
ssg82
g4730
sg75
(lp4737
S'postprocessing'
p4738
asbag68
(g89
g70
NtRp4739
(dp4740
g73
(dp4741
g100
g101
ssg82
g4730
sg75
(lp4742
S':'
asbag68
(g89
g70
NtRp4743
(dp4744
g73
(dp4745
sg82
g4730
sg75
(lp4746
g68
(g69
g70
NtRp4747
(dp4748
g73
(dp4749
g81
I5
ssg82
g4743
sg75
(lp4750
g68
(g77
g70
NtRp4751
(dp4752
g73
(dp4753
g81
I4
ssg82
Nsg75
(lp4754
sbasbasbasbag68
(g84
g70
NtRp4755
(dp4756
g73
(dp4757
sg82
g4189
sg75
(lp4758
g68
(g89
g70
NtRp4759
(dp4760
g73
(dp4761
g93
g94
ssg82
g4755
sg75
(lp4762
S'session_file'
p4763
asbag68
(g89
g70
NtRp4764
(dp4765
g73
(dp4766
g100
g101
ssg82
g4755
sg75
(lp4767
S':'
asbag68
(g89
g70
NtRp4768
(dp4769
g73
(dp4770
sg82
g4755
sg75
(lp4771
g68
(g69
g70
NtRp4772
(dp4773
g73
(dp4774
g81
I5
ssg82
g4768
sg75
(lp4775
S"<open file '/home/emp2web/ejecutar/web2py/applications/proyecto_webcast/sessions/127.0.0.1-3575e940-2aa6-4413-a80f-60a8b60379f5', mode 'rb+' at 0x9f08758>"
p4776
asbasbasbag68
(g84
g70
NtRp4777
(dp4778
g73
(dp4779
sg82
g4189
sg75
(lp4780
g68
(g89
g70
NtRp4781
(dp4782
g73
(dp4783
g93
g94
ssg82
g4777
sg75
(lp4784
S'session_filename'
p4785
asbag68
(g89
g70
NtRp4786
(dp4787
g73
(dp4788
g100
g101
ssg82
g4777
sg75
(lp4789
S':'
asbag68
(g89
g70
NtRp4790
(dp4791
g73
(dp4792
sg82
g4777
sg75
(lp4793
g68
(g69
g70
NtRp4794
(dp4795
g73
(dp4796
g81
I5
ssg82
g4790
sg75
(lp4797
S'/home/emp2web/ejecutar/web2py/applications/proyecto_webcast/sessions/127.0.0.1-3575e940-2aa6-4413-a80f-60a8b60379f5'
p4798
asbasbasbag68
(g84
g70
NtRp4799
(dp4800
g73
(dp4801
sg82
g4189
sg75
(lp4802
g68
(g89
g70
NtRp4803
(dp4804
g73
(dp4805
g93
g94
ssg82
g4799
sg75
(lp4806
S'session_id'
p4807
asbag68
(g89
g70
NtRp4808
(dp4809
g73
(dp4810
g100
g101
ssg82
g4799
sg75
(lp4811
S':'
asbag68
(g89
g70
NtRp4812
(dp4813
g73
(dp4814
sg82
g4799
sg75
(lp4815
g68
(g69
g70
NtRp4816
(dp4817
g73
(dp4818
g81
I5
ssg82
g4812
sg75
(lp4819
g857
asbasbasbag68
(g84
g70
NtRp4820
(dp4821
g73
(dp4822
sg82
g4189
sg75
(lp4823
g68
(g89
g70
NtRp4824
(dp4825
g73
(dp4826
g93
g94
ssg82
g4820
sg75
(lp4827
S'session_id_name'
p4828
asbag68
(g89
g70
NtRp4829
(dp4830
g73
(dp4831
g100
g101
ssg82
g4820
sg75
(lp4832
S':'
asbag68
(g89
g70
NtRp4833
(dp4834
g73
(dp4835
sg82
g4820
sg75
(lp4836
g68
(g69
g70
NtRp4837
(dp4838
g73
(dp4839
g81
I5
ssg82
g4833
sg75
(lp4840
g4246
asbasbasbag68
(g84
g70
NtRp4841
(dp4842
g73
(dp4843
sg82
g4189
sg75
(lp4844
g68
(g89
g70
NtRp4845
(dp4846
g73
(dp4847
g93
g94
ssg82
g4841
sg75
(lp4848
S'session_locked'
p4849
asbag68
(g89
g70
NtRp4850
(dp4851
g73
(dp4852
g100
g101
ssg82
g4841
sg75
(lp4853
S':'
asbag68
(g89
g70
NtRp4854
(dp4855
g73
(dp4856
sg82
g4841
sg75
(lp4857
g68
(g69
g70
NtRp4858
(dp4859
g73
(dp4860
g81
I5
ssg82
g4854
sg75
(lp4861
g1924
asbasbasbag68
(g84
g70
NtRp4862
(dp4863
g73
(dp4864
sg82
g4189
sg75
(lp4865
g68
(g89
g70
NtRp4866
(dp4867
g73
(dp4868
g93
g94
ssg82
g4862
sg75
(lp4869
S'session_new'
p4870
asbag68
(g89
g70
NtRp4871
(dp4872
g73
(dp4873
g100
g101
ssg82
g4862
sg75
(lp4874
S':'
asbag68
(g89
g70
NtRp4875
(dp4876
g73
(dp4877
sg82
g4862
sg75
(lp4878
g68
(g69
g70
NtRp4879
(dp4880
g73
(dp4881
g81
I5
ssg82
g4875
sg75
(lp4882
g111
asbasbasbag68
(g84
g70
NtRp4883
(dp4884
g73
(dp4885
sg82
g4189
sg75
(lp4886
g68
(g89
g70
NtRp4887
(dp4888
g73
(dp4889
g93
g94
ssg82
g4883
sg75
(lp4890
S'status'
p4891
asbag68
(g89
g70
NtRp4892
(dp4893
g73
(dp4894
g100
g101
ssg82
g4883
sg75
(lp4895
S':'
asbag68
(g89
g70
NtRp4896
(dp4897
g73
(dp4898
sg82
g4883
sg75
(lp4899
g68
(g69
g70
NtRp4900
(dp4901
g73
(dp4902
g81
I5
ssg82
g4896
sg75
(lp4903
S'200'
p4904
asbasbasbag68
(g84
g70
NtRp4905
(dp4906
g73
(dp4907
sg82
g4189
sg75
(lp4908
g68
(g89
g70
NtRp4909
(dp4910
g73
(dp4911
g93
g94
ssg82
g4905
sg75
(lp4912
S'view'
p4913
asbag68
(g89
g70
NtRp4914
(dp4915
g73
(dp4916
g100
g101
ssg82
g4905
sg75
(lp4917
S':'
asbag68
(g89
g70
NtRp4918
(dp4919
g73
(dp4920
sg82
g4905
sg75
(lp4921
g68
(g69
g70
NtRp4922
(dp4923
g73
(dp4924
g81
I5
ssg82
g4918
sg75
(lp4925
S'default/index.html'
p4926
asbasbasbasbasbsS'locals'
p4927
(dp4928
g4
S"'/home/emp2web/ejecutar/web2py/applications/proyecto_webcast/models/db.py'"
p4929
sg6
S'\'# -*- coding: utf-8 -*-\\n\\n#######################...echa_fin", "date", notnull=True, default=None))\\n\\n\''
p4930
sssS'traceback'
p4931
S'Traceback (most recent call last):\n  File "/home/emp2web/ejecutar/web2py/gluon/restricted.py", line 208, in restricted\n    ccode = compile2(code,layer)\n  File "/home/emp2web/ejecutar/web2py/gluon/restricted.py", line 193, in compile2\n    return compile(code.rstrip().replace(\'\\r\\n\',\'\\n\')+\'\\n\', layer, \'exec\')\n  File "/home/emp2web/ejecutar/web2py/applications/proyecto_webcast/models/db.py", line 92\n    db.grupos.grupo.requires = IS_NOT_IN_DB(db, \'grupos.grupo\')\n   ^\nIndentationError: unexpected indent\n'
p4932
s.