(dp1
S'output'
p2
S"<type 'exceptions.NameError'> name 'formulario' is not defined"
p3
sS'layer'
p4
S'/home/emp2web/ejecutar/web2py/applications/proyecto_webcast/views/default/principal.html'
p5
sS'code'
p6
S'response.write(\'<!DOCTYPE html>\\r\\n<!-- paulirish.com/2008/conditional-stylesheets-vs-css-hacks-answer-neither/ -->\\r\\n<!--[if lt IE 7]><html class="ie ie6 ie-lte9 ie-lte8 ie-lte7 no-js" lang="\', escape=False)\nresponse.write(T.accepted_language or \'en\')\nresponse.write(\'"> <![endif]-->\\r\\n<!--[if IE 7]><html class="ie ie7 ie-lte9 ie-lte8 ie-lte7 no-js" lang="\', escape=False)\nresponse.write(T.accepted_language or \'en\')\nresponse.write(\'"> <![endif]-->\\r\\n<!--[if IE 8]><html class="ie ie8 ie-lte9 ie-lte8 no-js" lang="\', escape=False)\nresponse.write(T.accepted_language or \'en\')\nresponse.write(\'"> <![endif]-->\\r\\n<!--[if IE 9]><html class="ie9 ie-lte9 no-js" lang="\', escape=False)\nresponse.write(T.accepted_language or \'en\')\nresponse.write(\'"> <![endif]-->\\r\\n<!--[if (gt IE 9)|!(IE)]><!--> <html class="no-js" lang="\', escape=False)\nresponse.write(T.accepted_language or \'en\')\nresponse.write(\'"> <!--<![endif]-->\\r\\n<head>\\r\\n  <meta charset="utf-8" />\\r\\n  <!-- www.phpied.com/conditional-comments-block-downloads/ -->\\r\\n  <!-- Always force latest IE rendering engine\\r\\n       (even in intranet) & Chrome Frame\\r\\n       Remove this if you use the .htaccess -->\\r\\n  <!--[if IE]>\\r\\n      <meta http-equiv="X-UA-Compatible" content="IE=edge\', escape=False)\nresponse.write(not request.is_local and \',chrome=1\' or \'\')\nresponse.write(\'">\\r\\n      <![endif]-->\\r\\n  \\r\\n  <title>\', escape=False)\nresponse.write(response.title or request.application)\nresponse.write(\'</title>\\r\\n  \\r\\n  <!-- http://dev.w3.org/html5/markup/meta.name.html -->\\r\\n  <meta name="application-name" content="\', escape=False)\nresponse.write(request.application)\nresponse.write(\'" />\\r\\n  \\r\\n  <!-- Speaking of Google, don\\\'t forget to set your site up:\\r\\n       http://google.com/webmasters -->\\r\\n  <meta name="google-site-verification" content="" />\\r\\n  \\r\\n  <!--  Mobile Viewport Fix\\r\\n\\tj.mp/mobileviewport & davidbcalhoun.com/2010/viewport-metatag\\r\\n\\tdevice-width: Occupy full width of the screen in its current orientation\\r\\n\\tinitial-scale = 1.0 retains dimensions instead of zooming out if page height > device height\\r\\n\\tuser-scalable = yes allows the user to zoom in -->\\r\\n  <meta name="viewport" content="width=device-width, initial-scale=1.0">\\r\\n  \\r\\n  <link rel="shortcut icon" href="\', escape=False)\nresponse.write(URL(\'static\',\'images/favicon.ico\'))\nresponse.write(\'" type="image/x-icon">\\r\\n  <link rel="apple-touch-icon" href="\', escape=False)\nresponse.write(URL(\'static\',\'images/favicon.png\'))\nresponse.write(\'">\\r\\n  \\r\\n  <!-- All JavaScript at the bottom, except for Modernizr which enables \\r\\n       HTML5 elements & feature detects -->\\r\\n  <script src="\', escape=False)\nresponse.write(URL(\'static\',\'js/modernizr.custom.js\'))\nresponse.write(\'"></script>   \\r\\n  \\r\\n  <!-- include stylesheets -->\\r\\n  \', escape=False)\nresponse.files.append(URL(\'static\',\'css/bootstrap.min.css\'))\nresponse.files.append(URL(\'static\',\'css/bootstrap-responsive.min.css\'))\nresponse.files.append(URL(\'static\',\'css/web2py.css\'))\nresponse.files.append(URL(\'static\',\'css/web2py_bootstrap.css\'))\nresponse.write(\'\\r\\n\\r\\n  \', escape=False)\nresponse.write(\'<script type="text/javascript"><!--\\n    // These variables are used by the web2py_ajax_init function in web2py_ajax.js (which is loaded below).\\n    var w2p_ajax_confirm_message = "\', escape=False)\nresponse.write(T(\'Are you sure you want to delete this object?\'))\nresponse.write(\'";\\n    var w2p_ajax_date_format = "\', escape=False)\nresponse.write(T(\'%Y-%m-%d\'))\nresponse.write(\'";\\n    var w2p_ajax_datetime_format = "\', escape=False)\nresponse.write(T(\'%Y-%m-%d %H:%M:%S\'))\nresponse.write(\'";\\n    //--></script>\\n\', escape=False)\nresponse.files.insert(0,URL(\'static\',\'js/jquery.js\'))\nresponse.files.insert(1,URL(\'static\',\'css/calendar.css\'))\nresponse.files.insert(2,URL(\'static\',\'js/calendar.js\'))\nresponse.files.insert(3,URL(\'static\',\'js/web2py.js\'))\nresponse.include_meta()\nresponse.include_files()\nresponse.write(\'\\n\', escape=False)\nresponse.write(\'\\r\\n  \\r\\n  \', escape=False)\n# using sidebars need to know what sidebar you want to use\nleft_sidebar_enabled = globals().get(\'left_sidebar_enabled\',False)\nright_sidebar_enabled = globals().get(\'right_sidebar_enabled\',False)\nmiddle_columns = {0:\'span12\',1:\'span9\',2:\'span6\'}[\n(left_sidebar_enabled and 1 or 0)+(right_sidebar_enabled and 1 or 0)]\nresponse.write(\'\\r\\n\\r\\n  <!-- uncomment here to load jquery-ui\\r\\n       <link rel="stylesheet" href="http://ajax.googleapis.com/ajax/libs/jqueryui/1.8.16/themes/base/jquery-ui.css" type="text/css" media="all" />\\r\\n       <script src="http://ajax.googleapis.com/ajax/libs/jqueryui/1.8.16/jquery-ui.min.js" type="text/javascript"></script>\\r\\n       uncomment to load jquery-ui //-->\\r\\n  <noscript><link href="\', escape=False)\nresponse.write(URL(\'static\', \'css/web2py_bootstrap_nojs.css\'))\nresponse.write(\'" rel="stylesheet" type="text/css" /></noscript>\\r\\n  \', escape=False)\nresponse.write(\'\\r\\n</head>\\r\\n\\r\\n<body>\\r\\n  <!-- Navbar ================================================== -->\\r\\n  <div class="navbar navbar-fixed-top">\\r\\n    <div class="navbar-inner">\\r\\n      <div class="container">\\r\\n\\t<!-- the next tag is necessary for bootstrap menus, do not remove -->\\r\\n\\t<a class="btn btn-navbar" data-toggle="collapse" data-target=".nav-collapse">\\r\\n          <span class="icon-bar"></span>\\r\\n          <span class="icon-bar"></span>\\r\\n          <span class="icon-bar"></span>\\r\\n        </a>\\r\\n\\t<a class="brand" href="#">web2py&trade;&nbsp;</a>\\r\\n\\t<div id="navbar">\', escape=False)\n#=\'auth\' in globals() and auth.navbar() or \'\'\nresponse.write(\'</div>\\r\\n\\t<div class="nav-collapse">\\r\\n\\t  \', escape=False)\nis_mobile=request.user_agent().is_mobile\nresponse.write(\'\\r\\n\\t  \', escape=False)\nif response.menu:\n    response.write(\'\\r\\n\\t  \', escape=False)\n    response.write(MENU(response.menu, _class=\'mobile-menu nav\' if is_mobile else \'nav\',mobile=is_mobile,li_class=\'dropdown\',ul_class=\'dropdown-menu\'))\n    response.write(\'\\r\\n\\t  \', escape=False)\n    pass\nresponse.write(\'\\r\\n\\t</div><!--/.nav-collapse -->\\r\\n      </div>\\r\\n    </div>\\r\\n  </div><!--/top navbar -->\\r\\n  \\r\\n  <div class="container">\\r\\n    <div class="flash">\', escape=False)\nresponse.write(response.flash or \'\')\nresponse.write(\'</div>\\r\\n\\r\\n    <!-- Masthead ================================================== -->\\r\\n    <header class="mastheader" id="header">\\r\\n      <div class="page-header">\\r\\n\\t<h1>\\r\\n\\t  \', escape=False)\nresponse.write(response.title or request.application)\nresponse.write(\'\\r\\n\\t  <small>\', escape=False)\nresponse.write(response.subtitle or \'\')\nresponse.write(\'</small>\\r\\n\\t</h1>\\r\\n      </div>\\r\\n    </header>\\r\\n    \\r\\n    <section id="main" class="main span12">\\r\\n      <div class="row">\\r\\n\\t\', escape=False)\nif left_sidebar_enabled:\n    response.write(\'\\r\\n\\t<div class="span3 left-sidebar">\\r\\n\\t  \', escape=False)\n    response.write(\'\\r\\n\\t  <h3>Left Sidebar</h3>\\r\\n\\t  <p></p>\\r\\n\\t  \', escape=False)\n    response.write(\'\\r\\n\\t</div>\\r\\n\\t\', escape=False)\n    pass\nresponse.write(\'\\r\\n\\t\\r\\n\\t<div class="\', escape=False)\nresponse.write(middle_columns)\nresponse.write(\'">\\r\\n\\t  \', escape=False)\nresponse.write(\'\\r\\n\\t  \', escape=False)\nresponse.write("\\n<div id=\'form\'>\\n", escape=False)\nresponse.write(formulario)\nresponse.write(\'\\n</div>\\n\', escape=False)\nresponse.write(\'\\r\\n\\t  \', escape=False)\nresponse.write(\'\\r\\n\\t</div>\\r\\n\\t\\r\\n\\t\', escape=False)\nif right_sidebar_enabled:\n    response.write(\'\\r\\n\\t<div class="span3">\\r\\n\\t  \', escape=False)\n    response.write(\'\\r\\n\\t  <h3>Right Sidebar</h3>\\r\\n\\t  <p></p>\\r\\n\\t  \', escape=False)\n    response.write(\'\\r\\n\\t</div>    \\r\\n\\t\', escape=False)\n    pass\nresponse.write(\'\\r\\n      </div><!--/row-->\\r\\n    </section><!--/main-->\\r\\n    \\r\\n    <!-- Footer ================================================== -->\\r\\n    <footer class="footer">\\r\\n      \', escape=False)\nresponse.write(\' <!-- this is default footer -->\\r\\n      <div class="footer-content">\\r\\n\\t<div class="copyright pull-left">\', escape=False)\nresponse.write(T(\'Copyright\'))\nresponse.write(\' &#169; \', escape=False)\nresponse.write(request.now.year)\nresponse.write(\'</div>\\r\\n\\t<div id="poweredBy" class="pull-right">\\r\\n\\t  \', escape=False)\nresponse.write(T(\'Powered by\'))\nresponse.write(\'\\r\\n\\t  <a href="http://www.web2py.com/">web2py</a>\\r\\n\\t</div>\\r\\n      </div>\\r\\n      \', escape=False)\nresponse.write(\'\\r\\n    </footer>\\r\\n    \\r\\n  </div> <!-- /container -->\\r\\n  \\r\\n  <!-- The javascript =============================================\\r\\n       (Placed at the end of the document so the pages load faster) -->\\r\\n  <script>\\r\\n    // this code improves bootstrap menus and adds dropdown support\\r\\n    jQuery(function(){\\r\\n      jQuery(\\\'.nav>li>a\\\').each(function(){\\t        \\r\\n        if(jQuery(this).parent().find(\\\'ul\\\').length)\\r\\n          jQuery(this).attr({\\\'class\\\':\\\'dropdown-toggle\\\',\\\'data-toggle\\\':\\\'dropdown\\\'}).append(\\\'<b class="caret"></b>\\\');\\r\\n      });\\r\\n      jQuery(\\\'.nav li li\\\').each(function(){\\t        \\r\\n        if(jQuery(this).find(\\\'ul\\\').length)\\r\\n          jQuery(this).children(\\\'a\\\').contents().before(\\\'<i class="chevron-right"></i>\\\'); \\r\\n      });\\r\\n      if(jQuery(document).width()>=980) {\\r\\n        jQuery(\\\'ul.nav li.dropdown\\\').hover(function() {\\r\\n          jQuery(this).find(\\\'.dropdown-menu\\\').stop(true, true).delay(200).fadeIn(); \\r\\n        }, function() {\\r\\n          jQuery(this).find(\\\'.dropdown-menu\\\').stop(true, true).delay(200).fadeOut(); \\r\\n        });\\r\\n      }\\r\\n      jQuery(\\\'ul.nav li.dropdown a\\\').click(function(){window.location=jQuery(this).attr(\\\'href\\\');});\\r\\n    });\\r\\n  </script>  \\r\\n  <script src="\', escape=False)\nresponse.write(URL(\'static\',\'js/bootstrap.min.js\'))\nresponse.write(\'"></script>  \\r\\n  <!--[if lt IE 7 ]>\\r\\n      <script src="\', escape=False)\nresponse.write(URL(\'static\',\'js/dd_belatedpng.js\'))\nresponse.write(\'"></script>\\r\\n      <script> DD_belatedPNG.fix(\\\'img, .png_bg\\\'); //fix any <img> or .png_bg background-images </script>\\r\\n      <![endif]-->\\r\\n  \', escape=False)\nif response.google_analytics_id:\n    response.write(\'<script type="text/javascript"> var _gaq = _gaq || []; _gaq.push([\\\'_setAccount\\\', \\\'\', escape=False)\n    response.write(response.google_analytics_id)\n    response.write("\']); _gaq.push([\'_trackPageview\']); (function() { var ga = document.createElement(\'script\'); ga.type = \'text/javascript\'; ga.async = true; ga.src = (\'https:\' == document.location.protocol ? \'https://ssl\' : \'http://www\') + \'.google-analytics.com/ga.js\'; var s = document.getElementsByTagName(\'script\')[0]; s.parentNode.insertBefore(ga, s); })(); </script> ", escape=False)\n    pass\nresponse.write(\'\\r\\n  <script src="\', escape=False)\nresponse.write(URL(\'static\',\'js/share.js\',vars=dict(static=URL(\'static\',\'images\'))))\nresponse.write(\'"></script>  \\r\\n</body>\\r\\n</html>\\r\\n\', escape=False)'
p7
sS'snapshot'
p8
(dp9
S'exception'
p10
(dp11
S'__hash__'
p12
S"<method-wrapper '__hash__' of exceptions.NameError object>"
p13
sS'__setattr__'
p14
S"<method-wrapper '__setattr__' of exceptions.NameError object>"
p15
sS'__reduce_ex__'
p16
S'<built-in method __reduce_ex__ of exceptions.NameError object>'
p17
sS'__getslice__'
p18
S"<method-wrapper '__getslice__' of exceptions.NameError object>"
p19
sS'__getitem__'
p20
S"<method-wrapper '__getitem__' of exceptions.NameError object>"
p21
sS'__setstate__'
p22
S'<built-in method __setstate__ of exceptions.NameError object>'
p23
sS'__reduce__'
p24
S'<built-in method __reduce__ of exceptions.NameError object>'
p25
sS'__str__'
p26
S"<method-wrapper '__str__' of exceptions.NameError object>"
p27
sS'__format__'
p28
S'<built-in method __format__ of exceptions.NameError object>'
p29
sS'__getattribute__'
p30
S"<method-wrapper '__getattribute__' of exceptions.NameError object>"
p31
sS'__class__'
p32
S"<type 'exceptions.NameError'>"
p33
sS'__unicode__'
p34
S'<built-in method __unicode__ of exceptions.NameError object>'
p35
sS'__delattr__'
p36
S"<method-wrapper '__delattr__' of exceptions.NameError object>"
p37
sS'__subclasshook__'
p38
S'<built-in method __subclasshook__ of type object>'
p39
sS'__repr__'
p40
S"<method-wrapper '__repr__' of exceptions.NameError object>"
p41
sS'args'
p42
S'("name \'formulario\' is not defined",)'
p43
sS'__dict__'
p44
S'{}'
p45
sS'__sizeof__'
p46
S'<built-in method __sizeof__ of exceptions.NameError object>'
p47
sS'__doc__'
p48
S"'Name not found globally.'"
p49
sS'__init__'
p50
S"<method-wrapper '__init__' of exceptions.NameError object>"
p51
sS'__new__'
p52
S'<built-in method __new__ of type object>'
p53
ssS'evalue'
p54
S"name 'formulario' is not defined"
p55
sS'request'
p56
ccopy_reg
_reconstructor
p57
(cgluon.html
BEAUTIFY
p58
c__builtin__
object
p59
NtRp60
(dp61
S'attributes'
p62
(dp63
sS'components'
p64
(lp65
g57
(cgluon.html
TABLE
p66
g59
NtRp67
(dp68
g62
(dp69
S'level'
p70
I5
ssS'parent'
p71
Nsg64
(lp72
g57
(cgluon.html
TR
p73
g59
NtRp74
(dp75
g62
(dp76
sg71
g67
sg64
(lp77
g57
(cgluon.html
TD
p78
g59
NtRp79
(dp80
g62
(dp81
S'_style'
p82
S'font-weight:bold;vertical-align:top'
p83
ssg71
g74
sg64
(lp84
S'ajax'
p85
asbag57
(g78
g59
NtRp86
(dp87
g62
(dp88
S'_valign'
p89
S'top'
p90
ssg71
g74
sg64
(lp91
S':'
asbag57
(g78
g59
NtRp92
(dp93
g62
(dp94
sg71
g74
sg64
(lp95
g57
(g58
g59
NtRp96
(dp97
g62
(dp98
g70
I5
ssg71
g92
sg64
(lp99
S'False'
p100
asbasbasbag57
(g73
g59
NtRp101
(dp102
g62
(dp103
sg71
g67
sg64
(lp104
g57
(g78
g59
NtRp105
(dp106
g62
(dp107
g82
g83
ssg71
g101
sg64
(lp108
S'application'
p109
asbag57
(g78
g59
NtRp110
(dp111
g62
(dp112
g89
g90
ssg71
g101
sg64
(lp113
S':'
asbag57
(g78
g59
NtRp114
(dp115
g62
(dp116
sg71
g101
sg64
(lp117
g57
(g58
g59
NtRp118
(dp119
g62
(dp120
g70
I5
ssg71
g114
sg64
(lp121
S'proyecto_webcast'
p122
asbasbasbag57
(g73
g59
NtRp123
(dp124
g62
(dp125
sg71
g67
sg64
(lp126
g57
(g78
g59
NtRp127
(dp128
g62
(dp129
g82
g83
ssg71
g123
sg64
(lp130
g42
asbag57
(g78
g59
NtRp131
(dp132
g62
(dp133
g89
g90
ssg71
g123
sg64
(lp134
S':'
asbag57
(g78
g59
NtRp135
(dp136
g62
(dp137
sg71
g123
sg64
(lp138
g57
(g58
g59
NtRp139
(dp140
g62
(dp141
g70
I5
ssg71
g135
sg64
(lp142
g57
(g66
g59
NtRp143
(dp144
g62
(dp145
g70
I4
ssg71
Nsg64
(lp146
sbasbasbasbag57
(g73
g59
NtRp147
(dp148
g62
(dp149
sg71
g67
sg64
(lp150
g57
(g78
g59
NtRp151
(dp152
g62
(dp153
g82
g83
ssg71
g147
sg64
(lp154
S'body'
p155
asbag57
(g78
g59
NtRp156
(dp157
g62
(dp158
g89
g90
ssg71
g147
sg64
(lp159
S':'
asbag57
(g78
g59
NtRp160
(dp161
g62
(dp162
sg71
g147
sg64
(lp163
g57
(g58
g59
NtRp164
(dp165
g62
(dp166
g70
I5
ssg71
g160
sg64
(lp167
S'<cStringIO.StringO object at 0xae532c20>'
p168
asbasbasbag57
(g73
g59
NtRp169
(dp170
g62
(dp171
sg71
g67
sg64
(lp172
g57
(g78
g59
NtRp173
(dp174
g62
(dp175
g82
g83
ssg71
g169
sg64
(lp176
S'cid'
p177
asbag57
(g78
g59
NtRp178
(dp179
g62
(dp180
g89
g90
ssg71
g169
sg64
(lp181
S':'
asbag57
(g78
g59
NtRp182
(dp183
g62
(dp184
sg71
g169
sg64
(lp185
g57
(g58
g59
NtRp186
(dp187
g62
(dp188
g70
I5
ssg71
g182
sg64
(lp189
S'None'
p190
asbasbasbag57
(g73
g59
NtRp191
(dp192
g62
(dp193
sg71
g67
sg64
(lp194
g57
(g78
g59
NtRp195
(dp196
g62
(dp197
g82
g83
ssg71
g191
sg64
(lp198
S'client'
p199
asbag57
(g78
g59
NtRp200
(dp201
g62
(dp202
g89
g90
ssg71
g191
sg64
(lp203
S':'
asbag57
(g78
g59
NtRp204
(dp205
g62
(dp206
sg71
g191
sg64
(lp207
g57
(g58
g59
NtRp208
(dp209
g62
(dp210
g70
I5
ssg71
g204
sg64
(lp211
S'127.0.0.1'
p212
asbasbasbag57
(g73
g59
NtRp213
(dp214
g62
(dp215
sg71
g67
sg64
(lp216
g57
(g78
g59
NtRp217
(dp218
g62
(dp219
g82
g83
ssg71
g213
sg64
(lp220
S'controller'
p221
asbag57
(g78
g59
NtRp222
(dp223
g62
(dp224
g89
g90
ssg71
g213
sg64
(lp225
S':'
asbag57
(g78
g59
NtRp226
(dp227
g62
(dp228
sg71
g213
sg64
(lp229
g57
(g58
g59
NtRp230
(dp231
g62
(dp232
g70
I5
ssg71
g226
sg64
(lp233
S'default'
p234
asbasbasbag57
(g73
g59
NtRp235
(dp236
g62
(dp237
sg71
g67
sg64
(lp238
g57
(g78
g59
NtRp239
(dp240
g62
(dp241
g82
g83
ssg71
g235
sg64
(lp242
S'cookies'
p243
asbag57
(g78
g59
NtRp244
(dp245
g62
(dp246
g89
g90
ssg71
g235
sg64
(lp247
S':'
asbag57
(g78
g59
NtRp248
(dp249
g62
(dp250
sg71
g235
sg64
(lp251
g57
(g58
g59
NtRp252
(dp253
g62
(dp254
g70
I5
ssg71
g248
sg64
(lp255
g57
(g66
g59
NtRp256
(dp257
g62
(dp258
g70
I4
ssg71
Nsg64
(lp259
g57
(g73
g59
NtRp260
(dp261
g62
(dp262
sg71
g256
sg64
(lp263
g57
(g78
g59
NtRp264
(dp265
g62
(dp266
g82
g83
ssg71
g260
sg64
(lp267
S'CP.mode'
p268
asbag57
(g78
g59
NtRp269
(dp270
g62
(dp271
g89
g90
ssg71
g260
sg64
(lp272
S':'
asbag57
(g78
g59
NtRp273
(dp274
g62
(dp275
sg71
g260
sg64
(lp276
g57
(g58
g59
NtRp277
(dp278
g62
(dp279
g70
I4
ssg71
g273
sg64
(lp280
S'B'
ag57
(g66
g59
NtRp281
(dp282
g62
(dp283
g70
I3
ssg71
Nsg64
(lp284
g57
(g73
g59
NtRp285
(dp286
g62
(dp287
sg71
g281
sg64
(lp288
g57
(g78
g59
NtRp289
(dp290
g62
(dp291
g82
g83
ssg71
g285
sg64
(lp292
S'comment'
p293
asbag57
(g78
g59
NtRp294
(dp295
g62
(dp296
g89
g90
ssg71
g285
sg64
(lp297
S':'
asbag57
(g78
g59
NtRp298
(dp299
g62
(dp300
sg71
g285
sg64
(lp301
g57
(g58
g59
NtRp302
(dp303
g62
(dp304
g70
I3
ssg71
g298
sg64
(lp305
S''
asbasbasbag57
(g73
g59
NtRp306
(dp307
g62
(dp308
sg71
g281
sg64
(lp309
g57
(g78
g59
NtRp310
(dp311
g62
(dp312
g82
g83
ssg71
g306
sg64
(lp313
S'domain'
p314
asbag57
(g78
g59
NtRp315
(dp316
g62
(dp317
g89
g90
ssg71
g306
sg64
(lp318
S':'
asbag57
(g78
g59
NtRp319
(dp320
g62
(dp321
sg71
g306
sg64
(lp322
g57
(g58
g59
NtRp323
(dp324
g62
(dp325
g70
I3
ssg71
g319
sg64
(lp326
S''
asbasbasbag57
(g73
g59
NtRp327
(dp328
g62
(dp329
sg71
g281
sg64
(lp330
g57
(g78
g59
NtRp331
(dp332
g62
(dp333
g82
g83
ssg71
g327
sg64
(lp334
S'expires'
p335
asbag57
(g78
g59
NtRp336
(dp337
g62
(dp338
g89
g90
ssg71
g327
sg64
(lp339
S':'
asbag57
(g78
g59
NtRp340
(dp341
g62
(dp342
sg71
g327
sg64
(lp343
g57
(g58
g59
NtRp344
(dp345
g62
(dp346
g70
I3
ssg71
g340
sg64
(lp347
S''
asbasbasbag57
(g73
g59
NtRp348
(dp349
g62
(dp350
sg71
g281
sg64
(lp351
g57
(g78
g59
NtRp352
(dp353
g62
(dp354
g82
g83
ssg71
g348
sg64
(lp355
S'httponly'
p356
asbag57
(g78
g59
NtRp357
(dp358
g62
(dp359
g89
g90
ssg71
g348
sg64
(lp360
S':'
asbag57
(g78
g59
NtRp361
(dp362
g62
(dp363
sg71
g348
sg64
(lp364
g57
(g58
g59
NtRp365
(dp366
g62
(dp367
g70
I3
ssg71
g361
sg64
(lp368
S''
asbasbasbag57
(g73
g59
NtRp369
(dp370
g62
(dp371
sg71
g281
sg64
(lp372
g57
(g78
g59
NtRp373
(dp374
g62
(dp375
g82
g83
ssg71
g369
sg64
(lp376
S'max-age'
p377
asbag57
(g78
g59
NtRp378
(dp379
g62
(dp380
g89
g90
ssg71
g369
sg64
(lp381
S':'
asbag57
(g78
g59
NtRp382
(dp383
g62
(dp384
sg71
g369
sg64
(lp385
g57
(g58
g59
NtRp386
(dp387
g62
(dp388
g70
I3
ssg71
g382
sg64
(lp389
S''
asbasbasbag57
(g73
g59
NtRp390
(dp391
g62
(dp392
sg71
g281
sg64
(lp393
g57
(g78
g59
NtRp394
(dp395
g62
(dp396
g82
g83
ssg71
g390
sg64
(lp397
S'path'
p398
asbag57
(g78
g59
NtRp399
(dp400
g62
(dp401
g89
g90
ssg71
g390
sg64
(lp402
S':'
asbag57
(g78
g59
NtRp403
(dp404
g62
(dp405
sg71
g390
sg64
(lp406
g57
(g58
g59
NtRp407
(dp408
g62
(dp409
g70
I3
ssg71
g403
sg64
(lp410
S''
asbasbasbag57
(g73
g59
NtRp411
(dp412
g62
(dp413
sg71
g281
sg64
(lp414
g57
(g78
g59
NtRp415
(dp416
g62
(dp417
g82
g83
ssg71
g411
sg64
(lp418
S'secure'
p419
asbag57
(g78
g59
NtRp420
(dp421
g62
(dp422
g89
g90
ssg71
g411
sg64
(lp423
S':'
asbag57
(g78
g59
NtRp424
(dp425
g62
(dp426
sg71
g411
sg64
(lp427
g57
(g58
g59
NtRp428
(dp429
g62
(dp430
g70
I3
ssg71
g424
sg64
(lp431
S''
asbasbasbag57
(g73
g59
NtRp432
(dp433
g62
(dp434
sg71
g281
sg64
(lp435
g57
(g78
g59
NtRp436
(dp437
g62
(dp438
g82
g83
ssg71
g432
sg64
(lp439
S'version'
p440
asbag57
(g78
g59
NtRp441
(dp442
g62
(dp443
g89
g90
ssg71
g432
sg64
(lp444
S':'
asbag57
(g78
g59
NtRp445
(dp446
g62
(dp447
sg71
g432
sg64
(lp448
g57
(g58
g59
NtRp449
(dp450
g62
(dp451
g70
I3
ssg71
g445
sg64
(lp452
S''
asbasbasbasbasbasbasbag57
(g73
g59
NtRp453
(dp454
g62
(dp455
sg71
g256
sg64
(lp456
g57
(g78
g59
NtRp457
(dp458
g62
(dp459
g82
g83
ssg71
g453
sg64
(lp460
S'PHPSESSID'
p461
asbag57
(g78
g59
NtRp462
(dp463
g62
(dp464
g89
g90
ssg71
g453
sg64
(lp465
S':'
asbag57
(g78
g59
NtRp466
(dp467
g62
(dp468
sg71
g453
sg64
(lp469
g57
(g58
g59
NtRp470
(dp471
g62
(dp472
g70
I4
ssg71
g466
sg64
(lp473
S's5drhn7fvaqkm891pj8ls1frb6'
p474
ag57
(g66
g59
NtRp475
(dp476
g62
(dp477
g70
I3
ssg71
Nsg64
(lp478
g57
(g73
g59
NtRp479
(dp480
g62
(dp481
sg71
g475
sg64
(lp482
g57
(g78
g59
NtRp483
(dp484
g62
(dp485
g82
g83
ssg71
g479
sg64
(lp486
g293
asbag57
(g78
g59
NtRp487
(dp488
g62
(dp489
g89
g90
ssg71
g479
sg64
(lp490
S':'
asbag57
(g78
g59
NtRp491
(dp492
g62
(dp493
sg71
g479
sg64
(lp494
g57
(g58
g59
NtRp495
(dp496
g62
(dp497
g70
I3
ssg71
g491
sg64
(lp498
S''
asbasbasbag57
(g73
g59
NtRp499
(dp500
g62
(dp501
sg71
g475
sg64
(lp502
g57
(g78
g59
NtRp503
(dp504
g62
(dp505
g82
g83
ssg71
g499
sg64
(lp506
g314
asbag57
(g78
g59
NtRp507
(dp508
g62
(dp509
g89
g90
ssg71
g499
sg64
(lp510
S':'
asbag57
(g78
g59
NtRp511
(dp512
g62
(dp513
sg71
g499
sg64
(lp514
g57
(g58
g59
NtRp515
(dp516
g62
(dp517
g70
I3
ssg71
g511
sg64
(lp518
S''
asbasbasbag57
(g73
g59
NtRp519
(dp520
g62
(dp521
sg71
g475
sg64
(lp522
g57
(g78
g59
NtRp523
(dp524
g62
(dp525
g82
g83
ssg71
g519
sg64
(lp526
g335
asbag57
(g78
g59
NtRp527
(dp528
g62
(dp529
g89
g90
ssg71
g519
sg64
(lp530
S':'
asbag57
(g78
g59
NtRp531
(dp532
g62
(dp533
sg71
g519
sg64
(lp534
g57
(g58
g59
NtRp535
(dp536
g62
(dp537
g70
I3
ssg71
g531
sg64
(lp538
S''
asbasbasbag57
(g73
g59
NtRp539
(dp540
g62
(dp541
sg71
g475
sg64
(lp542
g57
(g78
g59
NtRp543
(dp544
g62
(dp545
g82
g83
ssg71
g539
sg64
(lp546
g356
asbag57
(g78
g59
NtRp547
(dp548
g62
(dp549
g89
g90
ssg71
g539
sg64
(lp550
S':'
asbag57
(g78
g59
NtRp551
(dp552
g62
(dp553
sg71
g539
sg64
(lp554
g57
(g58
g59
NtRp555
(dp556
g62
(dp557
g70
I3
ssg71
g551
sg64
(lp558
S''
asbasbasbag57
(g73
g59
NtRp559
(dp560
g62
(dp561
sg71
g475
sg64
(lp562
g57
(g78
g59
NtRp563
(dp564
g62
(dp565
g82
g83
ssg71
g559
sg64
(lp566
g377
asbag57
(g78
g59
NtRp567
(dp568
g62
(dp569
g89
g90
ssg71
g559
sg64
(lp570
S':'
asbag57
(g78
g59
NtRp571
(dp572
g62
(dp573
sg71
g559
sg64
(lp574
g57
(g58
g59
NtRp575
(dp576
g62
(dp577
g70
I3
ssg71
g571
sg64
(lp578
S''
asbasbasbag57
(g73
g59
NtRp579
(dp580
g62
(dp581
sg71
g475
sg64
(lp582
g57
(g78
g59
NtRp583
(dp584
g62
(dp585
g82
g83
ssg71
g579
sg64
(lp586
g398
asbag57
(g78
g59
NtRp587
(dp588
g62
(dp589
g89
g90
ssg71
g579
sg64
(lp590
S':'
asbag57
(g78
g59
NtRp591
(dp592
g62
(dp593
sg71
g579
sg64
(lp594
g57
(g58
g59
NtRp595
(dp596
g62
(dp597
g70
I3
ssg71
g591
sg64
(lp598
S''
asbasbasbag57
(g73
g59
NtRp599
(dp600
g62
(dp601
sg71
g475
sg64
(lp602
g57
(g78
g59
NtRp603
(dp604
g62
(dp605
g82
g83
ssg71
g599
sg64
(lp606
g419
asbag57
(g78
g59
NtRp607
(dp608
g62
(dp609
g89
g90
ssg71
g599
sg64
(lp610
S':'
asbag57
(g78
g59
NtRp611
(dp612
g62
(dp613
sg71
g599
sg64
(lp614
g57
(g58
g59
NtRp615
(dp616
g62
(dp617
g70
I3
ssg71
g611
sg64
(lp618
S''
asbasbasbag57
(g73
g59
NtRp619
(dp620
g62
(dp621
sg71
g475
sg64
(lp622
g57
(g78
g59
NtRp623
(dp624
g62
(dp625
g82
g83
ssg71
g619
sg64
(lp626
g440
asbag57
(g78
g59
NtRp627
(dp628
g62
(dp629
g89
g90
ssg71
g619
sg64
(lp630
S':'
asbag57
(g78
g59
NtRp631
(dp632
g62
(dp633
sg71
g619
sg64
(lp634
g57
(g58
g59
NtRp635
(dp636
g62
(dp637
g70
I3
ssg71
g631
sg64
(lp638
S''
asbasbasbasbasbasbasbag57
(g73
g59
NtRp639
(dp640
g62
(dp641
sg71
g256
sg64
(lp642
g57
(g78
g59
NtRp643
(dp644
g62
(dp645
g82
g83
ssg71
g639
sg64
(lp646
S'session_id_admin'
p647
asbag57
(g78
g59
NtRp648
(dp649
g62
(dp650
g89
g90
ssg71
g639
sg64
(lp651
S':'
asbag57
(g78
g59
NtRp652
(dp653
g62
(dp654
sg71
g639
sg64
(lp655
g57
(g58
g59
NtRp656
(dp657
g62
(dp658
g70
I4
ssg71
g652
sg64
(lp659
S'127.0.0.1-c56b24a4-31bb-46fd-8649-53a36305f5bf'
p660
ag57
(g66
g59
NtRp661
(dp662
g62
(dp663
g70
I3
ssg71
Nsg64
(lp664
g57
(g73
g59
NtRp665
(dp666
g62
(dp667
sg71
g661
sg64
(lp668
g57
(g78
g59
NtRp669
(dp670
g62
(dp671
g82
g83
ssg71
g665
sg64
(lp672
g293
asbag57
(g78
g59
NtRp673
(dp674
g62
(dp675
g89
g90
ssg71
g665
sg64
(lp676
S':'
asbag57
(g78
g59
NtRp677
(dp678
g62
(dp679
sg71
g665
sg64
(lp680
g57
(g58
g59
NtRp681
(dp682
g62
(dp683
g70
I3
ssg71
g677
sg64
(lp684
S''
asbasbasbag57
(g73
g59
NtRp685
(dp686
g62
(dp687
sg71
g661
sg64
(lp688
g57
(g78
g59
NtRp689
(dp690
g62
(dp691
g82
g83
ssg71
g685
sg64
(lp692
g314
asbag57
(g78
g59
NtRp693
(dp694
g62
(dp695
g89
g90
ssg71
g685
sg64
(lp696
S':'
asbag57
(g78
g59
NtRp697
(dp698
g62
(dp699
sg71
g685
sg64
(lp700
g57
(g58
g59
NtRp701
(dp702
g62
(dp703
g70
I3
ssg71
g697
sg64
(lp704
S''
asbasbasbag57
(g73
g59
NtRp705
(dp706
g62
(dp707
sg71
g661
sg64
(lp708
g57
(g78
g59
NtRp709
(dp710
g62
(dp711
g82
g83
ssg71
g705
sg64
(lp712
g335
asbag57
(g78
g59
NtRp713
(dp714
g62
(dp715
g89
g90
ssg71
g705
sg64
(lp716
S':'
asbag57
(g78
g59
NtRp717
(dp718
g62
(dp719
sg71
g705
sg64
(lp720
g57
(g58
g59
NtRp721
(dp722
g62
(dp723
g70
I3
ssg71
g717
sg64
(lp724
S''
asbasbasbag57
(g73
g59
NtRp725
(dp726
g62
(dp727
sg71
g661
sg64
(lp728
g57
(g78
g59
NtRp729
(dp730
g62
(dp731
g82
g83
ssg71
g725
sg64
(lp732
g356
asbag57
(g78
g59
NtRp733
(dp734
g62
(dp735
g89
g90
ssg71
g725
sg64
(lp736
S':'
asbag57
(g78
g59
NtRp737
(dp738
g62
(dp739
sg71
g725
sg64
(lp740
g57
(g58
g59
NtRp741
(dp742
g62
(dp743
g70
I3
ssg71
g737
sg64
(lp744
S''
asbasbasbag57
(g73
g59
NtRp745
(dp746
g62
(dp747
sg71
g661
sg64
(lp748
g57
(g78
g59
NtRp749
(dp750
g62
(dp751
g82
g83
ssg71
g745
sg64
(lp752
g377
asbag57
(g78
g59
NtRp753
(dp754
g62
(dp755
g89
g90
ssg71
g745
sg64
(lp756
S':'
asbag57
(g78
g59
NtRp757
(dp758
g62
(dp759
sg71
g745
sg64
(lp760
g57
(g58
g59
NtRp761
(dp762
g62
(dp763
g70
I3
ssg71
g757
sg64
(lp764
S''
asbasbasbag57
(g73
g59
NtRp765
(dp766
g62
(dp767
sg71
g661
sg64
(lp768
g57
(g78
g59
NtRp769
(dp770
g62
(dp771
g82
g83
ssg71
g765
sg64
(lp772
g398
asbag57
(g78
g59
NtRp773
(dp774
g62
(dp775
g89
g90
ssg71
g765
sg64
(lp776
S':'
asbag57
(g78
g59
NtRp777
(dp778
g62
(dp779
sg71
g765
sg64
(lp780
g57
(g58
g59
NtRp781
(dp782
g62
(dp783
g70
I3
ssg71
g777
sg64
(lp784
S''
asbasbasbag57
(g73
g59
NtRp785
(dp786
g62
(dp787
sg71
g661
sg64
(lp788
g57
(g78
g59
NtRp789
(dp790
g62
(dp791
g82
g83
ssg71
g785
sg64
(lp792
g419
asbag57
(g78
g59
NtRp793
(dp794
g62
(dp795
g89
g90
ssg71
g785
sg64
(lp796
S':'
asbag57
(g78
g59
NtRp797
(dp798
g62
(dp799
sg71
g785
sg64
(lp800
g57
(g58
g59
NtRp801
(dp802
g62
(dp803
g70
I3
ssg71
g797
sg64
(lp804
S''
asbasbasbag57
(g73
g59
NtRp805
(dp806
g62
(dp807
sg71
g661
sg64
(lp808
g57
(g78
g59
NtRp809
(dp810
g62
(dp811
g82
g83
ssg71
g805
sg64
(lp812
g440
asbag57
(g78
g59
NtRp813
(dp814
g62
(dp815
g89
g90
ssg71
g805
sg64
(lp816
S':'
asbag57
(g78
g59
NtRp817
(dp818
g62
(dp819
sg71
g805
sg64
(lp820
g57
(g58
g59
NtRp821
(dp822
g62
(dp823
g70
I3
ssg71
g817
sg64
(lp824
S''
asbasbasbasbasbasbasbag57
(g73
g59
NtRp825
(dp826
g62
(dp827
sg71
g256
sg64
(lp828
g57
(g78
g59
NtRp829
(dp830
g62
(dp831
g82
g83
ssg71
g825
sg64
(lp832
S'session_id_proyecto_webcast'
p833
asbag57
(g78
g59
NtRp834
(dp835
g62
(dp836
g89
g90
ssg71
g825
sg64
(lp837
S':'
asbag57
(g78
g59
NtRp838
(dp839
g62
(dp840
sg71
g825
sg64
(lp841
g57
(g58
g59
NtRp842
(dp843
g62
(dp844
g70
I4
ssg71
g838
sg64
(lp845
S'127.0.0.1-3575e940-2aa6-4413-a80f-60a8b60379f5'
p846
ag57
(g66
g59
NtRp847
(dp848
g62
(dp849
g70
I3
ssg71
Nsg64
(lp850
g57
(g73
g59
NtRp851
(dp852
g62
(dp853
sg71
g847
sg64
(lp854
g57
(g78
g59
NtRp855
(dp856
g62
(dp857
g82
g83
ssg71
g851
sg64
(lp858
g293
asbag57
(g78
g59
NtRp859
(dp860
g62
(dp861
g89
g90
ssg71
g851
sg64
(lp862
S':'
asbag57
(g78
g59
NtRp863
(dp864
g62
(dp865
sg71
g851
sg64
(lp866
g57
(g58
g59
NtRp867
(dp868
g62
(dp869
g70
I3
ssg71
g863
sg64
(lp870
S''
asbasbasbag57
(g73
g59
NtRp871
(dp872
g62
(dp873
sg71
g847
sg64
(lp874
g57
(g78
g59
NtRp875
(dp876
g62
(dp877
g82
g83
ssg71
g871
sg64
(lp878
g314
asbag57
(g78
g59
NtRp879
(dp880
g62
(dp881
g89
g90
ssg71
g871
sg64
(lp882
S':'
asbag57
(g78
g59
NtRp883
(dp884
g62
(dp885
sg71
g871
sg64
(lp886
g57
(g58
g59
NtRp887
(dp888
g62
(dp889
g70
I3
ssg71
g883
sg64
(lp890
S''
asbasbasbag57
(g73
g59
NtRp891
(dp892
g62
(dp893
sg71
g847
sg64
(lp894
g57
(g78
g59
NtRp895
(dp896
g62
(dp897
g82
g83
ssg71
g891
sg64
(lp898
g335
asbag57
(g78
g59
NtRp899
(dp900
g62
(dp901
g89
g90
ssg71
g891
sg64
(lp902
S':'
asbag57
(g78
g59
NtRp903
(dp904
g62
(dp905
sg71
g891
sg64
(lp906
g57
(g58
g59
NtRp907
(dp908
g62
(dp909
g70
I3
ssg71
g903
sg64
(lp910
S''
asbasbasbag57
(g73
g59
NtRp911
(dp912
g62
(dp913
sg71
g847
sg64
(lp914
g57
(g78
g59
NtRp915
(dp916
g62
(dp917
g82
g83
ssg71
g911
sg64
(lp918
g356
asbag57
(g78
g59
NtRp919
(dp920
g62
(dp921
g89
g90
ssg71
g911
sg64
(lp922
S':'
asbag57
(g78
g59
NtRp923
(dp924
g62
(dp925
sg71
g911
sg64
(lp926
g57
(g58
g59
NtRp927
(dp928
g62
(dp929
g70
I3
ssg71
g923
sg64
(lp930
S''
asbasbasbag57
(g73
g59
NtRp931
(dp932
g62
(dp933
sg71
g847
sg64
(lp934
g57
(g78
g59
NtRp935
(dp936
g62
(dp937
g82
g83
ssg71
g931
sg64
(lp938
g377
asbag57
(g78
g59
NtRp939
(dp940
g62
(dp941
g89
g90
ssg71
g931
sg64
(lp942
S':'
asbag57
(g78
g59
NtRp943
(dp944
g62
(dp945
sg71
g931
sg64
(lp946
g57
(g58
g59
NtRp947
(dp948
g62
(dp949
g70
I3
ssg71
g943
sg64
(lp950
S''
asbasbasbag57
(g73
g59
NtRp951
(dp952
g62
(dp953
sg71
g847
sg64
(lp954
g57
(g78
g59
NtRp955
(dp956
g62
(dp957
g82
g83
ssg71
g951
sg64
(lp958
g398
asbag57
(g78
g59
NtRp959
(dp960
g62
(dp961
g89
g90
ssg71
g951
sg64
(lp962
S':'
asbag57
(g78
g59
NtRp963
(dp964
g62
(dp965
sg71
g951
sg64
(lp966
g57
(g58
g59
NtRp967
(dp968
g62
(dp969
g70
I3
ssg71
g963
sg64
(lp970
S''
asbasbasbag57
(g73
g59
NtRp971
(dp972
g62
(dp973
sg71
g847
sg64
(lp974
g57
(g78
g59
NtRp975
(dp976
g62
(dp977
g82
g83
ssg71
g971
sg64
(lp978
g419
asbag57
(g78
g59
NtRp979
(dp980
g62
(dp981
g89
g90
ssg71
g971
sg64
(lp982
S':'
asbag57
(g78
g59
NtRp983
(dp984
g62
(dp985
sg71
g971
sg64
(lp986
g57
(g58
g59
NtRp987
(dp988
g62
(dp989
g70
I3
ssg71
g983
sg64
(lp990
S''
asbasbasbag57
(g73
g59
NtRp991
(dp992
g62
(dp993
sg71
g847
sg64
(lp994
g57
(g78
g59
NtRp995
(dp996
g62
(dp997
g82
g83
ssg71
g991
sg64
(lp998
g440
asbag57
(g78
g59
NtRp999
(dp1000
g62
(dp1001
g89
g90
ssg71
g991
sg64
(lp1002
S':'
asbag57
(g78
g59
NtRp1003
(dp1004
g62
(dp1005
sg71
g991
sg64
(lp1006
g57
(g58
g59
NtRp1007
(dp1008
g62
(dp1009
g70
I3
ssg71
g1003
sg64
(lp1010
S''
asbasbasbasbasbasbasbag57
(g73
g59
NtRp1011
(dp1012
g62
(dp1013
sg71
g256
sg64
(lp1014
g57
(g78
g59
NtRp1015
(dp1016
g62
(dp1017
g82
g83
ssg71
g1011
sg64
(lp1018
S'session_id_saaf'
p1019
asbag57
(g78
g59
NtRp1020
(dp1021
g62
(dp1022
g89
g90
ssg71
g1011
sg64
(lp1023
S':'
asbag57
(g78
g59
NtRp1024
(dp1025
g62
(dp1026
sg71
g1011
sg64
(lp1027
g57
(g58
g59
NtRp1028
(dp1029
g62
(dp1030
g70
I4
ssg71
g1024
sg64
(lp1031
S'127.0.0.1-a5ace905-b0d7-4ad9-bad5-3f425942dffe'
p1032
ag57
(g66
g59
NtRp1033
(dp1034
g62
(dp1035
g70
I3
ssg71
Nsg64
(lp1036
g57
(g73
g59
NtRp1037
(dp1038
g62
(dp1039
sg71
g1033
sg64
(lp1040
g57
(g78
g59
NtRp1041
(dp1042
g62
(dp1043
g82
g83
ssg71
g1037
sg64
(lp1044
g293
asbag57
(g78
g59
NtRp1045
(dp1046
g62
(dp1047
g89
g90
ssg71
g1037
sg64
(lp1048
S':'
asbag57
(g78
g59
NtRp1049
(dp1050
g62
(dp1051
sg71
g1037
sg64
(lp1052
g57
(g58
g59
NtRp1053
(dp1054
g62
(dp1055
g70
I3
ssg71
g1049
sg64
(lp1056
S''
asbasbasbag57
(g73
g59
NtRp1057
(dp1058
g62
(dp1059
sg71
g1033
sg64
(lp1060
g57
(g78
g59
NtRp1061
(dp1062
g62
(dp1063
g82
g83
ssg71
g1057
sg64
(lp1064
g314
asbag57
(g78
g59
NtRp1065
(dp1066
g62
(dp1067
g89
g90
ssg71
g1057
sg64
(lp1068
S':'
asbag57
(g78
g59
NtRp1069
(dp1070
g62
(dp1071
sg71
g1057
sg64
(lp1072
g57
(g58
g59
NtRp1073
(dp1074
g62
(dp1075
g70
I3
ssg71
g1069
sg64
(lp1076
S''
asbasbasbag57
(g73
g59
NtRp1077
(dp1078
g62
(dp1079
sg71
g1033
sg64
(lp1080
g57
(g78
g59
NtRp1081
(dp1082
g62
(dp1083
g82
g83
ssg71
g1077
sg64
(lp1084
g335
asbag57
(g78
g59
NtRp1085
(dp1086
g62
(dp1087
g89
g90
ssg71
g1077
sg64
(lp1088
S':'
asbag57
(g78
g59
NtRp1089
(dp1090
g62
(dp1091
sg71
g1077
sg64
(lp1092
g57
(g58
g59
NtRp1093
(dp1094
g62
(dp1095
g70
I3
ssg71
g1089
sg64
(lp1096
S''
asbasbasbag57
(g73
g59
NtRp1097
(dp1098
g62
(dp1099
sg71
g1033
sg64
(lp1100
g57
(g78
g59
NtRp1101
(dp1102
g62
(dp1103
g82
g83
ssg71
g1097
sg64
(lp1104
g356
asbag57
(g78
g59
NtRp1105
(dp1106
g62
(dp1107
g89
g90
ssg71
g1097
sg64
(lp1108
S':'
asbag57
(g78
g59
NtRp1109
(dp1110
g62
(dp1111
sg71
g1097
sg64
(lp1112
g57
(g58
g59
NtRp1113
(dp1114
g62
(dp1115
g70
I3
ssg71
g1109
sg64
(lp1116
S''
asbasbasbag57
(g73
g59
NtRp1117
(dp1118
g62
(dp1119
sg71
g1033
sg64
(lp1120
g57
(g78
g59
NtRp1121
(dp1122
g62
(dp1123
g82
g83
ssg71
g1117
sg64
(lp1124
g377
asbag57
(g78
g59
NtRp1125
(dp1126
g62
(dp1127
g89
g90
ssg71
g1117
sg64
(lp1128
S':'
asbag57
(g78
g59
NtRp1129
(dp1130
g62
(dp1131
sg71
g1117
sg64
(lp1132
g57
(g58
g59
NtRp1133
(dp1134
g62
(dp1135
g70
I3
ssg71
g1129
sg64
(lp1136
S''
asbasbasbag57
(g73
g59
NtRp1137
(dp1138
g62
(dp1139
sg71
g1033
sg64
(lp1140
g57
(g78
g59
NtRp1141
(dp1142
g62
(dp1143
g82
g83
ssg71
g1137
sg64
(lp1144
g398
asbag57
(g78
g59
NtRp1145
(dp1146
g62
(dp1147
g89
g90
ssg71
g1137
sg64
(lp1148
S':'
asbag57
(g78
g59
NtRp1149
(dp1150
g62
(dp1151
sg71
g1137
sg64
(lp1152
g57
(g58
g59
NtRp1153
(dp1154
g62
(dp1155
g70
I3
ssg71
g1149
sg64
(lp1156
S''
asbasbasbag57
(g73
g59
NtRp1157
(dp1158
g62
(dp1159
sg71
g1033
sg64
(lp1160
g57
(g78
g59
NtRp1161
(dp1162
g62
(dp1163
g82
g83
ssg71
g1157
sg64
(lp1164
g419
asbag57
(g78
g59
NtRp1165
(dp1166
g62
(dp1167
g89
g90
ssg71
g1157
sg64
(lp1168
S':'
asbag57
(g78
g59
NtRp1169
(dp1170
g62
(dp1171
sg71
g1157
sg64
(lp1172
g57
(g58
g59
NtRp1173
(dp1174
g62
(dp1175
g70
I3
ssg71
g1169
sg64
(lp1176
S''
asbasbasbag57
(g73
g59
NtRp1177
(dp1178
g62
(dp1179
sg71
g1033
sg64
(lp1180
g57
(g78
g59
NtRp1181
(dp1182
g62
(dp1183
g82
g83
ssg71
g1177
sg64
(lp1184
g440
asbag57
(g78
g59
NtRp1185
(dp1186
g62
(dp1187
g89
g90
ssg71
g1177
sg64
(lp1188
S':'
asbag57
(g78
g59
NtRp1189
(dp1190
g62
(dp1191
sg71
g1177
sg64
(lp1192
g57
(g58
g59
NtRp1193
(dp1194
g62
(dp1195
g70
I3
ssg71
g1189
sg64
(lp1196
S''
asbasbasbasbasbasbasbag57
(g73
g59
NtRp1197
(dp1198
g62
(dp1199
sg71
g256
sg64
(lp1200
g57
(g78
g59
NtRp1201
(dp1202
g62
(dp1203
g82
g83
ssg71
g1197
sg64
(lp1204
S'session_id_saaf_or'
p1205
asbag57
(g78
g59
NtRp1206
(dp1207
g62
(dp1208
g89
g90
ssg71
g1197
sg64
(lp1209
S':'
asbag57
(g78
g59
NtRp1210
(dp1211
g62
(dp1212
sg71
g1197
sg64
(lp1213
g57
(g58
g59
NtRp1214
(dp1215
g62
(dp1216
g70
I4
ssg71
g1210
sg64
(lp1217
S'127.0.0.1-df669e4b-d48a-49bf-be9c-20f13552c37e'
p1218
ag57
(g66
g59
NtRp1219
(dp1220
g62
(dp1221
g70
I3
ssg71
Nsg64
(lp1222
g57
(g73
g59
NtRp1223
(dp1224
g62
(dp1225
sg71
g1219
sg64
(lp1226
g57
(g78
g59
NtRp1227
(dp1228
g62
(dp1229
g82
g83
ssg71
g1223
sg64
(lp1230
g293
asbag57
(g78
g59
NtRp1231
(dp1232
g62
(dp1233
g89
g90
ssg71
g1223
sg64
(lp1234
S':'
asbag57
(g78
g59
NtRp1235
(dp1236
g62
(dp1237
sg71
g1223
sg64
(lp1238
g57
(g58
g59
NtRp1239
(dp1240
g62
(dp1241
g70
I3
ssg71
g1235
sg64
(lp1242
S''
asbasbasbag57
(g73
g59
NtRp1243
(dp1244
g62
(dp1245
sg71
g1219
sg64
(lp1246
g57
(g78
g59
NtRp1247
(dp1248
g62
(dp1249
g82
g83
ssg71
g1243
sg64
(lp1250
g314
asbag57
(g78
g59
NtRp1251
(dp1252
g62
(dp1253
g89
g90
ssg71
g1243
sg64
(lp1254
S':'
asbag57
(g78
g59
NtRp1255
(dp1256
g62
(dp1257
sg71
g1243
sg64
(lp1258
g57
(g58
g59
NtRp1259
(dp1260
g62
(dp1261
g70
I3
ssg71
g1255
sg64
(lp1262
S''
asbasbasbag57
(g73
g59
NtRp1263
(dp1264
g62
(dp1265
sg71
g1219
sg64
(lp1266
g57
(g78
g59
NtRp1267
(dp1268
g62
(dp1269
g82
g83
ssg71
g1263
sg64
(lp1270
g335
asbag57
(g78
g59
NtRp1271
(dp1272
g62
(dp1273
g89
g90
ssg71
g1263
sg64
(lp1274
S':'
asbag57
(g78
g59
NtRp1275
(dp1276
g62
(dp1277
sg71
g1263
sg64
(lp1278
g57
(g58
g59
NtRp1279
(dp1280
g62
(dp1281
g70
I3
ssg71
g1275
sg64
(lp1282
S''
asbasbasbag57
(g73
g59
NtRp1283
(dp1284
g62
(dp1285
sg71
g1219
sg64
(lp1286
g57
(g78
g59
NtRp1287
(dp1288
g62
(dp1289
g82
g83
ssg71
g1283
sg64
(lp1290
g356
asbag57
(g78
g59
NtRp1291
(dp1292
g62
(dp1293
g89
g90
ssg71
g1283
sg64
(lp1294
S':'
asbag57
(g78
g59
NtRp1295
(dp1296
g62
(dp1297
sg71
g1283
sg64
(lp1298
g57
(g58
g59
NtRp1299
(dp1300
g62
(dp1301
g70
I3
ssg71
g1295
sg64
(lp1302
S''
asbasbasbag57
(g73
g59
NtRp1303
(dp1304
g62
(dp1305
sg71
g1219
sg64
(lp1306
g57
(g78
g59
NtRp1307
(dp1308
g62
(dp1309
g82
g83
ssg71
g1303
sg64
(lp1310
g377
asbag57
(g78
g59
NtRp1311
(dp1312
g62
(dp1313
g89
g90
ssg71
g1303
sg64
(lp1314
S':'
asbag57
(g78
g59
NtRp1315
(dp1316
g62
(dp1317
sg71
g1303
sg64
(lp1318
g57
(g58
g59
NtRp1319
(dp1320
g62
(dp1321
g70
I3
ssg71
g1315
sg64
(lp1322
S''
asbasbasbag57
(g73
g59
NtRp1323
(dp1324
g62
(dp1325
sg71
g1219
sg64
(lp1326
g57
(g78
g59
NtRp1327
(dp1328
g62
(dp1329
g82
g83
ssg71
g1323
sg64
(lp1330
g398
asbag57
(g78
g59
NtRp1331
(dp1332
g62
(dp1333
g89
g90
ssg71
g1323
sg64
(lp1334
S':'
asbag57
(g78
g59
NtRp1335
(dp1336
g62
(dp1337
sg71
g1323
sg64
(lp1338
g57
(g58
g59
NtRp1339
(dp1340
g62
(dp1341
g70
I3
ssg71
g1335
sg64
(lp1342
S''
asbasbasbag57
(g73
g59
NtRp1343
(dp1344
g62
(dp1345
sg71
g1219
sg64
(lp1346
g57
(g78
g59
NtRp1347
(dp1348
g62
(dp1349
g82
g83
ssg71
g1343
sg64
(lp1350
g419
asbag57
(g78
g59
NtRp1351
(dp1352
g62
(dp1353
g89
g90
ssg71
g1343
sg64
(lp1354
S':'
asbag57
(g78
g59
NtRp1355
(dp1356
g62
(dp1357
sg71
g1343
sg64
(lp1358
g57
(g58
g59
NtRp1359
(dp1360
g62
(dp1361
g70
I3
ssg71
g1355
sg64
(lp1362
S''
asbasbasbag57
(g73
g59
NtRp1363
(dp1364
g62
(dp1365
sg71
g1219
sg64
(lp1366
g57
(g78
g59
NtRp1367
(dp1368
g62
(dp1369
g82
g83
ssg71
g1363
sg64
(lp1370
g440
asbag57
(g78
g59
NtRp1371
(dp1372
g62
(dp1373
g89
g90
ssg71
g1363
sg64
(lp1374
S':'
asbag57
(g78
g59
NtRp1375
(dp1376
g62
(dp1377
sg71
g1363
sg64
(lp1378
g57
(g58
g59
NtRp1379
(dp1380
g62
(dp1381
g70
I3
ssg71
g1375
sg64
(lp1382
S''
asbasbasbasbasbasbasbag57
(g73
g59
NtRp1383
(dp1384
g62
(dp1385
sg71
g256
sg64
(lp1386
g57
(g78
g59
NtRp1387
(dp1388
g62
(dp1389
g82
g83
ssg71
g1383
sg64
(lp1390
S'session_id_welcome'
p1391
asbag57
(g78
g59
NtRp1392
(dp1393
g62
(dp1394
g89
g90
ssg71
g1383
sg64
(lp1395
S':'
asbag57
(g78
g59
NtRp1396
(dp1397
g62
(dp1398
sg71
g1383
sg64
(lp1399
g57
(g58
g59
NtRp1400
(dp1401
g62
(dp1402
g70
I4
ssg71
g1396
sg64
(lp1403
S'127.0.0.1-0284afb1-4258-43f6-8382-1399f79e74ff'
p1404
ag57
(g66
g59
NtRp1405
(dp1406
g62
(dp1407
g70
I3
ssg71
Nsg64
(lp1408
g57
(g73
g59
NtRp1409
(dp1410
g62
(dp1411
sg71
g1405
sg64
(lp1412
g57
(g78
g59
NtRp1413
(dp1414
g62
(dp1415
g82
g83
ssg71
g1409
sg64
(lp1416
g293
asbag57
(g78
g59
NtRp1417
(dp1418
g62
(dp1419
g89
g90
ssg71
g1409
sg64
(lp1420
S':'
asbag57
(g78
g59
NtRp1421
(dp1422
g62
(dp1423
sg71
g1409
sg64
(lp1424
g57
(g58
g59
NtRp1425
(dp1426
g62
(dp1427
g70
I3
ssg71
g1421
sg64
(lp1428
S''
asbasbasbag57
(g73
g59
NtRp1429
(dp1430
g62
(dp1431
sg71
g1405
sg64
(lp1432
g57
(g78
g59
NtRp1433
(dp1434
g62
(dp1435
g82
g83
ssg71
g1429
sg64
(lp1436
g314
asbag57
(g78
g59
NtRp1437
(dp1438
g62
(dp1439
g89
g90
ssg71
g1429
sg64
(lp1440
S':'
asbag57
(g78
g59
NtRp1441
(dp1442
g62
(dp1443
sg71
g1429
sg64
(lp1444
g57
(g58
g59
NtRp1445
(dp1446
g62
(dp1447
g70
I3
ssg71
g1441
sg64
(lp1448
S''
asbasbasbag57
(g73
g59
NtRp1449
(dp1450
g62
(dp1451
sg71
g1405
sg64
(lp1452
g57
(g78
g59
NtRp1453
(dp1454
g62
(dp1455
g82
g83
ssg71
g1449
sg64
(lp1456
g335
asbag57
(g78
g59
NtRp1457
(dp1458
g62
(dp1459
g89
g90
ssg71
g1449
sg64
(lp1460
S':'
asbag57
(g78
g59
NtRp1461
(dp1462
g62
(dp1463
sg71
g1449
sg64
(lp1464
g57
(g58
g59
NtRp1465
(dp1466
g62
(dp1467
g70
I3
ssg71
g1461
sg64
(lp1468
S''
asbasbasbag57
(g73
g59
NtRp1469
(dp1470
g62
(dp1471
sg71
g1405
sg64
(lp1472
g57
(g78
g59
NtRp1473
(dp1474
g62
(dp1475
g82
g83
ssg71
g1469
sg64
(lp1476
g356
asbag57
(g78
g59
NtRp1477
(dp1478
g62
(dp1479
g89
g90
ssg71
g1469
sg64
(lp1480
S':'
asbag57
(g78
g59
NtRp1481
(dp1482
g62
(dp1483
sg71
g1469
sg64
(lp1484
g57
(g58
g59
NtRp1485
(dp1486
g62
(dp1487
g70
I3
ssg71
g1481
sg64
(lp1488
S''
asbasbasbag57
(g73
g59
NtRp1489
(dp1490
g62
(dp1491
sg71
g1405
sg64
(lp1492
g57
(g78
g59
NtRp1493
(dp1494
g62
(dp1495
g82
g83
ssg71
g1489
sg64
(lp1496
g377
asbag57
(g78
g59
NtRp1497
(dp1498
g62
(dp1499
g89
g90
ssg71
g1489
sg64
(lp1500
S':'
asbag57
(g78
g59
NtRp1501
(dp1502
g62
(dp1503
sg71
g1489
sg64
(lp1504
g57
(g58
g59
NtRp1505
(dp1506
g62
(dp1507
g70
I3
ssg71
g1501
sg64
(lp1508
S''
asbasbasbag57
(g73
g59
NtRp1509
(dp1510
g62
(dp1511
sg71
g1405
sg64
(lp1512
g57
(g78
g59
NtRp1513
(dp1514
g62
(dp1515
g82
g83
ssg71
g1509
sg64
(lp1516
g398
asbag57
(g78
g59
NtRp1517
(dp1518
g62
(dp1519
g89
g90
ssg71
g1509
sg64
(lp1520
S':'
asbag57
(g78
g59
NtRp1521
(dp1522
g62
(dp1523
sg71
g1509
sg64
(lp1524
g57
(g58
g59
NtRp1525
(dp1526
g62
(dp1527
g70
I3
ssg71
g1521
sg64
(lp1528
S''
asbasbasbag57
(g73
g59
NtRp1529
(dp1530
g62
(dp1531
sg71
g1405
sg64
(lp1532
g57
(g78
g59
NtRp1533
(dp1534
g62
(dp1535
g82
g83
ssg71
g1529
sg64
(lp1536
g419
asbag57
(g78
g59
NtRp1537
(dp1538
g62
(dp1539
g89
g90
ssg71
g1529
sg64
(lp1540
S':'
asbag57
(g78
g59
NtRp1541
(dp1542
g62
(dp1543
sg71
g1529
sg64
(lp1544
g57
(g58
g59
NtRp1545
(dp1546
g62
(dp1547
g70
I3
ssg71
g1541
sg64
(lp1548
S''
asbasbasbag57
(g73
g59
NtRp1549
(dp1550
g62
(dp1551
sg71
g1405
sg64
(lp1552
g57
(g78
g59
NtRp1553
(dp1554
g62
(dp1555
g82
g83
ssg71
g1549
sg64
(lp1556
g440
asbag57
(g78
g59
NtRp1557
(dp1558
g62
(dp1559
g89
g90
ssg71
g1549
sg64
(lp1560
S':'
asbag57
(g78
g59
NtRp1561
(dp1562
g62
(dp1563
sg71
g1549
sg64
(lp1564
g57
(g58
g59
NtRp1565
(dp1566
g62
(dp1567
g70
I3
ssg71
g1561
sg64
(lp1568
S''
asbasbasbasbasbasbasbag57
(g73
g59
NtRp1569
(dp1570
g62
(dp1571
sg71
g256
sg64
(lp1572
g57
(g78
g59
NtRp1573
(dp1574
g62
(dp1575
g82
g83
ssg71
g1569
sg64
(lp1576
S'size'
p1577
asbag57
(g78
g59
NtRp1578
(dp1579
g62
(dp1580
g89
g90
ssg71
g1569
sg64
(lp1581
S':'
asbag57
(g78
g59
NtRp1582
(dp1583
g62
(dp1584
sg71
g1569
sg64
(lp1585
g57
(g58
g59
NtRp1586
(dp1587
g62
(dp1588
g70
I4
ssg71
g1582
sg64
(lp1589
S'4'
ag57
(g66
g59
NtRp1590
(dp1591
g62
(dp1592
g70
I3
ssg71
Nsg64
(lp1593
g57
(g73
g59
NtRp1594
(dp1595
g62
(dp1596
sg71
g1590
sg64
(lp1597
g57
(g78
g59
NtRp1598
(dp1599
g62
(dp1600
g82
g83
ssg71
g1594
sg64
(lp1601
g293
asbag57
(g78
g59
NtRp1602
(dp1603
g62
(dp1604
g89
g90
ssg71
g1594
sg64
(lp1605
S':'
asbag57
(g78
g59
NtRp1606
(dp1607
g62
(dp1608
sg71
g1594
sg64
(lp1609
g57
(g58
g59
NtRp1610
(dp1611
g62
(dp1612
g70
I3
ssg71
g1606
sg64
(lp1613
S''
asbasbasbag57
(g73
g59
NtRp1614
(dp1615
g62
(dp1616
sg71
g1590
sg64
(lp1617
g57
(g78
g59
NtRp1618
(dp1619
g62
(dp1620
g82
g83
ssg71
g1614
sg64
(lp1621
g314
asbag57
(g78
g59
NtRp1622
(dp1623
g62
(dp1624
g89
g90
ssg71
g1614
sg64
(lp1625
S':'
asbag57
(g78
g59
NtRp1626
(dp1627
g62
(dp1628
sg71
g1614
sg64
(lp1629
g57
(g58
g59
NtRp1630
(dp1631
g62
(dp1632
g70
I3
ssg71
g1626
sg64
(lp1633
S''
asbasbasbag57
(g73
g59
NtRp1634
(dp1635
g62
(dp1636
sg71
g1590
sg64
(lp1637
g57
(g78
g59
NtRp1638
(dp1639
g62
(dp1640
g82
g83
ssg71
g1634
sg64
(lp1641
g335
asbag57
(g78
g59
NtRp1642
(dp1643
g62
(dp1644
g89
g90
ssg71
g1634
sg64
(lp1645
S':'
asbag57
(g78
g59
NtRp1646
(dp1647
g62
(dp1648
sg71
g1634
sg64
(lp1649
g57
(g58
g59
NtRp1650
(dp1651
g62
(dp1652
g70
I3
ssg71
g1646
sg64
(lp1653
S''
asbasbasbag57
(g73
g59
NtRp1654
(dp1655
g62
(dp1656
sg71
g1590
sg64
(lp1657
g57
(g78
g59
NtRp1658
(dp1659
g62
(dp1660
g82
g83
ssg71
g1654
sg64
(lp1661
g356
asbag57
(g78
g59
NtRp1662
(dp1663
g62
(dp1664
g89
g90
ssg71
g1654
sg64
(lp1665
S':'
asbag57
(g78
g59
NtRp1666
(dp1667
g62
(dp1668
sg71
g1654
sg64
(lp1669
g57
(g58
g59
NtRp1670
(dp1671
g62
(dp1672
g70
I3
ssg71
g1666
sg64
(lp1673
S''
asbasbasbag57
(g73
g59
NtRp1674
(dp1675
g62
(dp1676
sg71
g1590
sg64
(lp1677
g57
(g78
g59
NtRp1678
(dp1679
g62
(dp1680
g82
g83
ssg71
g1674
sg64
(lp1681
g377
asbag57
(g78
g59
NtRp1682
(dp1683
g62
(dp1684
g89
g90
ssg71
g1674
sg64
(lp1685
S':'
asbag57
(g78
g59
NtRp1686
(dp1687
g62
(dp1688
sg71
g1674
sg64
(lp1689
g57
(g58
g59
NtRp1690
(dp1691
g62
(dp1692
g70
I3
ssg71
g1686
sg64
(lp1693
S''
asbasbasbag57
(g73
g59
NtRp1694
(dp1695
g62
(dp1696
sg71
g1590
sg64
(lp1697
g57
(g78
g59
NtRp1698
(dp1699
g62
(dp1700
g82
g83
ssg71
g1694
sg64
(lp1701
g398
asbag57
(g78
g59
NtRp1702
(dp1703
g62
(dp1704
g89
g90
ssg71
g1694
sg64
(lp1705
S':'
asbag57
(g78
g59
NtRp1706
(dp1707
g62
(dp1708
sg71
g1694
sg64
(lp1709
g57
(g58
g59
NtRp1710
(dp1711
g62
(dp1712
g70
I3
ssg71
g1706
sg64
(lp1713
S''
asbasbasbag57
(g73
g59
NtRp1714
(dp1715
g62
(dp1716
sg71
g1590
sg64
(lp1717
g57
(g78
g59
NtRp1718
(dp1719
g62
(dp1720
g82
g83
ssg71
g1714
sg64
(lp1721
g419
asbag57
(g78
g59
NtRp1722
(dp1723
g62
(dp1724
g89
g90
ssg71
g1714
sg64
(lp1725
S':'
asbag57
(g78
g59
NtRp1726
(dp1727
g62
(dp1728
sg71
g1714
sg64
(lp1729
g57
(g58
g59
NtRp1730
(dp1731
g62
(dp1732
g70
I3
ssg71
g1726
sg64
(lp1733
S''
asbasbasbag57
(g73
g59
NtRp1734
(dp1735
g62
(dp1736
sg71
g1590
sg64
(lp1737
g57
(g78
g59
NtRp1738
(dp1739
g62
(dp1740
g82
g83
ssg71
g1734
sg64
(lp1741
g440
asbag57
(g78
g59
NtRp1742
(dp1743
g62
(dp1744
g89
g90
ssg71
g1734
sg64
(lp1745
S':'
asbag57
(g78
g59
NtRp1746
(dp1747
g62
(dp1748
sg71
g1734
sg64
(lp1749
g57
(g58
g59
NtRp1750
(dp1751
g62
(dp1752
g70
I3
ssg71
g1746
sg64
(lp1753
S''
asbasbasbasbasbasbasbasbasbasbasbag57
(g73
g59
NtRp1754
(dp1755
g62
(dp1756
sg71
g67
sg64
(lp1757
g57
(g78
g59
NtRp1758
(dp1759
g62
(dp1760
g82
g83
ssg71
g1754
sg64
(lp1761
S'env'
p1762
asbag57
(g78
g59
NtRp1763
(dp1764
g62
(dp1765
g89
g90
ssg71
g1754
sg64
(lp1766
S':'
asbag57
(g78
g59
NtRp1767
(dp1768
g62
(dp1769
sg71
g1754
sg64
(lp1770
g57
(g58
g59
NtRp1771
(dp1772
g62
(dp1773
g70
I5
ssg71
g1767
sg64
(lp1774
g57
(g66
g59
NtRp1775
(dp1776
g62
(dp1777
g70
I4
ssg71
Nsg64
(lp1778
g57
(g73
g59
NtRp1779
(dp1780
g62
(dp1781
sg71
g1775
sg64
(lp1782
g57
(g78
g59
NtRp1783
(dp1784
g62
(dp1785
g82
g83
ssg71
g1779
sg64
(lp1786
S'app_folders'
p1787
asbag57
(g78
g59
NtRp1788
(dp1789
g62
(dp1790
g89
g90
ssg71
g1779
sg64
(lp1791
S':'
asbag57
(g78
g59
NtRp1792
(dp1793
g62
(dp1794
sg71
g1779
sg64
(lp1795
g57
(g58
g59
NtRp1796
(dp1797
g62
(dp1798
g70
I4
ssg71
g1792
sg64
(lp1799
S"set(['/home/emp2web/ejecutar/web2py/applications/welcome/', '/home/emp2web/ejecutar/web2py/applications/admin/', '/home/emp2web/ejecutar/web2py/applications/proyecto_webcast/', '/home/emp2web/ejecutar/web2py/applications/saaf/', '/home/emp2web/ejecutar/web2py/applications/saaf_or/', '/home/emp2web/ejecutar/web2py/applications/examples/'])"
p1800
asbasbasbag57
(g73
g59
NtRp1801
(dp1802
g62
(dp1803
sg71
g1775
sg64
(lp1804
g57
(g78
g59
NtRp1805
(dp1806
g62
(dp1807
g82
g83
ssg71
g1801
sg64
(lp1808
S'applications_parent'
p1809
asbag57
(g78
g59
NtRp1810
(dp1811
g62
(dp1812
g89
g90
ssg71
g1801
sg64
(lp1813
S':'
asbag57
(g78
g59
NtRp1814
(dp1815
g62
(dp1816
sg71
g1801
sg64
(lp1817
g57
(g58
g59
NtRp1818
(dp1819
g62
(dp1820
g70
I4
ssg71
g1814
sg64
(lp1821
S'/home/emp2web/ejecutar/web2py'
p1822
asbasbasbag57
(g73
g59
NtRp1823
(dp1824
g62
(dp1825
sg71
g1775
sg64
(lp1826
g57
(g78
g59
NtRp1827
(dp1828
g62
(dp1829
g82
g83
ssg71
g1823
sg64
(lp1830
S'cmd_args'
p1831
asbag57
(g78
g59
NtRp1832
(dp1833
g62
(dp1834
g89
g90
ssg71
g1823
sg64
(lp1835
S':'
asbag57
(g78
g59
NtRp1836
(dp1837
g62
(dp1838
sg71
g1823
sg64
(lp1839
g57
(g58
g59
NtRp1840
(dp1841
g62
(dp1842
g70
I4
ssg71
g1836
sg64
(lp1843
g57
(g66
g59
NtRp1844
(dp1845
g62
(dp1846
g70
I3
ssg71
Nsg64
(lp1847
sbasbasbasbag57
(g73
g59
NtRp1848
(dp1849
g62
(dp1850
sg71
g1775
sg64
(lp1851
g57
(g78
g59
NtRp1852
(dp1853
g62
(dp1854
g82
g83
ssg71
g1848
sg64
(lp1855
S'cmd_options'
p1856
asbag57
(g78
g59
NtRp1857
(dp1858
g62
(dp1859
g89
g90
ssg71
g1848
sg64
(lp1860
S':'
asbag57
(g78
g59
NtRp1861
(dp1862
g62
(dp1863
sg71
g1848
sg64
(lp1864
g57
(g58
g59
NtRp1865
(dp1866
g62
(dp1867
g70
I4
ssg71
g1861
sg64
(lp1868
S"<Values at 0x96abd4c: {'verbose': False, 'ip': '127.0.0.1', 'with_scheduler': False, 'ips': [], 'shutdown_timeout': 5, 'taskbar': False, 'port': 8000, 'maxthreads': None, 'softcron': False, 'server_name': 'emp2web', 'bpython': False, 'nogui': False, 'nocron': False, 'extcron': False, 'run_system_tests': False, 'test': None, 'folder': '/home/emp2web/ejecutar/web2py', 'config': '', 'import_models': False, 'winservice': '', 'shell': None, 'run': '', 'log_filename': 'httpserver.log', 'debuglevel': 30, 'args': [''], 'socket_timeout': 5, 'ssl_ca_certificate': None, 'scheduler': None, 'profiler_filename': None, 'ssl_private_key': '', 'scheduler_groups': None, 'password': 'admin', 'request_queue_size': 5, 'ssl_certificate': '', 'cronjob': False, 'numthreads': None, 'quiet': False, 'interfaces': None, 'minthreads': None, 'timeout': 10, 'plain': False, 'nobanner': False, 'pid_filename': 'httpserver.pid'}>"
p1869
asbasbasbag57
(g73
g59
NtRp1870
(dp1871
g62
(dp1872
sg71
g1775
sg64
(lp1873
g57
(g78
g59
NtRp1874
(dp1875
g62
(dp1876
g82
g83
ssg71
g1870
sg64
(lp1877
S'db_sessions'
p1878
asbag57
(g78
g59
NtRp1879
(dp1880
g62
(dp1881
g89
g90
ssg71
g1870
sg64
(lp1882
S':'
asbag57
(g78
g59
NtRp1883
(dp1884
g62
(dp1885
sg71
g1870
sg64
(lp1886
g57
(g58
g59
NtRp1887
(dp1888
g62
(dp1889
g70
I4
ssg71
g1883
sg64
(lp1890
S'set([])'
p1891
asbasbasbag57
(g73
g59
NtRp1892
(dp1893
g62
(dp1894
sg71
g1775
sg64
(lp1895
g57
(g78
g59
NtRp1896
(dp1897
g62
(dp1898
g82
g83
ssg71
g1892
sg64
(lp1899
S'debugging'
p1900
asbag57
(g78
g59
NtRp1901
(dp1902
g62
(dp1903
g89
g90
ssg71
g1892
sg64
(lp1904
S':'
asbag57
(g78
g59
NtRp1905
(dp1906
g62
(dp1907
sg71
g1892
sg64
(lp1908
g57
(g58
g59
NtRp1909
(dp1910
g62
(dp1911
g70
I4
ssg71
g1905
sg64
(lp1912
S'True'
p1913
asbasbasbag57
(g73
g59
NtRp1914
(dp1915
g62
(dp1916
sg71
g1775
sg64
(lp1917
g57
(g78
g59
NtRp1918
(dp1919
g62
(dp1920
g82
g83
ssg71
g1914
sg64
(lp1921
S'gluon_parent'
p1922
asbag57
(g78
g59
NtRp1923
(dp1924
g62
(dp1925
g89
g90
ssg71
g1914
sg64
(lp1926
S':'
asbag57
(g78
g59
NtRp1927
(dp1928
g62
(dp1929
sg71
g1914
sg64
(lp1930
g57
(g58
g59
NtRp1931
(dp1932
g62
(dp1933
g70
I4
ssg71
g1927
sg64
(lp1934
S'/home/emp2web/ejecutar/web2py'
p1935
asbasbasbag57
(g73
g59
NtRp1936
(dp1937
g62
(dp1938
sg71
g1775
sg64
(lp1939
g57
(g78
g59
NtRp1940
(dp1941
g62
(dp1942
g82
g83
ssg71
g1936
sg64
(lp1943
S'http_accept'
p1944
asbag57
(g78
g59
NtRp1945
(dp1946
g62
(dp1947
g89
g90
ssg71
g1936
sg64
(lp1948
S':'
asbag57
(g78
g59
NtRp1949
(dp1950
g62
(dp1951
sg71
g1936
sg64
(lp1952
g57
(g58
g59
NtRp1953
(dp1954
g62
(dp1955
g70
I4
ssg71
g1949
sg64
(lp1956
S'text/html,application/xhtml+xml,application/xml;q=0.9,*/*;q=0.8'
p1957
asbasbasbag57
(g73
g59
NtRp1958
(dp1959
g62
(dp1960
sg71
g1775
sg64
(lp1961
g57
(g78
g59
NtRp1962
(dp1963
g62
(dp1964
g82
g83
ssg71
g1958
sg64
(lp1965
S'http_accept_charset'
p1966
asbag57
(g78
g59
NtRp1967
(dp1968
g62
(dp1969
g89
g90
ssg71
g1958
sg64
(lp1970
S':'
asbag57
(g78
g59
NtRp1971
(dp1972
g62
(dp1973
sg71
g1958
sg64
(lp1974
g57
(g58
g59
NtRp1975
(dp1976
g62
(dp1977
g70
I4
ssg71
g1971
sg64
(lp1978
S'ISO-8859-1,utf-8;q=0.7,*;q=0.3'
p1979
asbasbasbag57
(g73
g59
NtRp1980
(dp1981
g62
(dp1982
sg71
g1775
sg64
(lp1983
g57
(g78
g59
NtRp1984
(dp1985
g62
(dp1986
g82
g83
ssg71
g1980
sg64
(lp1987
S'http_accept_encoding'
p1988
asbag57
(g78
g59
NtRp1989
(dp1990
g62
(dp1991
g89
g90
ssg71
g1980
sg64
(lp1992
S':'
asbag57
(g78
g59
NtRp1993
(dp1994
g62
(dp1995
sg71
g1980
sg64
(lp1996
g57
(g58
g59
NtRp1997
(dp1998
g62
(dp1999
g70
I4
ssg71
g1993
sg64
(lp2000
S'gzip,deflate,sdch'
p2001
asbasbasbag57
(g73
g59
NtRp2002
(dp2003
g62
(dp2004
sg71
g1775
sg64
(lp2005
g57
(g78
g59
NtRp2006
(dp2007
g62
(dp2008
g82
g83
ssg71
g2002
sg64
(lp2009
S'http_accept_language'
p2010
asbag57
(g78
g59
NtRp2011
(dp2012
g62
(dp2013
g89
g90
ssg71
g2002
sg64
(lp2014
S':'
asbag57
(g78
g59
NtRp2015
(dp2016
g62
(dp2017
sg71
g2002
sg64
(lp2018
g57
(g58
g59
NtRp2019
(dp2020
g62
(dp2021
g70
I4
ssg71
g2015
sg64
(lp2022
S'es-ES,es;q=0.8'
p2023
asbasbasbag57
(g73
g59
NtRp2024
(dp2025
g62
(dp2026
sg71
g1775
sg64
(lp2027
g57
(g78
g59
NtRp2028
(dp2029
g62
(dp2030
g82
g83
ssg71
g2024
sg64
(lp2031
S'http_cache_control'
p2032
asbag57
(g78
g59
NtRp2033
(dp2034
g62
(dp2035
g89
g90
ssg71
g2024
sg64
(lp2036
S':'
asbag57
(g78
g59
NtRp2037
(dp2038
g62
(dp2039
sg71
g2024
sg64
(lp2040
g57
(g58
g59
NtRp2041
(dp2042
g62
(dp2043
g70
I4
ssg71
g2037
sg64
(lp2044
S'max-age=0'
p2045
asbasbasbag57
(g73
g59
NtRp2046
(dp2047
g62
(dp2048
sg71
g1775
sg64
(lp2049
g57
(g78
g59
NtRp2050
(dp2051
g62
(dp2052
g82
g83
ssg71
g2046
sg64
(lp2053
S'http_connection'
p2054
asbag57
(g78
g59
NtRp2055
(dp2056
g62
(dp2057
g89
g90
ssg71
g2046
sg64
(lp2058
S':'
asbag57
(g78
g59
NtRp2059
(dp2060
g62
(dp2061
sg71
g2046
sg64
(lp2062
g57
(g58
g59
NtRp2063
(dp2064
g62
(dp2065
g70
I4
ssg71
g2059
sg64
(lp2066
S'keep-alive'
p2067
asbasbasbag57
(g73
g59
NtRp2068
(dp2069
g62
(dp2070
sg71
g1775
sg64
(lp2071
g57
(g78
g59
NtRp2072
(dp2073
g62
(dp2074
g82
g83
ssg71
g2068
sg64
(lp2075
S'http_cookie'
p2076
asbag57
(g78
g59
NtRp2077
(dp2078
g62
(dp2079
g89
g90
ssg71
g2068
sg64
(lp2080
S':'
asbag57
(g78
g59
NtRp2081
(dp2082
g62
(dp2083
sg71
g2068
sg64
(lp2084
g57
(g58
g59
NtRp2085
(dp2086
g62
(dp2087
g70
I4
ssg71
g2081
sg64
(lp2088
S'size=4; CP.mode=B; session_id_welcome=127.0.0.1-0284afb1-4258-43f6-8382-1399f79e74ff; session_id_saaf_or=127.0.0.1-df669e4b-d48a-49bf-be9c-20f13552c37e; session_id_saaf=127.0.0.1-a5ace905-b0d7-4ad9-bad5-3f425942dffe; PHPSESSID=s5drhn7fvaqkm891pj8ls1frb6; session_id_admin=127.0.0.1-c56b24a4-31bb-46fd-8649-53a36305f5bf; session_id_proyecto_webcast=127.0.0.1-3575e940-2aa6-4413-a80f-60a8b60379f5'
p2089
asbasbasbag57
(g73
g59
NtRp2090
(dp2091
g62
(dp2092
sg71
g1775
sg64
(lp2093
g57
(g78
g59
NtRp2094
(dp2095
g62
(dp2096
g82
g83
ssg71
g2090
sg64
(lp2097
S'http_host'
p2098
asbag57
(g78
g59
NtRp2099
(dp2100
g62
(dp2101
g89
g90
ssg71
g2090
sg64
(lp2102
S':'
asbag57
(g78
g59
NtRp2103
(dp2104
g62
(dp2105
sg71
g2090
sg64
(lp2106
g57
(g58
g59
NtRp2107
(dp2108
g62
(dp2109
g70
I4
ssg71
g2103
sg64
(lp2110
S'localhost:8000'
p2111
asbasbasbag57
(g73
g59
NtRp2112
(dp2113
g62
(dp2114
sg71
g1775
sg64
(lp2115
g57
(g78
g59
NtRp2116
(dp2117
g62
(dp2118
g82
g83
ssg71
g2112
sg64
(lp2119
S'http_referer'
p2120
asbag57
(g78
g59
NtRp2121
(dp2122
g62
(dp2123
g89
g90
ssg71
g2112
sg64
(lp2124
S':'
asbag57
(g78
g59
NtRp2125
(dp2126
g62
(dp2127
sg71
g2112
sg64
(lp2128
g57
(g58
g59
NtRp2129
(dp2130
g62
(dp2131
g70
I4
ssg71
g2125
sg64
(lp2132
S'http://localhost:8000/proyecto_webcast/configuracion/tareas'
p2133
asbasbasbag57
(g73
g59
NtRp2134
(dp2135
g62
(dp2136
sg71
g1775
sg64
(lp2137
g57
(g78
g59
NtRp2138
(dp2139
g62
(dp2140
g82
g83
ssg71
g2134
sg64
(lp2141
S'http_user_agent'
p2142
asbag57
(g78
g59
NtRp2143
(dp2144
g62
(dp2145
g89
g90
ssg71
g2134
sg64
(lp2146
S':'
asbag57
(g78
g59
NtRp2147
(dp2148
g62
(dp2149
sg71
g2134
sg64
(lp2150
g57
(g58
g59
NtRp2151
(dp2152
g62
(dp2153
g70
I4
ssg71
g2147
sg64
(lp2154
S'Mozilla/5.0 (X11; Linux i686) AppleWebKit/535.19 (KHTML, like Gecko) Ubuntu/12.04 Chromium/18.0.1025.168 Chrome/18.0.1025.168 Safari/535.19'
p2155
asbasbasbag57
(g73
g59
NtRp2156
(dp2157
g62
(dp2158
sg71
g1775
sg64
(lp2159
g57
(g78
g59
NtRp2160
(dp2161
g62
(dp2162
g82
g83
ssg71
g2156
sg64
(lp2163
S'is_jython'
p2164
asbag57
(g78
g59
NtRp2165
(dp2166
g62
(dp2167
g89
g90
ssg71
g2156
sg64
(lp2168
S':'
asbag57
(g78
g59
NtRp2169
(dp2170
g62
(dp2171
sg71
g2156
sg64
(lp2172
g57
(g58
g59
NtRp2173
(dp2174
g62
(dp2175
g70
I4
ssg71
g2169
sg64
(lp2176
g100
asbasbasbag57
(g73
g59
NtRp2177
(dp2178
g62
(dp2179
sg71
g1775
sg64
(lp2180
g57
(g78
g59
NtRp2181
(dp2182
g62
(dp2183
g82
g83
ssg71
g2177
sg64
(lp2184
S'is_pypy'
p2185
asbag57
(g78
g59
NtRp2186
(dp2187
g62
(dp2188
g89
g90
ssg71
g2177
sg64
(lp2189
S':'
asbag57
(g78
g59
NtRp2190
(dp2191
g62
(dp2192
sg71
g2177
sg64
(lp2193
g57
(g58
g59
NtRp2194
(dp2195
g62
(dp2196
g70
I4
ssg71
g2190
sg64
(lp2197
g100
asbasbasbag57
(g73
g59
NtRp2198
(dp2199
g62
(dp2200
sg71
g1775
sg64
(lp2201
g57
(g78
g59
NtRp2202
(dp2203
g62
(dp2204
g82
g83
ssg71
g2198
sg64
(lp2205
S'path_info'
p2206
asbag57
(g78
g59
NtRp2207
(dp2208
g62
(dp2209
g89
g90
ssg71
g2198
sg64
(lp2210
S':'
asbag57
(g78
g59
NtRp2211
(dp2212
g62
(dp2213
sg71
g2198
sg64
(lp2214
g57
(g58
g59
NtRp2215
(dp2216
g62
(dp2217
g70
I4
ssg71
g2211
sg64
(lp2218
S'/proyecto_webcast/default/principal'
p2219
asbasbasbag57
(g73
g59
NtRp2220
(dp2221
g62
(dp2222
sg71
g1775
sg64
(lp2223
g57
(g78
g59
NtRp2224
(dp2225
g62
(dp2226
g82
g83
ssg71
g2220
sg64
(lp2227
S'query_string'
p2228
asbag57
(g78
g59
NtRp2229
(dp2230
g62
(dp2231
g89
g90
ssg71
g2220
sg64
(lp2232
S':'
asbag57
(g78
g59
NtRp2233
(dp2234
g62
(dp2235
sg71
g2220
sg64
(lp2236
g57
(g58
g59
NtRp2237
(dp2238
g62
(dp2239
g70
I4
ssg71
g2233
sg64
(lp2240
S''
asbasbasbag57
(g73
g59
NtRp2241
(dp2242
g62
(dp2243
sg71
g1775
sg64
(lp2244
g57
(g78
g59
NtRp2245
(dp2246
g62
(dp2247
g82
g83
ssg71
g2241
sg64
(lp2248
S'remote_addr'
p2249
asbag57
(g78
g59
NtRp2250
(dp2251
g62
(dp2252
g89
g90
ssg71
g2241
sg64
(lp2253
S':'
asbag57
(g78
g59
NtRp2254
(dp2255
g62
(dp2256
sg71
g2241
sg64
(lp2257
g57
(g58
g59
NtRp2258
(dp2259
g62
(dp2260
g70
I4
ssg71
g2254
sg64
(lp2261
g212
asbasbasbag57
(g73
g59
NtRp2262
(dp2263
g62
(dp2264
sg71
g1775
sg64
(lp2265
g57
(g78
g59
NtRp2266
(dp2267
g62
(dp2268
g82
g83
ssg71
g2262
sg64
(lp2269
S'remote_port'
p2270
asbag57
(g78
g59
NtRp2271
(dp2272
g62
(dp2273
g89
g90
ssg71
g2262
sg64
(lp2274
S':'
asbag57
(g78
g59
NtRp2275
(dp2276
g62
(dp2277
sg71
g2262
sg64
(lp2278
g57
(g58
g59
NtRp2279
(dp2280
g62
(dp2281
g70
I4
ssg71
g2275
sg64
(lp2282
S'35881'
p2283
asbasbasbag57
(g73
g59
NtRp2284
(dp2285
g62
(dp2286
sg71
g1775
sg64
(lp2287
g57
(g78
g59
NtRp2288
(dp2289
g62
(dp2290
g82
g83
ssg71
g2284
sg64
(lp2291
S'request_method'
p2292
asbag57
(g78
g59
NtRp2293
(dp2294
g62
(dp2295
g89
g90
ssg71
g2284
sg64
(lp2296
S':'
asbag57
(g78
g59
NtRp2297
(dp2298
g62
(dp2299
sg71
g2284
sg64
(lp2300
g57
(g58
g59
NtRp2301
(dp2302
g62
(dp2303
g70
I4
ssg71
g2297
sg64
(lp2304
S'GET'
p2305
asbasbasbag57
(g73
g59
NtRp2306
(dp2307
g62
(dp2308
sg71
g1775
sg64
(lp2309
g57
(g78
g59
NtRp2310
(dp2311
g62
(dp2312
g82
g83
ssg71
g2306
sg64
(lp2313
S'request_uri'
p2314
asbag57
(g78
g59
NtRp2315
(dp2316
g62
(dp2317
g89
g90
ssg71
g2306
sg64
(lp2318
S':'
asbag57
(g78
g59
NtRp2319
(dp2320
g62
(dp2321
sg71
g2306
sg64
(lp2322
g57
(g58
g59
NtRp2323
(dp2324
g62
(dp2325
g70
I4
ssg71
g2319
sg64
(lp2326
g2219
asbasbasbag57
(g73
g59
NtRp2327
(dp2328
g62
(dp2329
sg71
g1775
sg64
(lp2330
g57
(g78
g59
NtRp2331
(dp2332
g62
(dp2333
g82
g83
ssg71
g2327
sg64
(lp2334
S'script_name'
p2335
asbag57
(g78
g59
NtRp2336
(dp2337
g62
(dp2338
g89
g90
ssg71
g2327
sg64
(lp2339
S':'
asbag57
(g78
g59
NtRp2340
(dp2341
g62
(dp2342
sg71
g2327
sg64
(lp2343
g57
(g58
g59
NtRp2344
(dp2345
g62
(dp2346
g70
I4
ssg71
g2340
sg64
(lp2347
S''
asbasbasbag57
(g73
g59
NtRp2348
(dp2349
g62
(dp2350
sg71
g1775
sg64
(lp2351
g57
(g78
g59
NtRp2352
(dp2353
g62
(dp2354
g82
g83
ssg71
g2348
sg64
(lp2355
S'server_name'
p2356
asbag57
(g78
g59
NtRp2357
(dp2358
g62
(dp2359
g89
g90
ssg71
g2348
sg64
(lp2360
S':'
asbag57
(g78
g59
NtRp2361
(dp2362
g62
(dp2363
sg71
g2348
sg64
(lp2364
g57
(g58
g59
NtRp2365
(dp2366
g62
(dp2367
g70
I4
ssg71
g2361
sg64
(lp2368
S'emp2web'
p2369
asbasbasbag57
(g73
g59
NtRp2370
(dp2371
g62
(dp2372
sg71
g1775
sg64
(lp2373
g57
(g78
g59
NtRp2374
(dp2375
g62
(dp2376
g82
g83
ssg71
g2370
sg64
(lp2377
S'server_port'
p2378
asbag57
(g78
g59
NtRp2379
(dp2380
g62
(dp2381
g89
g90
ssg71
g2370
sg64
(lp2382
S':'
asbag57
(g78
g59
NtRp2383
(dp2384
g62
(dp2385
sg71
g2370
sg64
(lp2386
g57
(g58
g59
NtRp2387
(dp2388
g62
(dp2389
g70
I4
ssg71
g2383
sg64
(lp2390
S'8000'
p2391
asbasbasbag57
(g73
g59
NtRp2392
(dp2393
g62
(dp2394
sg71
g1775
sg64
(lp2395
g57
(g78
g59
NtRp2396
(dp2397
g62
(dp2398
g82
g83
ssg71
g2392
sg64
(lp2399
S'server_protocol'
p2400
asbag57
(g78
g59
NtRp2401
(dp2402
g62
(dp2403
g89
g90
ssg71
g2392
sg64
(lp2404
S':'
asbag57
(g78
g59
NtRp2405
(dp2406
g62
(dp2407
sg71
g2392
sg64
(lp2408
g57
(g58
g59
NtRp2409
(dp2410
g62
(dp2411
g70
I4
ssg71
g2405
sg64
(lp2412
S'HTTP/1.1'
p2413
asbasbasbag57
(g73
g59
NtRp2414
(dp2415
g62
(dp2416
sg71
g1775
sg64
(lp2417
g57
(g78
g59
NtRp2418
(dp2419
g62
(dp2420
g82
g83
ssg71
g2414
sg64
(lp2421
S'server_software'
p2422
asbag57
(g78
g59
NtRp2423
(dp2424
g62
(dp2425
g89
g90
ssg71
g2414
sg64
(lp2426
S':'
asbag57
(g78
g59
NtRp2427
(dp2428
g62
(dp2429
sg71
g2414
sg64
(lp2430
g57
(g58
g59
NtRp2431
(dp2432
g62
(dp2433
g70
I4
ssg71
g2427
sg64
(lp2434
S'Rocket 1.2.4'
p2435
asbasbasbag57
(g73
g59
NtRp2436
(dp2437
g62
(dp2438
sg71
g1775
sg64
(lp2439
g57
(g78
g59
NtRp2440
(dp2441
g62
(dp2442
g82
g83
ssg71
g2436
sg64
(lp2443
S'web2py_crontype'
p2444
asbag57
(g78
g59
NtRp2445
(dp2446
g62
(dp2447
g89
g90
ssg71
g2436
sg64
(lp2448
S':'
asbag57
(g78
g59
NtRp2449
(dp2450
g62
(dp2451
sg71
g2436
sg64
(lp2452
g57
(g58
g59
NtRp2453
(dp2454
g62
(dp2455
g70
I4
ssg71
g2449
sg64
(lp2456
S'hard'
p2457
asbasbasbag57
(g73
g59
NtRp2458
(dp2459
g62
(dp2460
sg71
g1775
sg64
(lp2461
g57
(g78
g59
NtRp2462
(dp2463
g62
(dp2464
g82
g83
ssg71
g2458
sg64
(lp2465
S'web2py_path'
p2466
asbag57
(g78
g59
NtRp2467
(dp2468
g62
(dp2469
g89
g90
ssg71
g2458
sg64
(lp2470
S':'
asbag57
(g78
g59
NtRp2471
(dp2472
g62
(dp2473
sg71
g2458
sg64
(lp2474
g57
(g58
g59
NtRp2475
(dp2476
g62
(dp2477
g70
I4
ssg71
g2471
sg64
(lp2478
g1822
asbasbasbag57
(g73
g59
NtRp2479
(dp2480
g62
(dp2481
sg71
g1775
sg64
(lp2482
g57
(g78
g59
NtRp2483
(dp2484
g62
(dp2485
g82
g83
ssg71
g2479
sg64
(lp2486
S'web2py_version'
p2487
asbag57
(g78
g59
NtRp2488
(dp2489
g62
(dp2490
g89
g90
ssg71
g2479
sg64
(lp2491
S':'
asbag57
(g78
g59
NtRp2492
(dp2493
g62
(dp2494
sg71
g2479
sg64
(lp2495
g57
(g58
g59
NtRp2496
(dp2497
g62
(dp2498
g70
I4
ssg71
g2492
sg64
(lp2499
g57
(g66
g59
NtRp2500
(dp2501
g62
(dp2502
g70
I3
ssg71
Nsg64
(lp2503
g57
(g73
g59
NtRp2504
(dp2505
g62
(dp2506
sg71
g2500
sg64
(lp2507
g57
(g78
g59
NtRp2508
(dp2509
g62
(dp2510
sg71
g2504
sg64
(lp2511
g57
(g58
g59
NtRp2512
(dp2513
g62
(dp2514
g70
I3
ssg71
g2508
sg64
(lp2515
S'2'
asbasbasbag57
(g73
g59
NtRp2516
(dp2517
g62
(dp2518
sg71
g2500
sg64
(lp2519
g57
(g78
g59
NtRp2520
(dp2521
g62
(dp2522
sg71
g2516
sg64
(lp2523
g57
(g58
g59
NtRp2524
(dp2525
g62
(dp2526
g70
I3
ssg71
g2520
sg64
(lp2527
S'0'
asbasbasbag57
(g73
g59
NtRp2528
(dp2529
g62
(dp2530
sg71
g2500
sg64
(lp2531
g57
(g78
g59
NtRp2532
(dp2533
g62
(dp2534
sg71
g2528
sg64
(lp2535
g57
(g58
g59
NtRp2536
(dp2537
g62
(dp2538
g70
I3
ssg71
g2532
sg64
(lp2539
S'6'
asbasbasbag57
(g73
g59
NtRp2540
(dp2541
g62
(dp2542
sg71
g2500
sg64
(lp2543
g57
(g78
g59
NtRp2544
(dp2545
g62
(dp2546
sg71
g2540
sg64
(lp2547
g57
(g58
g59
NtRp2548
(dp2549
g62
(dp2550
g70
I3
ssg71
g2544
sg64
(lp2551
S'datetime.datetime(2012, 9, 2, 4, 44, 23)'
p2552
asbasbasbag57
(g73
g59
NtRp2553
(dp2554
g62
(dp2555
sg71
g2500
sg64
(lp2556
g57
(g78
g59
NtRp2557
(dp2558
g62
(dp2559
sg71
g2553
sg64
(lp2560
g57
(g58
g59
NtRp2561
(dp2562
g62
(dp2563
g70
I3
ssg71
g2557
sg64
(lp2564
S'stable'
p2565
asbasbasbasbasbasbasbag57
(g73
g59
NtRp2566
(dp2567
g62
(dp2568
sg71
g1775
sg64
(lp2569
g57
(g78
g59
NtRp2570
(dp2571
g62
(dp2572
g82
g83
ssg71
g2566
sg64
(lp2573
S'wsgi_errors'
p2574
asbag57
(g78
g59
NtRp2575
(dp2576
g62
(dp2577
g89
g90
ssg71
g2566
sg64
(lp2578
S':'
asbag57
(g78
g59
NtRp2579
(dp2580
g62
(dp2581
sg71
g2566
sg64
(lp2582
g57
(g58
g59
NtRp2583
(dp2584
g62
(dp2585
g70
I4
ssg71
g2579
sg64
(lp2586
S"<open file '<stderr>', mode 'w' at 0xb73770d0>"
p2587
asbasbasbag57
(g73
g59
NtRp2588
(dp2589
g62
(dp2590
sg71
g1775
sg64
(lp2591
g57
(g78
g59
NtRp2592
(dp2593
g62
(dp2594
g82
g83
ssg71
g2588
sg64
(lp2595
S'wsgi_file_wrapper'
p2596
asbag57
(g78
g59
NtRp2597
(dp2598
g62
(dp2599
g89
g90
ssg71
g2588
sg64
(lp2600
S':'
asbag57
(g78
g59
NtRp2601
(dp2602
g62
(dp2603
sg71
g2588
sg64
(lp2604
g57
(g58
g59
NtRp2605
(dp2606
g62
(dp2607
g70
I4
ssg71
g2601
sg64
(lp2608
S'<class wsgiref.util.FileWrapper at 0x9663fbc>'
p2609
asbasbasbag57
(g73
g59
NtRp2610
(dp2611
g62
(dp2612
sg71
g1775
sg64
(lp2613
g57
(g78
g59
NtRp2614
(dp2615
g62
(dp2616
g82
g83
ssg71
g2610
sg64
(lp2617
S'wsgi_input'
p2618
asbag57
(g78
g59
NtRp2619
(dp2620
g62
(dp2621
g89
g90
ssg71
g2610
sg64
(lp2622
S':'
asbag57
(g78
g59
NtRp2623
(dp2624
g62
(dp2625
sg71
g2610
sg64
(lp2626
g57
(g58
g59
NtRp2627
(dp2628
g62
(dp2629
g70
I4
ssg71
g2623
sg64
(lp2630
S'<socket._fileobject object at 0xaed319ec>'
p2631
asbasbasbag57
(g73
g59
NtRp2632
(dp2633
g62
(dp2634
sg71
g1775
sg64
(lp2635
g57
(g78
g59
NtRp2636
(dp2637
g62
(dp2638
g82
g83
ssg71
g2632
sg64
(lp2639
S'wsgi_multiprocess'
p2640
asbag57
(g78
g59
NtRp2641
(dp2642
g62
(dp2643
g89
g90
ssg71
g2632
sg64
(lp2644
S':'
asbag57
(g78
g59
NtRp2645
(dp2646
g62
(dp2647
sg71
g2632
sg64
(lp2648
g57
(g58
g59
NtRp2649
(dp2650
g62
(dp2651
g70
I4
ssg71
g2645
sg64
(lp2652
g100
asbasbasbag57
(g73
g59
NtRp2653
(dp2654
g62
(dp2655
sg71
g1775
sg64
(lp2656
g57
(g78
g59
NtRp2657
(dp2658
g62
(dp2659
g82
g83
ssg71
g2653
sg64
(lp2660
S'wsgi_multithread'
p2661
asbag57
(g78
g59
NtRp2662
(dp2663
g62
(dp2664
g89
g90
ssg71
g2653
sg64
(lp2665
S':'
asbag57
(g78
g59
NtRp2666
(dp2667
g62
(dp2668
sg71
g2653
sg64
(lp2669
g57
(g58
g59
NtRp2670
(dp2671
g62
(dp2672
g70
I4
ssg71
g2666
sg64
(lp2673
g1913
asbasbasbag57
(g73
g59
NtRp2674
(dp2675
g62
(dp2676
sg71
g1775
sg64
(lp2677
g57
(g78
g59
NtRp2678
(dp2679
g62
(dp2680
g82
g83
ssg71
g2674
sg64
(lp2681
S'wsgi_run_once'
p2682
asbag57
(g78
g59
NtRp2683
(dp2684
g62
(dp2685
g89
g90
ssg71
g2674
sg64
(lp2686
S':'
asbag57
(g78
g59
NtRp2687
(dp2688
g62
(dp2689
sg71
g2674
sg64
(lp2690
g57
(g58
g59
NtRp2691
(dp2692
g62
(dp2693
g70
I4
ssg71
g2687
sg64
(lp2694
g100
asbasbasbag57
(g73
g59
NtRp2695
(dp2696
g62
(dp2697
sg71
g1775
sg64
(lp2698
g57
(g78
g59
NtRp2699
(dp2700
g62
(dp2701
g82
g83
ssg71
g2695
sg64
(lp2702
S'wsgi_url_scheme'
p2703
asbag57
(g78
g59
NtRp2704
(dp2705
g62
(dp2706
g89
g90
ssg71
g2695
sg64
(lp2707
S':'
asbag57
(g78
g59
NtRp2708
(dp2709
g62
(dp2710
sg71
g2695
sg64
(lp2711
g57
(g58
g59
NtRp2712
(dp2713
g62
(dp2714
g70
I4
ssg71
g2708
sg64
(lp2715
S'http'
p2716
asbasbasbag57
(g73
g59
NtRp2717
(dp2718
g62
(dp2719
sg71
g1775
sg64
(lp2720
g57
(g78
g59
NtRp2721
(dp2722
g62
(dp2723
g82
g83
ssg71
g2717
sg64
(lp2724
S'wsgi_version'
p2725
asbag57
(g78
g59
NtRp2726
(dp2727
g62
(dp2728
g89
g90
ssg71
g2717
sg64
(lp2729
S':'
asbag57
(g78
g59
NtRp2730
(dp2731
g62
(dp2732
sg71
g2717
sg64
(lp2733
g57
(g58
g59
NtRp2734
(dp2735
g62
(dp2736
g70
I4
ssg71
g2730
sg64
(lp2737
g57
(g66
g59
NtRp2738
(dp2739
g62
(dp2740
g70
I3
ssg71
Nsg64
(lp2741
g57
(g73
g59
NtRp2742
(dp2743
g62
(dp2744
sg71
g2738
sg64
(lp2745
g57
(g78
g59
NtRp2746
(dp2747
g62
(dp2748
sg71
g2742
sg64
(lp2749
g57
(g58
g59
NtRp2750
(dp2751
g62
(dp2752
g70
I3
ssg71
g2746
sg64
(lp2753
S'1'
asbasbasbag57
(g73
g59
NtRp2754
(dp2755
g62
(dp2756
sg71
g2738
sg64
(lp2757
g57
(g78
g59
NtRp2758
(dp2759
g62
(dp2760
sg71
g2754
sg64
(lp2761
g57
(g58
g59
NtRp2762
(dp2763
g62
(dp2764
g70
I3
ssg71
g2758
sg64
(lp2765
S'0'
asbasbasbasbasbasbasbasbasbasbasbag57
(g73
g59
NtRp2766
(dp2767
g62
(dp2768
sg71
g67
sg64
(lp2769
g57
(g78
g59
NtRp2770
(dp2771
g62
(dp2772
g82
g83
ssg71
g2766
sg64
(lp2773
S'extension'
p2774
asbag57
(g78
g59
NtRp2775
(dp2776
g62
(dp2777
g89
g90
ssg71
g2766
sg64
(lp2778
S':'
asbag57
(g78
g59
NtRp2779
(dp2780
g62
(dp2781
sg71
g2766
sg64
(lp2782
g57
(g58
g59
NtRp2783
(dp2784
g62
(dp2785
g70
I5
ssg71
g2779
sg64
(lp2786
S'html'
p2787
asbasbasbag57
(g73
g59
NtRp2788
(dp2789
g62
(dp2790
sg71
g67
sg64
(lp2791
g57
(g78
g59
NtRp2792
(dp2793
g62
(dp2794
g82
g83
ssg71
g2788
sg64
(lp2795
S'folder'
p2796
asbag57
(g78
g59
NtRp2797
(dp2798
g62
(dp2799
g89
g90
ssg71
g2788
sg64
(lp2800
S':'
asbag57
(g78
g59
NtRp2801
(dp2802
g62
(dp2803
sg71
g2788
sg64
(lp2804
g57
(g58
g59
NtRp2805
(dp2806
g62
(dp2807
g70
I5
ssg71
g2801
sg64
(lp2808
S'/home/emp2web/ejecutar/web2py/applications/proyecto_webcast/'
p2809
asbasbasbag57
(g73
g59
NtRp2810
(dp2811
g62
(dp2812
sg71
g67
sg64
(lp2813
g57
(g78
g59
NtRp2814
(dp2815
g62
(dp2816
g82
g83
ssg71
g2810
sg64
(lp2817
S'function'
p2818
asbag57
(g78
g59
NtRp2819
(dp2820
g62
(dp2821
g89
g90
ssg71
g2810
sg64
(lp2822
S':'
asbag57
(g78
g59
NtRp2823
(dp2824
g62
(dp2825
sg71
g2810
sg64
(lp2826
g57
(g58
g59
NtRp2827
(dp2828
g62
(dp2829
g70
I5
ssg71
g2823
sg64
(lp2830
S'principal'
p2831
asbasbasbag57
(g73
g59
NtRp2832
(dp2833
g62
(dp2834
sg71
g67
sg64
(lp2835
g57
(g78
g59
NtRp2836
(dp2837
g62
(dp2838
g82
g83
ssg71
g2832
sg64
(lp2839
S'get_vars'
p2840
asbag57
(g78
g59
NtRp2841
(dp2842
g62
(dp2843
g89
g90
ssg71
g2832
sg64
(lp2844
S':'
asbag57
(g78
g59
NtRp2845
(dp2846
g62
(dp2847
sg71
g2832
sg64
(lp2848
g57
(g58
g59
NtRp2849
(dp2850
g62
(dp2851
g70
I5
ssg71
g2845
sg64
(lp2852
g57
(g66
g59
NtRp2853
(dp2854
g62
(dp2855
g70
I4
ssg71
Nsg64
(lp2856
sbasbasbasbag57
(g73
g59
NtRp2857
(dp2858
g62
(dp2859
sg71
g67
sg64
(lp2860
g57
(g78
g59
NtRp2861
(dp2862
g62
(dp2863
g82
g83
ssg71
g2857
sg64
(lp2864
S'global_settings'
p2865
asbag57
(g78
g59
NtRp2866
(dp2867
g62
(dp2868
g89
g90
ssg71
g2857
sg64
(lp2869
S':'
asbag57
(g78
g59
NtRp2870
(dp2871
g62
(dp2872
sg71
g2857
sg64
(lp2873
g57
(g58
g59
NtRp2874
(dp2875
g62
(dp2876
g70
I5
ssg71
g2870
sg64
(lp2877
g57
(g66
g59
NtRp2878
(dp2879
g62
(dp2880
g70
I4
ssg71
Nsg64
(lp2881
g57
(g73
g59
NtRp2882
(dp2883
g62
(dp2884
sg71
g2878
sg64
(lp2885
g57
(g78
g59
NtRp2886
(dp2887
g62
(dp2888
g82
g83
ssg71
g2882
sg64
(lp2889
g1787
asbag57
(g78
g59
NtRp2890
(dp2891
g62
(dp2892
g89
g90
ssg71
g2882
sg64
(lp2893
S':'
asbag57
(g78
g59
NtRp2894
(dp2895
g62
(dp2896
sg71
g2882
sg64
(lp2897
g57
(g58
g59
NtRp2898
(dp2899
g62
(dp2900
g70
I4
ssg71
g2894
sg64
(lp2901
S"set(['/home/emp2web/ejecutar/web2py/applications/welcome/', '/home/emp2web/ejecutar/web2py/applications/admin/', '/home/emp2web/ejecutar/web2py/applications/proyecto_webcast/', '/home/emp2web/ejecutar/web2py/applications/saaf/', '/home/emp2web/ejecutar/web2py/applications/saaf_or/', '/home/emp2web/ejecutar/web2py/applications/examples/'])"
p2902
asbasbasbag57
(g73
g59
NtRp2903
(dp2904
g62
(dp2905
sg71
g2878
sg64
(lp2906
g57
(g78
g59
NtRp2907
(dp2908
g62
(dp2909
g82
g83
ssg71
g2903
sg64
(lp2910
g1809
asbag57
(g78
g59
NtRp2911
(dp2912
g62
(dp2913
g89
g90
ssg71
g2903
sg64
(lp2914
S':'
asbag57
(g78
g59
NtRp2915
(dp2916
g62
(dp2917
sg71
g2903
sg64
(lp2918
g57
(g58
g59
NtRp2919
(dp2920
g62
(dp2921
g70
I4
ssg71
g2915
sg64
(lp2922
g1822
asbasbasbag57
(g73
g59
NtRp2923
(dp2924
g62
(dp2925
sg71
g2878
sg64
(lp2926
g57
(g78
g59
NtRp2927
(dp2928
g62
(dp2929
g82
g83
ssg71
g2923
sg64
(lp2930
g1831
asbag57
(g78
g59
NtRp2931
(dp2932
g62
(dp2933
g89
g90
ssg71
g2923
sg64
(lp2934
S':'
asbag57
(g78
g59
NtRp2935
(dp2936
g62
(dp2937
sg71
g2923
sg64
(lp2938
g57
(g58
g59
NtRp2939
(dp2940
g62
(dp2941
g70
I4
ssg71
g2935
sg64
(lp2942
g57
(g66
g59
NtRp2943
(dp2944
g62
(dp2945
g70
I3
ssg71
Nsg64
(lp2946
sbasbasbasbag57
(g73
g59
NtRp2947
(dp2948
g62
(dp2949
sg71
g2878
sg64
(lp2950
g57
(g78
g59
NtRp2951
(dp2952
g62
(dp2953
g82
g83
ssg71
g2947
sg64
(lp2954
g1856
asbag57
(g78
g59
NtRp2955
(dp2956
g62
(dp2957
g89
g90
ssg71
g2947
sg64
(lp2958
S':'
asbag57
(g78
g59
NtRp2959
(dp2960
g62
(dp2961
sg71
g2947
sg64
(lp2962
g57
(g58
g59
NtRp2963
(dp2964
g62
(dp2965
g70
I4
ssg71
g2959
sg64
(lp2966
S"<Values at 0x96abd4c: {'verbose': False, 'ip': '127.0.0.1', 'with_scheduler': False, 'ips': [], 'shutdown_timeout': 5, 'taskbar': False, 'port': 8000, 'maxthreads': None, 'softcron': False, 'server_name': 'emp2web', 'bpython': False, 'nogui': False, 'nocron': False, 'extcron': False, 'run_system_tests': False, 'test': None, 'folder': '/home/emp2web/ejecutar/web2py', 'config': '', 'import_models': False, 'winservice': '', 'shell': None, 'run': '', 'log_filename': 'httpserver.log', 'debuglevel': 30, 'args': [''], 'socket_timeout': 5, 'ssl_ca_certificate': None, 'scheduler': None, 'profiler_filename': None, 'ssl_private_key': '', 'scheduler_groups': None, 'password': 'admin', 'request_queue_size': 5, 'ssl_certificate': '', 'cronjob': False, 'numthreads': None, 'quiet': False, 'interfaces': None, 'minthreads': None, 'timeout': 10, 'plain': False, 'nobanner': False, 'pid_filename': 'httpserver.pid'}>"
p2967
asbasbasbag57
(g73
g59
NtRp2968
(dp2969
g62
(dp2970
sg71
g2878
sg64
(lp2971
g57
(g78
g59
NtRp2972
(dp2973
g62
(dp2974
g82
g83
ssg71
g2968
sg64
(lp2975
g1878
asbag57
(g78
g59
NtRp2976
(dp2977
g62
(dp2978
g89
g90
ssg71
g2968
sg64
(lp2979
S':'
asbag57
(g78
g59
NtRp2980
(dp2981
g62
(dp2982
sg71
g2968
sg64
(lp2983
g57
(g58
g59
NtRp2984
(dp2985
g62
(dp2986
g70
I4
ssg71
g2980
sg64
(lp2987
S'set([])'
p2988
asbasbasbag57
(g73
g59
NtRp2989
(dp2990
g62
(dp2991
sg71
g2878
sg64
(lp2992
g57
(g78
g59
NtRp2993
(dp2994
g62
(dp2995
g82
g83
ssg71
g2989
sg64
(lp2996
g1900
asbag57
(g78
g59
NtRp2997
(dp2998
g62
(dp2999
g89
g90
ssg71
g2989
sg64
(lp3000
S':'
asbag57
(g78
g59
NtRp3001
(dp3002
g62
(dp3003
sg71
g2989
sg64
(lp3004
g57
(g58
g59
NtRp3005
(dp3006
g62
(dp3007
g70
I4
ssg71
g3001
sg64
(lp3008
g1913
asbasbasbag57
(g73
g59
NtRp3009
(dp3010
g62
(dp3011
sg71
g2878
sg64
(lp3012
g57
(g78
g59
NtRp3013
(dp3014
g62
(dp3015
g82
g83
ssg71
g3009
sg64
(lp3016
g1922
asbag57
(g78
g59
NtRp3017
(dp3018
g62
(dp3019
g89
g90
ssg71
g3009
sg64
(lp3020
S':'
asbag57
(g78
g59
NtRp3021
(dp3022
g62
(dp3023
sg71
g3009
sg64
(lp3024
g57
(g58
g59
NtRp3025
(dp3026
g62
(dp3027
g70
I4
ssg71
g3021
sg64
(lp3028
g1935
asbasbasbag57
(g73
g59
NtRp3029
(dp3030
g62
(dp3031
sg71
g2878
sg64
(lp3032
g57
(g78
g59
NtRp3033
(dp3034
g62
(dp3035
g82
g83
ssg71
g3029
sg64
(lp3036
g2164
asbag57
(g78
g59
NtRp3037
(dp3038
g62
(dp3039
g89
g90
ssg71
g3029
sg64
(lp3040
S':'
asbag57
(g78
g59
NtRp3041
(dp3042
g62
(dp3043
sg71
g3029
sg64
(lp3044
g57
(g58
g59
NtRp3045
(dp3046
g62
(dp3047
g70
I4
ssg71
g3041
sg64
(lp3048
g100
asbasbasbag57
(g73
g59
NtRp3049
(dp3050
g62
(dp3051
sg71
g2878
sg64
(lp3052
g57
(g78
g59
NtRp3053
(dp3054
g62
(dp3055
g82
g83
ssg71
g3049
sg64
(lp3056
g2185
asbag57
(g78
g59
NtRp3057
(dp3058
g62
(dp3059
g89
g90
ssg71
g3049
sg64
(lp3060
S':'
asbag57
(g78
g59
NtRp3061
(dp3062
g62
(dp3063
sg71
g3049
sg64
(lp3064
g57
(g58
g59
NtRp3065
(dp3066
g62
(dp3067
g70
I4
ssg71
g3061
sg64
(lp3068
g100
asbasbasbag57
(g73
g59
NtRp3069
(dp3070
g62
(dp3071
sg71
g2878
sg64
(lp3072
g57
(g78
g59
NtRp3073
(dp3074
g62
(dp3075
g82
g83
ssg71
g3069
sg64
(lp3076
g2444
asbag57
(g78
g59
NtRp3077
(dp3078
g62
(dp3079
g89
g90
ssg71
g3069
sg64
(lp3080
S':'
asbag57
(g78
g59
NtRp3081
(dp3082
g62
(dp3083
sg71
g3069
sg64
(lp3084
g57
(g58
g59
NtRp3085
(dp3086
g62
(dp3087
g70
I4
ssg71
g3081
sg64
(lp3088
g2457
asbasbasbag57
(g73
g59
NtRp3089
(dp3090
g62
(dp3091
sg71
g2878
sg64
(lp3092
g57
(g78
g59
NtRp3093
(dp3094
g62
(dp3095
g82
g83
ssg71
g3089
sg64
(lp3096
g2487
asbag57
(g78
g59
NtRp3097
(dp3098
g62
(dp3099
g89
g90
ssg71
g3089
sg64
(lp3100
S':'
asbag57
(g78
g59
NtRp3101
(dp3102
g62
(dp3103
sg71
g3089
sg64
(lp3104
g57
(g58
g59
NtRp3105
(dp3106
g62
(dp3107
g70
I4
ssg71
g3101
sg64
(lp3108
g57
(g66
g59
NtRp3109
(dp3110
g62
(dp3111
g70
I3
ssg71
Nsg64
(lp3112
g57
(g73
g59
NtRp3113
(dp3114
g62
(dp3115
sg71
g3109
sg64
(lp3116
g57
(g78
g59
NtRp3117
(dp3118
g62
(dp3119
sg71
g3113
sg64
(lp3120
g57
(g58
g59
NtRp3121
(dp3122
g62
(dp3123
g70
I3
ssg71
g3117
sg64
(lp3124
S'2'
asbasbasbag57
(g73
g59
NtRp3125
(dp3126
g62
(dp3127
sg71
g3109
sg64
(lp3128
g57
(g78
g59
NtRp3129
(dp3130
g62
(dp3131
sg71
g3125
sg64
(lp3132
g57
(g58
g59
NtRp3133
(dp3134
g62
(dp3135
g70
I3
ssg71
g3129
sg64
(lp3136
S'0'
asbasbasbag57
(g73
g59
NtRp3137
(dp3138
g62
(dp3139
sg71
g3109
sg64
(lp3140
g57
(g78
g59
NtRp3141
(dp3142
g62
(dp3143
sg71
g3137
sg64
(lp3144
g57
(g58
g59
NtRp3145
(dp3146
g62
(dp3147
g70
I3
ssg71
g3141
sg64
(lp3148
S'6'
asbasbasbag57
(g73
g59
NtRp3149
(dp3150
g62
(dp3151
sg71
g3109
sg64
(lp3152
g57
(g78
g59
NtRp3153
(dp3154
g62
(dp3155
sg71
g3149
sg64
(lp3156
g57
(g58
g59
NtRp3157
(dp3158
g62
(dp3159
g70
I3
ssg71
g3153
sg64
(lp3160
S'datetime.datetime(2012, 9, 2, 4, 44, 23)'
p3161
asbasbasbag57
(g73
g59
NtRp3162
(dp3163
g62
(dp3164
sg71
g3109
sg64
(lp3165
g57
(g78
g59
NtRp3166
(dp3167
g62
(dp3168
sg71
g3162
sg64
(lp3169
g57
(g58
g59
NtRp3170
(dp3171
g62
(dp3172
g70
I3
ssg71
g3166
sg64
(lp3173
g2565
asbasbasbasbasbasbasbasbasbasbasbag57
(g73
g59
NtRp3174
(dp3175
g62
(dp3176
sg71
g67
sg64
(lp3177
g57
(g78
g59
NtRp3178
(dp3179
g62
(dp3180
g82
g83
ssg71
g3174
sg64
(lp3181
S'is_https'
p3182
asbag57
(g78
g59
NtRp3183
(dp3184
g62
(dp3185
g89
g90
ssg71
g3174
sg64
(lp3186
S':'
asbag57
(g78
g59
NtRp3187
(dp3188
g62
(dp3189
sg71
g3174
sg64
(lp3190
g57
(g58
g59
NtRp3191
(dp3192
g62
(dp3193
g70
I5
ssg71
g3187
sg64
(lp3194
g100
asbasbasbag57
(g73
g59
NtRp3195
(dp3196
g62
(dp3197
sg71
g67
sg64
(lp3198
g57
(g78
g59
NtRp3199
(dp3200
g62
(dp3201
g82
g83
ssg71
g3195
sg64
(lp3202
S'is_local'
p3203
asbag57
(g78
g59
NtRp3204
(dp3205
g62
(dp3206
g89
g90
ssg71
g3195
sg64
(lp3207
S':'
asbag57
(g78
g59
NtRp3208
(dp3209
g62
(dp3210
sg71
g3195
sg64
(lp3211
g57
(g58
g59
NtRp3212
(dp3213
g62
(dp3214
g70
I5
ssg71
g3208
sg64
(lp3215
g1913
asbasbasbag57
(g73
g59
NtRp3216
(dp3217
g62
(dp3218
sg71
g67
sg64
(lp3219
g57
(g78
g59
NtRp3220
(dp3221
g62
(dp3222
g82
g83
ssg71
g3216
sg64
(lp3223
S'is_restful'
p3224
asbag57
(g78
g59
NtRp3225
(dp3226
g62
(dp3227
g89
g90
ssg71
g3216
sg64
(lp3228
S':'
asbag57
(g78
g59
NtRp3229
(dp3230
g62
(dp3231
sg71
g3216
sg64
(lp3232
g57
(g58
g59
NtRp3233
(dp3234
g62
(dp3235
g70
I5
ssg71
g3229
sg64
(lp3236
g100
asbasbasbag57
(g73
g59
NtRp3237
(dp3238
g62
(dp3239
sg71
g67
sg64
(lp3240
g57
(g78
g59
NtRp3241
(dp3242
g62
(dp3243
g82
g83
ssg71
g3237
sg64
(lp3244
S'now'
p3245
asbag57
(g78
g59
NtRp3246
(dp3247
g62
(dp3248
g89
g90
ssg71
g3237
sg64
(lp3249
S':'
asbag57
(g78
g59
NtRp3250
(dp3251
g62
(dp3252
sg71
g3237
sg64
(lp3253
g57
(g58
g59
NtRp3254
(dp3255
g62
(dp3256
g70
I5
ssg71
g3250
sg64
(lp3257
S'datetime.datetime(2012, 9, 13, 3, 19, 6, 774365)'
p3258
asbasbasbag57
(g73
g59
NtRp3259
(dp3260
g62
(dp3261
sg71
g67
sg64
(lp3262
g57
(g78
g59
NtRp3263
(dp3264
g62
(dp3265
g82
g83
ssg71
g3259
sg64
(lp3266
S'post_vars'
p3267
asbag57
(g78
g59
NtRp3268
(dp3269
g62
(dp3270
g89
g90
ssg71
g3259
sg64
(lp3271
S':'
asbag57
(g78
g59
NtRp3272
(dp3273
g62
(dp3274
sg71
g3259
sg64
(lp3275
g57
(g58
g59
NtRp3276
(dp3277
g62
(dp3278
g70
I5
ssg71
g3272
sg64
(lp3279
g57
(g66
g59
NtRp3280
(dp3281
g62
(dp3282
g70
I4
ssg71
Nsg64
(lp3283
sbasbasbasbag57
(g73
g59
NtRp3284
(dp3285
g62
(dp3286
sg71
g67
sg64
(lp3287
g57
(g78
g59
NtRp3288
(dp3289
g62
(dp3290
g82
g83
ssg71
g3284
sg64
(lp3291
S'raw_args'
p3292
asbag57
(g78
g59
NtRp3293
(dp3294
g62
(dp3295
g89
g90
ssg71
g3284
sg64
(lp3296
S':'
asbag57
(g78
g59
NtRp3297
(dp3298
g62
(dp3299
sg71
g3284
sg64
(lp3300
g57
(g58
g59
NtRp3301
(dp3302
g62
(dp3303
g70
I5
ssg71
g3297
sg64
(lp3304
S'None'
p3305
asbasbasbag57
(g73
g59
NtRp3306
(dp3307
g62
(dp3308
sg71
g67
sg64
(lp3309
g57
(g78
g59
NtRp3310
(dp3311
g62
(dp3312
g82
g83
ssg71
g3306
sg64
(lp3313
S'raw_extension'
p3314
asbag57
(g78
g59
NtRp3315
(dp3316
g62
(dp3317
g89
g90
ssg71
g3306
sg64
(lp3318
S':'
asbag57
(g78
g59
NtRp3319
(dp3320
g62
(dp3321
sg71
g3306
sg64
(lp3322
g57
(g58
g59
NtRp3323
(dp3324
g62
(dp3325
g70
I5
ssg71
g3319
sg64
(lp3326
S'None'
p3327
asbasbasbag57
(g73
g59
NtRp3328
(dp3329
g62
(dp3330
sg71
g67
sg64
(lp3331
g57
(g78
g59
NtRp3332
(dp3333
g62
(dp3334
g82
g83
ssg71
g3328
sg64
(lp3335
S'url'
p3336
asbag57
(g78
g59
NtRp3337
(dp3338
g62
(dp3339
g89
g90
ssg71
g3328
sg64
(lp3340
S':'
asbag57
(g78
g59
NtRp3341
(dp3342
g62
(dp3343
sg71
g3328
sg64
(lp3344
g57
(g58
g59
NtRp3345
(dp3346
g62
(dp3347
g70
I5
ssg71
g3341
sg64
(lp3348
S'/proyecto_webcast/default/principal'
p3349
asbasbasbag57
(g73
g59
NtRp3350
(dp3351
g62
(dp3352
sg71
g67
sg64
(lp3353
g57
(g78
g59
NtRp3354
(dp3355
g62
(dp3356
g82
g83
ssg71
g3350
sg64
(lp3357
S'utcnow'
p3358
asbag57
(g78
g59
NtRp3359
(dp3360
g62
(dp3361
g89
g90
ssg71
g3350
sg64
(lp3362
S':'
asbag57
(g78
g59
NtRp3363
(dp3364
g62
(dp3365
sg71
g3350
sg64
(lp3366
g57
(g58
g59
NtRp3367
(dp3368
g62
(dp3369
g70
I5
ssg71
g3363
sg64
(lp3370
S'datetime.datetime(2012, 9, 13, 8, 19, 6, 774393)'
p3371
asbasbasbag57
(g73
g59
NtRp3372
(dp3373
g62
(dp3374
sg71
g67
sg64
(lp3375
g57
(g78
g59
NtRp3376
(dp3377
g62
(dp3378
g82
g83
ssg71
g3372
sg64
(lp3379
S'uuid'
p3380
asbag57
(g78
g59
NtRp3381
(dp3382
g62
(dp3383
g89
g90
ssg71
g3372
sg64
(lp3384
S':'
asbag57
(g78
g59
NtRp3385
(dp3386
g62
(dp3387
sg71
g3372
sg64
(lp3388
g57
(g58
g59
NtRp3389
(dp3390
g62
(dp3391
g70
I5
ssg71
g3385
sg64
(lp3392
S'proyecto_webcast/127.0.0.1.2012-09-13.03-19-06.70958cae-7cea-4084-8bdb-9164e3b7263b'
p3393
asbasbasbag57
(g73
g59
NtRp3394
(dp3395
g62
(dp3396
sg71
g67
sg64
(lp3397
g57
(g78
g59
NtRp3398
(dp3399
g62
(dp3400
g82
g83
ssg71
g3394
sg64
(lp3401
S'vars'
p3402
asbag57
(g78
g59
NtRp3403
(dp3404
g62
(dp3405
g89
g90
ssg71
g3394
sg64
(lp3406
S':'
asbag57
(g78
g59
NtRp3407
(dp3408
g62
(dp3409
sg71
g3394
sg64
(lp3410
g57
(g58
g59
NtRp3411
(dp3412
g62
(dp3413
g70
I5
ssg71
g3407
sg64
(lp3414
g57
(g66
g59
NtRp3415
(dp3416
g62
(dp3417
g70
I4
ssg71
Nsg64
(lp3418
sbasbasbasbag57
(g73
g59
NtRp3419
(dp3420
g62
(dp3421
sg71
g67
sg64
(lp3422
g57
(g78
g59
NtRp3423
(dp3424
g62
(dp3425
g82
g83
ssg71
g3419
sg64
(lp3426
S'wsgi'
p3427
asbag57
(g78
g59
NtRp3428
(dp3429
g62
(dp3430
g89
g90
ssg71
g3419
sg64
(lp3431
S':'
asbag57
(g78
g59
NtRp3432
(dp3433
g62
(dp3434
sg71
g3419
sg64
(lp3435
g57
(g58
g59
NtRp3436
(dp3437
g62
(dp3438
g70
I5
ssg71
g3432
sg64
(lp3439
g57
(g66
g59
NtRp3440
(dp3441
g62
(dp3442
g70
I4
ssg71
Nsg64
(lp3443
g57
(g73
g59
NtRp3444
(dp3445
g62
(dp3446
sg71
g3440
sg64
(lp3447
g57
(g78
g59
NtRp3448
(dp3449
g62
(dp3450
g82
g83
ssg71
g3444
sg64
(lp3451
S'environ'
p3452
asbag57
(g78
g59
NtRp3453
(dp3454
g62
(dp3455
g89
g90
ssg71
g3444
sg64
(lp3456
S':'
asbag57
(g78
g59
NtRp3457
(dp3458
g62
(dp3459
sg71
g3444
sg64
(lp3460
g57
(g58
g59
NtRp3461
(dp3462
g62
(dp3463
g70
I4
ssg71
g3457
sg64
(lp3464
g57
(g66
g59
NtRp3465
(dp3466
g62
(dp3467
g70
I3
ssg71
Nsg64
(lp3468
g57
(g73
g59
NtRp3469
(dp3470
g62
(dp3471
sg71
g3465
sg64
(lp3472
g57
(g78
g59
NtRp3473
(dp3474
g62
(dp3475
g82
g83
ssg71
g3469
sg64
(lp3476
S'HTTP_ACCEPT'
p3477
asbag57
(g78
g59
NtRp3478
(dp3479
g62
(dp3480
g89
g90
ssg71
g3469
sg64
(lp3481
S':'
asbag57
(g78
g59
NtRp3482
(dp3483
g62
(dp3484
sg71
g3469
sg64
(lp3485
g57
(g58
g59
NtRp3486
(dp3487
g62
(dp3488
g70
I3
ssg71
g3482
sg64
(lp3489
g1957
asbasbasbag57
(g73
g59
NtRp3490
(dp3491
g62
(dp3492
sg71
g3465
sg64
(lp3493
g57
(g78
g59
NtRp3494
(dp3495
g62
(dp3496
g82
g83
ssg71
g3490
sg64
(lp3497
S'HTTP_ACCEPT_CHARSET'
p3498
asbag57
(g78
g59
NtRp3499
(dp3500
g62
(dp3501
g89
g90
ssg71
g3490
sg64
(lp3502
S':'
asbag57
(g78
g59
NtRp3503
(dp3504
g62
(dp3505
sg71
g3490
sg64
(lp3506
g57
(g58
g59
NtRp3507
(dp3508
g62
(dp3509
g70
I3
ssg71
g3503
sg64
(lp3510
g1979
asbasbasbag57
(g73
g59
NtRp3511
(dp3512
g62
(dp3513
sg71
g3465
sg64
(lp3514
g57
(g78
g59
NtRp3515
(dp3516
g62
(dp3517
g82
g83
ssg71
g3511
sg64
(lp3518
S'HTTP_ACCEPT_ENCODING'
p3519
asbag57
(g78
g59
NtRp3520
(dp3521
g62
(dp3522
g89
g90
ssg71
g3511
sg64
(lp3523
S':'
asbag57
(g78
g59
NtRp3524
(dp3525
g62
(dp3526
sg71
g3511
sg64
(lp3527
g57
(g58
g59
NtRp3528
(dp3529
g62
(dp3530
g70
I3
ssg71
g3524
sg64
(lp3531
g2001
asbasbasbag57
(g73
g59
NtRp3532
(dp3533
g62
(dp3534
sg71
g3465
sg64
(lp3535
g57
(g78
g59
NtRp3536
(dp3537
g62
(dp3538
g82
g83
ssg71
g3532
sg64
(lp3539
S'HTTP_ACCEPT_LANGUAGE'
p3540
asbag57
(g78
g59
NtRp3541
(dp3542
g62
(dp3543
g89
g90
ssg71
g3532
sg64
(lp3544
S':'
asbag57
(g78
g59
NtRp3545
(dp3546
g62
(dp3547
sg71
g3532
sg64
(lp3548
g57
(g58
g59
NtRp3549
(dp3550
g62
(dp3551
g70
I3
ssg71
g3545
sg64
(lp3552
g2023
asbasbasbag57
(g73
g59
NtRp3553
(dp3554
g62
(dp3555
sg71
g3465
sg64
(lp3556
g57
(g78
g59
NtRp3557
(dp3558
g62
(dp3559
g82
g83
ssg71
g3553
sg64
(lp3560
S'HTTP_CACHE_CONTROL'
p3561
asbag57
(g78
g59
NtRp3562
(dp3563
g62
(dp3564
g89
g90
ssg71
g3553
sg64
(lp3565
S':'
asbag57
(g78
g59
NtRp3566
(dp3567
g62
(dp3568
sg71
g3553
sg64
(lp3569
g57
(g58
g59
NtRp3570
(dp3571
g62
(dp3572
g70
I3
ssg71
g3566
sg64
(lp3573
g2045
asbasbasbag57
(g73
g59
NtRp3574
(dp3575
g62
(dp3576
sg71
g3465
sg64
(lp3577
g57
(g78
g59
NtRp3578
(dp3579
g62
(dp3580
g82
g83
ssg71
g3574
sg64
(lp3581
S'HTTP_CONNECTION'
p3582
asbag57
(g78
g59
NtRp3583
(dp3584
g62
(dp3585
g89
g90
ssg71
g3574
sg64
(lp3586
S':'
asbag57
(g78
g59
NtRp3587
(dp3588
g62
(dp3589
sg71
g3574
sg64
(lp3590
g57
(g58
g59
NtRp3591
(dp3592
g62
(dp3593
g70
I3
ssg71
g3587
sg64
(lp3594
g2067
asbasbasbag57
(g73
g59
NtRp3595
(dp3596
g62
(dp3597
sg71
g3465
sg64
(lp3598
g57
(g78
g59
NtRp3599
(dp3600
g62
(dp3601
g82
g83
ssg71
g3595
sg64
(lp3602
S'HTTP_COOKIE'
p3603
asbag57
(g78
g59
NtRp3604
(dp3605
g62
(dp3606
g89
g90
ssg71
g3595
sg64
(lp3607
S':'
asbag57
(g78
g59
NtRp3608
(dp3609
g62
(dp3610
sg71
g3595
sg64
(lp3611
g57
(g58
g59
NtRp3612
(dp3613
g62
(dp3614
g70
I3
ssg71
g3608
sg64
(lp3615
g2089
asbasbasbag57
(g73
g59
NtRp3616
(dp3617
g62
(dp3618
sg71
g3465
sg64
(lp3619
g57
(g78
g59
NtRp3620
(dp3621
g62
(dp3622
g82
g83
ssg71
g3616
sg64
(lp3623
S'HTTP_HOST'
p3624
asbag57
(g78
g59
NtRp3625
(dp3626
g62
(dp3627
g89
g90
ssg71
g3616
sg64
(lp3628
S':'
asbag57
(g78
g59
NtRp3629
(dp3630
g62
(dp3631
sg71
g3616
sg64
(lp3632
g57
(g58
g59
NtRp3633
(dp3634
g62
(dp3635
g70
I3
ssg71
g3629
sg64
(lp3636
g2111
asbasbasbag57
(g73
g59
NtRp3637
(dp3638
g62
(dp3639
sg71
g3465
sg64
(lp3640
g57
(g78
g59
NtRp3641
(dp3642
g62
(dp3643
g82
g83
ssg71
g3637
sg64
(lp3644
S'HTTP_REFERER'
p3645
asbag57
(g78
g59
NtRp3646
(dp3647
g62
(dp3648
g89
g90
ssg71
g3637
sg64
(lp3649
S':'
asbag57
(g78
g59
NtRp3650
(dp3651
g62
(dp3652
sg71
g3637
sg64
(lp3653
g57
(g58
g59
NtRp3654
(dp3655
g62
(dp3656
g70
I3
ssg71
g3650
sg64
(lp3657
g2133
asbasbasbag57
(g73
g59
NtRp3658
(dp3659
g62
(dp3660
sg71
g3465
sg64
(lp3661
g57
(g78
g59
NtRp3662
(dp3663
g62
(dp3664
g82
g83
ssg71
g3658
sg64
(lp3665
S'HTTP_USER_AGENT'
p3666
asbag57
(g78
g59
NtRp3667
(dp3668
g62
(dp3669
g89
g90
ssg71
g3658
sg64
(lp3670
S':'
asbag57
(g78
g59
NtRp3671
(dp3672
g62
(dp3673
sg71
g3658
sg64
(lp3674
g57
(g58
g59
NtRp3675
(dp3676
g62
(dp3677
g70
I3
ssg71
g3671
sg64
(lp3678
g2155
asbasbasbag57
(g73
g59
NtRp3679
(dp3680
g62
(dp3681
sg71
g3465
sg64
(lp3682
g57
(g78
g59
NtRp3683
(dp3684
g62
(dp3685
g82
g83
ssg71
g3679
sg64
(lp3686
S'PATH_INFO'
p3687
asbag57
(g78
g59
NtRp3688
(dp3689
g62
(dp3690
g89
g90
ssg71
g3679
sg64
(lp3691
S':'
asbag57
(g78
g59
NtRp3692
(dp3693
g62
(dp3694
sg71
g3679
sg64
(lp3695
g57
(g58
g59
NtRp3696
(dp3697
g62
(dp3698
g70
I3
ssg71
g3692
sg64
(lp3699
g2219
asbasbasbag57
(g73
g59
NtRp3700
(dp3701
g62
(dp3702
sg71
g3465
sg64
(lp3703
g57
(g78
g59
NtRp3704
(dp3705
g62
(dp3706
g82
g83
ssg71
g3700
sg64
(lp3707
S'QUERY_STRING'
p3708
asbag57
(g78
g59
NtRp3709
(dp3710
g62
(dp3711
g89
g90
ssg71
g3700
sg64
(lp3712
S':'
asbag57
(g78
g59
NtRp3713
(dp3714
g62
(dp3715
sg71
g3700
sg64
(lp3716
g57
(g58
g59
NtRp3717
(dp3718
g62
(dp3719
g70
I3
ssg71
g3713
sg64
(lp3720
S''
asbasbasbag57
(g73
g59
NtRp3721
(dp3722
g62
(dp3723
sg71
g3465
sg64
(lp3724
g57
(g78
g59
NtRp3725
(dp3726
g62
(dp3727
g82
g83
ssg71
g3721
sg64
(lp3728
S'REMOTE_ADDR'
p3729
asbag57
(g78
g59
NtRp3730
(dp3731
g62
(dp3732
g89
g90
ssg71
g3721
sg64
(lp3733
S':'
asbag57
(g78
g59
NtRp3734
(dp3735
g62
(dp3736
sg71
g3721
sg64
(lp3737
g57
(g58
g59
NtRp3738
(dp3739
g62
(dp3740
g70
I3
ssg71
g3734
sg64
(lp3741
g212
asbasbasbag57
(g73
g59
NtRp3742
(dp3743
g62
(dp3744
sg71
g3465
sg64
(lp3745
g57
(g78
g59
NtRp3746
(dp3747
g62
(dp3748
g82
g83
ssg71
g3742
sg64
(lp3749
S'REMOTE_PORT'
p3750
asbag57
(g78
g59
NtRp3751
(dp3752
g62
(dp3753
g89
g90
ssg71
g3742
sg64
(lp3754
S':'
asbag57
(g78
g59
NtRp3755
(dp3756
g62
(dp3757
sg71
g3742
sg64
(lp3758
g57
(g58
g59
NtRp3759
(dp3760
g62
(dp3761
g70
I3
ssg71
g3755
sg64
(lp3762
g2283
asbasbasbag57
(g73
g59
NtRp3763
(dp3764
g62
(dp3765
sg71
g3465
sg64
(lp3766
g57
(g78
g59
NtRp3767
(dp3768
g62
(dp3769
g82
g83
ssg71
g3763
sg64
(lp3770
S'REQUEST_METHOD'
p3771
asbag57
(g78
g59
NtRp3772
(dp3773
g62
(dp3774
g89
g90
ssg71
g3763
sg64
(lp3775
S':'
asbag57
(g78
g59
NtRp3776
(dp3777
g62
(dp3778
sg71
g3763
sg64
(lp3779
g57
(g58
g59
NtRp3780
(dp3781
g62
(dp3782
g70
I3
ssg71
g3776
sg64
(lp3783
g2305
asbasbasbag57
(g73
g59
NtRp3784
(dp3785
g62
(dp3786
sg71
g3465
sg64
(lp3787
g57
(g78
g59
NtRp3788
(dp3789
g62
(dp3790
g82
g83
ssg71
g3784
sg64
(lp3791
S'REQUEST_URI'
p3792
asbag57
(g78
g59
NtRp3793
(dp3794
g62
(dp3795
g89
g90
ssg71
g3784
sg64
(lp3796
S':'
asbag57
(g78
g59
NtRp3797
(dp3798
g62
(dp3799
sg71
g3784
sg64
(lp3800
g57
(g58
g59
NtRp3801
(dp3802
g62
(dp3803
g70
I3
ssg71
g3797
sg64
(lp3804
g2219
asbasbasbag57
(g73
g59
NtRp3805
(dp3806
g62
(dp3807
sg71
g3465
sg64
(lp3808
g57
(g78
g59
NtRp3809
(dp3810
g62
(dp3811
g82
g83
ssg71
g3805
sg64
(lp3812
S'SCRIPT_NAME'
p3813
asbag57
(g78
g59
NtRp3814
(dp3815
g62
(dp3816
g89
g90
ssg71
g3805
sg64
(lp3817
S':'
asbag57
(g78
g59
NtRp3818
(dp3819
g62
(dp3820
sg71
g3805
sg64
(lp3821
g57
(g58
g59
NtRp3822
(dp3823
g62
(dp3824
g70
I3
ssg71
g3818
sg64
(lp3825
S''
asbasbasbag57
(g73
g59
NtRp3826
(dp3827
g62
(dp3828
sg71
g3465
sg64
(lp3829
g57
(g78
g59
NtRp3830
(dp3831
g62
(dp3832
g82
g83
ssg71
g3826
sg64
(lp3833
S'SERVER_NAME'
p3834
asbag57
(g78
g59
NtRp3835
(dp3836
g62
(dp3837
g89
g90
ssg71
g3826
sg64
(lp3838
S':'
asbag57
(g78
g59
NtRp3839
(dp3840
g62
(dp3841
sg71
g3826
sg64
(lp3842
g57
(g58
g59
NtRp3843
(dp3844
g62
(dp3845
g70
I3
ssg71
g3839
sg64
(lp3846
g2369
asbasbasbag57
(g73
g59
NtRp3847
(dp3848
g62
(dp3849
sg71
g3465
sg64
(lp3850
g57
(g78
g59
NtRp3851
(dp3852
g62
(dp3853
g82
g83
ssg71
g3847
sg64
(lp3854
S'SERVER_PORT'
p3855
asbag57
(g78
g59
NtRp3856
(dp3857
g62
(dp3858
g89
g90
ssg71
g3847
sg64
(lp3859
S':'
asbag57
(g78
g59
NtRp3860
(dp3861
g62
(dp3862
sg71
g3847
sg64
(lp3863
g57
(g58
g59
NtRp3864
(dp3865
g62
(dp3866
g70
I3
ssg71
g3860
sg64
(lp3867
g2391
asbasbasbag57
(g73
g59
NtRp3868
(dp3869
g62
(dp3870
sg71
g3465
sg64
(lp3871
g57
(g78
g59
NtRp3872
(dp3873
g62
(dp3874
g82
g83
ssg71
g3868
sg64
(lp3875
S'SERVER_PROTOCOL'
p3876
asbag57
(g78
g59
NtRp3877
(dp3878
g62
(dp3879
g89
g90
ssg71
g3868
sg64
(lp3880
S':'
asbag57
(g78
g59
NtRp3881
(dp3882
g62
(dp3883
sg71
g3868
sg64
(lp3884
g57
(g58
g59
NtRp3885
(dp3886
g62
(dp3887
g70
I3
ssg71
g3881
sg64
(lp3888
g2413
asbasbasbag57
(g73
g59
NtRp3889
(dp3890
g62
(dp3891
sg71
g3465
sg64
(lp3892
g57
(g78
g59
NtRp3893
(dp3894
g62
(dp3895
g82
g83
ssg71
g3889
sg64
(lp3896
S'SERVER_SOFTWARE'
p3897
asbag57
(g78
g59
NtRp3898
(dp3899
g62
(dp3900
g89
g90
ssg71
g3889
sg64
(lp3901
S':'
asbag57
(g78
g59
NtRp3902
(dp3903
g62
(dp3904
sg71
g3889
sg64
(lp3905
g57
(g58
g59
NtRp3906
(dp3907
g62
(dp3908
g70
I3
ssg71
g3902
sg64
(lp3909
g2435
asbasbasbag57
(g73
g59
NtRp3910
(dp3911
g62
(dp3912
sg71
g3465
sg64
(lp3913
g57
(g78
g59
NtRp3914
(dp3915
g62
(dp3916
g82
g83
ssg71
g3910
sg64
(lp3917
S'wsgi.errors'
p3918
asbag57
(g78
g59
NtRp3919
(dp3920
g62
(dp3921
g89
g90
ssg71
g3910
sg64
(lp3922
S':'
asbag57
(g78
g59
NtRp3923
(dp3924
g62
(dp3925
sg71
g3910
sg64
(lp3926
g57
(g58
g59
NtRp3927
(dp3928
g62
(dp3929
g70
I3
ssg71
g3923
sg64
(lp3930
S"<open file '<stderr>', mode 'w' at 0xb73770d0>"
p3931
asbasbasbag57
(g73
g59
NtRp3932
(dp3933
g62
(dp3934
sg71
g3465
sg64
(lp3935
g57
(g78
g59
NtRp3936
(dp3937
g62
(dp3938
g82
g83
ssg71
g3932
sg64
(lp3939
S'wsgi.file_wrapper'
p3940
asbag57
(g78
g59
NtRp3941
(dp3942
g62
(dp3943
g89
g90
ssg71
g3932
sg64
(lp3944
S':'
asbag57
(g78
g59
NtRp3945
(dp3946
g62
(dp3947
sg71
g3932
sg64
(lp3948
g57
(g58
g59
NtRp3949
(dp3950
g62
(dp3951
g70
I3
ssg71
g3945
sg64
(lp3952
S'<class wsgiref.util.FileWrapper at 0x9663fbc>'
p3953
asbasbasbag57
(g73
g59
NtRp3954
(dp3955
g62
(dp3956
sg71
g3465
sg64
(lp3957
g57
(g78
g59
NtRp3958
(dp3959
g62
(dp3960
g82
g83
ssg71
g3954
sg64
(lp3961
S'wsgi.input'
p3962
asbag57
(g78
g59
NtRp3963
(dp3964
g62
(dp3965
g89
g90
ssg71
g3954
sg64
(lp3966
S':'
asbag57
(g78
g59
NtRp3967
(dp3968
g62
(dp3969
sg71
g3954
sg64
(lp3970
g57
(g58
g59
NtRp3971
(dp3972
g62
(dp3973
g70
I3
ssg71
g3967
sg64
(lp3974
S'<cStringIO.StringO object at 0xae532c20>'
p3975
asbasbasbag57
(g73
g59
NtRp3976
(dp3977
g62
(dp3978
sg71
g3465
sg64
(lp3979
g57
(g78
g59
NtRp3980
(dp3981
g62
(dp3982
g82
g83
ssg71
g3976
sg64
(lp3983
S'wsgi.multiprocess'
p3984
asbag57
(g78
g59
NtRp3985
(dp3986
g62
(dp3987
g89
g90
ssg71
g3976
sg64
(lp3988
S':'
asbag57
(g78
g59
NtRp3989
(dp3990
g62
(dp3991
sg71
g3976
sg64
(lp3992
g57
(g58
g59
NtRp3993
(dp3994
g62
(dp3995
g70
I3
ssg71
g3989
sg64
(lp3996
g100
asbasbasbag57
(g73
g59
NtRp3997
(dp3998
g62
(dp3999
sg71
g3465
sg64
(lp4000
g57
(g78
g59
NtRp4001
(dp4002
g62
(dp4003
g82
g83
ssg71
g3997
sg64
(lp4004
S'wsgi.multithread'
p4005
asbag57
(g78
g59
NtRp4006
(dp4007
g62
(dp4008
g89
g90
ssg71
g3997
sg64
(lp4009
S':'
asbag57
(g78
g59
NtRp4010
(dp4011
g62
(dp4012
sg71
g3997
sg64
(lp4013
g57
(g58
g59
NtRp4014
(dp4015
g62
(dp4016
g70
I3
ssg71
g4010
sg64
(lp4017
g1913
asbasbasbag57
(g73
g59
NtRp4018
(dp4019
g62
(dp4020
sg71
g3465
sg64
(lp4021
g57
(g78
g59
NtRp4022
(dp4023
g62
(dp4024
g82
g83
ssg71
g4018
sg64
(lp4025
S'wsgi.run_once'
p4026
asbag57
(g78
g59
NtRp4027
(dp4028
g62
(dp4029
g89
g90
ssg71
g4018
sg64
(lp4030
S':'
asbag57
(g78
g59
NtRp4031
(dp4032
g62
(dp4033
sg71
g4018
sg64
(lp4034
g57
(g58
g59
NtRp4035
(dp4036
g62
(dp4037
g70
I3
ssg71
g4031
sg64
(lp4038
g100
asbasbasbag57
(g73
g59
NtRp4039
(dp4040
g62
(dp4041
sg71
g3465
sg64
(lp4042
g57
(g78
g59
NtRp4043
(dp4044
g62
(dp4045
g82
g83
ssg71
g4039
sg64
(lp4046
S'wsgi.url_scheme'
p4047
asbag57
(g78
g59
NtRp4048
(dp4049
g62
(dp4050
g89
g90
ssg71
g4039
sg64
(lp4051
S':'
asbag57
(g78
g59
NtRp4052
(dp4053
g62
(dp4054
sg71
g4039
sg64
(lp4055
g57
(g58
g59
NtRp4056
(dp4057
g62
(dp4058
g70
I3
ssg71
g4052
sg64
(lp4059
g2716
asbasbasbag57
(g73
g59
NtRp4060
(dp4061
g62
(dp4062
sg71
g3465
sg64
(lp4063
g57
(g78
g59
NtRp4064
(dp4065
g62
(dp4066
g82
g83
ssg71
g4060
sg64
(lp4067
S'wsgi.version'
p4068
asbag57
(g78
g59
NtRp4069
(dp4070
g62
(dp4071
g89
g90
ssg71
g4060
sg64
(lp4072
S':'
asbag57
(g78
g59
NtRp4073
(dp4074
g62
(dp4075
sg71
g4060
sg64
(lp4076
g57
(g58
g59
NtRp4077
(dp4078
g62
(dp4079
g70
I3
ssg71
g4073
sg64
(lp4080
S'1'
asbasbasbasbasbasbasbasbasbasbasbasbasbsS'frames'
p4081
(lp4082
(dp4083
S'file'
p4084
S'/home/emp2web/ejecutar/web2py/gluon/restricted.py'
p4085
sS'dump'
p4086
(dp4087
S'environment'
p4088
S"{'A': <class 'gluon.html.A'>, 'Auth': <class 'gluon.tools.Auth'>, 'B': <class 'gluon.html.B'>, 'BEAUTIFY': <class 'gluon.html.BEAUTIFY'>, 'BODY': <class 'gluon.html.BODY'>, 'BR': <class 'gluon.html.BR'>, 'BUTTON': <class 'gluon.html.BUTTON'>, 'CAT': <class 'gluon.html.CAT'>, 'CENTER': <class 'gluon.html.CENTER'>, 'CLEANUP': <class 'gluon.validators.CLEANUP'>, ...}"
p4089
sS'ccode'
p4090
S'<code object <module> at 0x9850d58, file "/home/...to_webcast/views/default/principal.html", line 1>'
p4091
ssS'lnum'
p4092
I209
sS'lines'
p4093
(dp4094
I204
S'    try:'
p4095
sI205
S'        if type(code) == types.CodeType:'
p4096
sI206
S'            ccode = code'
p4097
sI207
S'        else:'
p4098
sI208
S'            ccode = compile2(code,layer)'
p4099
sI209
S'        exec ccode in environment'
p4100
sI210
S'    except HTTP:'
p4101
sI211
S'        raise'
p4102
sI212
S'    except RestrictedError:'
p4103
sI213
S'        # do not encapsulate (obfuscate) the original RestrictedError'
p4104
ssS'call'
p4105
S'(code=r"response.write(\'<!DOCTYPE html>\\r\\n<!-- pauliris...ript>  \\r\\n</body>\\r\\n</html>\\r\\n\', escape=False)", environment={\'A\': <class \'gluon.html.A\'>, \'Auth\': <class \'gluon.tools.Auth\'>, \'B\': <class \'gluon.html.B\'>, \'BEAUTIFY\': <class \'gluon.html.BEAUTIFY\'>, \'BODY\': <class \'gluon.html.BODY\'>, \'BR\': <class \'gluon.html.BR\'>, \'BUTTON\': <class \'gluon.html.BUTTON\'>, \'CAT\': <class \'gluon.html.CAT\'>, \'CENTER\': <class \'gluon.html.CENTER\'>, \'CLEANUP\': <class \'gluon.validators.CLEANUP\'>, ...}, layer=\'/home/emp2web/ejecutar/web2py/applications/proyecto_webcast/views/default/principal.html\')'
p4106
sS'func'
p4107
S'restricted'
p4108
sa(dp4109
g4084
S'/home/emp2web/ejecutar/web2py/applications/proyecto_webcast/views/default/principal.html'
p4110
sg4086
(dp4111
sg4092
I79
sg4093
(dp4112
I70
S'    response.write(\'\\r\\n\\t<div class="span3 left-sidebar">\\r\\n\\t  \', escape=False)'
p4113
sI71
S"    response.write('\\r\\n\\t  <h3>Left Sidebar</h3>\\r\\n\\t  <p></p>\\r\\n\\t  ', escape=False)"
p4114
sI72
S"    response.write('\\r\\n\\t</div>\\r\\n\\t', escape=False)"
p4115
sI73
S'    pass'
p4116
sI74
S'response.write(\'\\r\\n\\t\\r\\n\\t<div class="\', escape=False)'
p4117
sI75
S'response.write(middle_columns)'
p4118
sI76
S'response.write(\'">\\r\\n\\t  \', escape=False)'
p4119
sI77
S"response.write('\\r\\n\\t  ', escape=False)"
p4120
sI78
S'response.write("\\n<div id=\'form\'>\\n", escape=False)'
p4121
sI79
S'response.write(formulario)'
p4122
sI80
S"response.write('\\n</div>\\n', escape=False)"
p4123
sI81
S"response.write('\\r\\n\\t  ', escape=False)"
p4124
sI82
S"response.write('\\r\\n\\t</div>\\r\\n\\t\\r\\n\\t', escape=False)"
p4125
sI83
S'if right_sidebar_enabled:'
p4126
sI84
S'    response.write(\'\\r\\n\\t<div class="span3">\\r\\n\\t  \', escape=False)'
p4127
sI85
S"    response.write('\\r\\n\\t  <h3>Right Sidebar</h3>\\r\\n\\t  <p></p>\\r\\n\\t  ', escape=False)"
p4128
sI86
S"    response.write('\\r\\n\\t</div>    \\r\\n\\t', escape=False)"
p4129
sI87
S'    pass'
p4130
sI88
S'response.write(\'\\r\\n      </div><!--/row-->\\r\\n    </section><!--/main-->\\r\\n    \\r\\n    <!-- Footer ================================================== -->\\r\\n    <footer class="footer">\\r\\n      \', escape=False)'
p4131
sI89
S'response.write(\' <!-- this is default footer -->\\r\\n      <div class="footer-content">\\r\\n\\t<div class="copyright pull-left">\', escape=False)'
p4132
ssg4105
S'()'
p4133
sg4107
S'<module>'
p4134
sasS'pyver'
p4135
S'Python 2.7.3: /usr/bin/python2.7'
p4136
sS'session'
p4137
g57
(g58
g59
NtRp4138
(dp4139
g62
(dp4140
sg64
(lp4141
g57
(g66
g59
NtRp4142
(dp4143
g62
(dp4144
g70
I5
ssg71
Nsg64
(lp4145
g57
(g73
g59
NtRp4146
(dp4147
g62
(dp4148
sg71
g4142
sg64
(lp4149
g57
(g78
g59
NtRp4150
(dp4151
g62
(dp4152
g82
g83
ssg71
g4146
sg64
(lp4153
S'auth'
p4154
asbag57
(g78
g59
NtRp4155
(dp4156
g62
(dp4157
g89
g90
ssg71
g4146
sg64
(lp4158
S':'
asbag57
(g78
g59
NtRp4159
(dp4160
g62
(dp4161
sg71
g4146
sg64
(lp4162
g57
(g58
g59
NtRp4163
(dp4164
g62
(dp4165
g70
I5
ssg71
g4159
sg64
(lp4166
g57
(g66
g59
NtRp4167
(dp4168
g62
(dp4169
g70
I4
ssg71
Nsg64
(lp4170
g57
(g73
g59
NtRp4171
(dp4172
g62
(dp4173
sg71
g4167
sg64
(lp4174
g57
(g78
g59
NtRp4175
(dp4176
g62
(dp4177
g82
g83
ssg71
g4171
sg64
(lp4178
S'expiration'
p4179
asbag57
(g78
g59
NtRp4180
(dp4181
g62
(dp4182
g89
g90
ssg71
g4171
sg64
(lp4183
S':'
asbag57
(g78
g59
NtRp4184
(dp4185
g62
(dp4186
sg71
g4171
sg64
(lp4187
g57
(g58
g59
NtRp4188
(dp4189
g62
(dp4190
g70
I4
ssg71
g4184
sg64
(lp4191
S'3600'
p4192
asbasbasbag57
(g73
g59
NtRp4193
(dp4194
g62
(dp4195
sg71
g4167
sg64
(lp4196
g57
(g78
g59
NtRp4197
(dp4198
g62
(dp4199
g82
g83
ssg71
g4193
sg64
(lp4200
S'hmac_key'
p4201
asbag57
(g78
g59
NtRp4202
(dp4203
g62
(dp4204
g89
g90
ssg71
g4193
sg64
(lp4205
S':'
asbag57
(g78
g59
NtRp4206
(dp4207
g62
(dp4208
sg71
g4193
sg64
(lp4209
g57
(g58
g59
NtRp4210
(dp4211
g62
(dp4212
g70
I4
ssg71
g4206
sg64
(lp4213
S'c7b48381-07be-43b1-9ab7-ad6b1b721e9f'
p4214
asbasbasbag57
(g73
g59
NtRp4215
(dp4216
g62
(dp4217
sg71
g4167
sg64
(lp4218
g57
(g78
g59
NtRp4219
(dp4220
g62
(dp4221
g82
g83
ssg71
g4215
sg64
(lp4222
S'last_visit'
p4223
asbag57
(g78
g59
NtRp4224
(dp4225
g62
(dp4226
g89
g90
ssg71
g4215
sg64
(lp4227
S':'
asbag57
(g78
g59
NtRp4228
(dp4229
g62
(dp4230
sg71
g4215
sg64
(lp4231
g57
(g58
g59
NtRp4232
(dp4233
g62
(dp4234
g70
I4
ssg71
g4228
sg64
(lp4235
S'datetime.datetime(2012, 9, 13, 3, 16, 9, 793511)'
p4236
asbasbasbag57
(g73
g59
NtRp4237
(dp4238
g62
(dp4239
sg71
g4167
sg64
(lp4240
g57
(g78
g59
NtRp4241
(dp4242
g62
(dp4243
g82
g83
ssg71
g4237
sg64
(lp4244
S'remember'
p4245
asbag57
(g78
g59
NtRp4246
(dp4247
g62
(dp4248
g89
g90
ssg71
g4237
sg64
(lp4249
S':'
asbag57
(g78
g59
NtRp4250
(dp4251
g62
(dp4252
sg71
g4237
sg64
(lp4253
g57
(g58
g59
NtRp4254
(dp4255
g62
(dp4256
g70
I4
ssg71
g4250
sg64
(lp4257
g100
asbasbasbag57
(g73
g59
NtRp4258
(dp4259
g62
(dp4260
sg71
g4167
sg64
(lp4261
g57
(g78
g59
NtRp4262
(dp4263
g62
(dp4264
g82
g83
ssg71
g4258
sg64
(lp4265
S'user'
p4266
asbag57
(g78
g59
NtRp4267
(dp4268
g62
(dp4269
g89
g90
ssg71
g4258
sg64
(lp4270
S':'
asbag57
(g78
g59
NtRp4271
(dp4272
g62
(dp4273
sg71
g4258
sg64
(lp4274
g57
(g58
g59
NtRp4275
(dp4276
g62
(dp4277
g70
I4
ssg71
g4271
sg64
(lp4278
g57
(g66
g59
NtRp4279
(dp4280
g62
(dp4281
g70
I3
ssg71
Nsg64
(lp4282
g57
(g73
g59
NtRp4283
(dp4284
g62
(dp4285
sg71
g4279
sg64
(lp4286
g57
(g78
g59
NtRp4287
(dp4288
g62
(dp4289
g82
g83
ssg71
g4283
sg64
(lp4290
S'email'
p4291
asbag57
(g78
g59
NtRp4292
(dp4293
g62
(dp4294
g89
g90
ssg71
g4283
sg64
(lp4295
S':'
asbag57
(g78
g59
NtRp4296
(dp4297
g62
(dp4298
sg71
g4283
sg64
(lp4299
g57
(g58
g59
NtRp4300
(dp4301
g62
(dp4302
g70
I3
ssg71
g4296
sg64
(lp4303
S'admin@admin.com'
p4304
asbasbasbag57
(g73
g59
NtRp4305
(dp4306
g62
(dp4307
sg71
g4279
sg64
(lp4308
g57
(g78
g59
NtRp4309
(dp4310
g62
(dp4311
g82
g83
ssg71
g4305
sg64
(lp4312
S'first_name'
p4313
asbag57
(g78
g59
NtRp4314
(dp4315
g62
(dp4316
g89
g90
ssg71
g4305
sg64
(lp4317
S':'
asbag57
(g78
g59
NtRp4318
(dp4319
g62
(dp4320
sg71
g4305
sg64
(lp4321
g57
(g58
g59
NtRp4322
(dp4323
g62
(dp4324
g70
I3
ssg71
g4318
sg64
(lp4325
S'admin'
p4326
asbasbasbag57
(g73
g59
NtRp4327
(dp4328
g62
(dp4329
sg71
g4279
sg64
(lp4330
g57
(g78
g59
NtRp4331
(dp4332
g62
(dp4333
g82
g83
ssg71
g4327
sg64
(lp4334
S'id'
p4335
asbag57
(g78
g59
NtRp4336
(dp4337
g62
(dp4338
g89
g90
ssg71
g4327
sg64
(lp4339
S':'
asbag57
(g78
g59
NtRp4340
(dp4341
g62
(dp4342
sg71
g4327
sg64
(lp4343
g57
(g58
g59
NtRp4344
(dp4345
g62
(dp4346
g70
I3
ssg71
g4340
sg64
(lp4347
S'1'
asbasbasbag57
(g73
g59
NtRp4348
(dp4349
g62
(dp4350
sg71
g4279
sg64
(lp4351
g57
(g78
g59
NtRp4352
(dp4353
g62
(dp4354
g82
g83
ssg71
g4348
sg64
(lp4355
S'last_name'
p4356
asbag57
(g78
g59
NtRp4357
(dp4358
g62
(dp4359
g89
g90
ssg71
g4348
sg64
(lp4360
S':'
asbag57
(g78
g59
NtRp4361
(dp4362
g62
(dp4363
sg71
g4348
sg64
(lp4364
g57
(g58
g59
NtRp4365
(dp4366
g62
(dp4367
g70
I3
ssg71
g4361
sg64
(lp4368
S'admin'
p4369
asbasbasbag57
(g73
g59
NtRp4370
(dp4371
g62
(dp4372
sg71
g4279
sg64
(lp4373
g57
(g78
g59
NtRp4374
(dp4375
g62
(dp4376
g82
g83
ssg71
g4370
sg64
(lp4377
S'password'
p4378
asbag57
(g78
g59
NtRp4379
(dp4380
g62
(dp4381
g89
g90
ssg71
g4370
sg64
(lp4382
S':'
asbag57
(g78
g59
NtRp4383
(dp4384
g62
(dp4385
sg71
g4370
sg64
(lp4386
g57
(g58
g59
NtRp4387
(dp4388
g62
(dp4389
g70
I3
ssg71
g4383
sg64
(lp4390
S'pbkdf2(1000,20,sha512)$95a5aa734dea8806$5f5d0f6e189f5049fb01daf061404b5257968886'
p4391
asbasbasbag57
(g73
g59
NtRp4392
(dp4393
g62
(dp4394
sg71
g4279
sg64
(lp4395
g57
(g78
g59
NtRp4396
(dp4397
g62
(dp4398
g82
g83
ssg71
g4392
sg64
(lp4399
S'registration_id'
p4400
asbag57
(g78
g59
NtRp4401
(dp4402
g62
(dp4403
g89
g90
ssg71
g4392
sg64
(lp4404
S':'
asbag57
(g78
g59
NtRp4405
(dp4406
g62
(dp4407
sg71
g4392
sg64
(lp4408
g57
(g58
g59
NtRp4409
(dp4410
g62
(dp4411
g70
I3
ssg71
g4405
sg64
(lp4412
S''
asbasbasbag57
(g73
g59
NtRp4413
(dp4414
g62
(dp4415
sg71
g4279
sg64
(lp4416
g57
(g78
g59
NtRp4417
(dp4418
g62
(dp4419
g82
g83
ssg71
g4413
sg64
(lp4420
S'registration_key'
p4421
asbag57
(g78
g59
NtRp4422
(dp4423
g62
(dp4424
g89
g90
ssg71
g4413
sg64
(lp4425
S':'
asbag57
(g78
g59
NtRp4426
(dp4427
g62
(dp4428
sg71
g4413
sg64
(lp4429
g57
(g58
g59
NtRp4430
(dp4431
g62
(dp4432
g70
I3
ssg71
g4426
sg64
(lp4433
S''
asbasbasbag57
(g73
g59
NtRp4434
(dp4435
g62
(dp4436
sg71
g4279
sg64
(lp4437
g57
(g78
g59
NtRp4438
(dp4439
g62
(dp4440
g82
g83
ssg71
g4434
sg64
(lp4441
S'reset_password_key'
p4442
asbag57
(g78
g59
NtRp4443
(dp4444
g62
(dp4445
g89
g90
ssg71
g4434
sg64
(lp4446
S':'
asbag57
(g78
g59
NtRp4447
(dp4448
g62
(dp4449
sg71
g4434
sg64
(lp4450
g57
(g58
g59
NtRp4451
(dp4452
g62
(dp4453
g70
I3
ssg71
g4447
sg64
(lp4454
S''
asbasbasbag57
(g73
g59
NtRp4455
(dp4456
g62
(dp4457
sg71
g4279
sg64
(lp4458
g57
(g78
g59
NtRp4459
(dp4460
g62
(dp4461
g82
g83
ssg71
g4455
sg64
(lp4462
S'username'
p4463
asbag57
(g78
g59
NtRp4464
(dp4465
g62
(dp4466
g89
g90
ssg71
g4455
sg64
(lp4467
S':'
asbag57
(g78
g59
NtRp4468
(dp4469
g62
(dp4470
sg71
g4455
sg64
(lp4471
g57
(g58
g59
NtRp4472
(dp4473
g62
(dp4474
g70
I3
ssg71
g4468
sg64
(lp4475
S'admin'
p4476
asbasbasbasbasbasbasbag57
(g73
g59
NtRp4477
(dp4478
g62
(dp4479
sg71
g4167
sg64
(lp4480
g57
(g78
g59
NtRp4481
(dp4482
g62
(dp4483
g82
g83
ssg71
g4477
sg64
(lp4484
S'user_groups'
p4485
asbag57
(g78
g59
NtRp4486
(dp4487
g62
(dp4488
g89
g90
ssg71
g4477
sg64
(lp4489
S':'
asbag57
(g78
g59
NtRp4490
(dp4491
g62
(dp4492
sg71
g4477
sg64
(lp4493
g57
(g58
g59
NtRp4494
(dp4495
g62
(dp4496
g70
I4
ssg71
g4490
sg64
(lp4497
g57
(g66
g59
NtRp4498
(dp4499
g62
(dp4500
g70
I3
ssg71
Nsg64
(lp4501
g57
(g73
g59
NtRp4502
(dp4503
g62
(dp4504
sg71
g4498
sg64
(lp4505
g57
(g78
g59
NtRp4506
(dp4507
g62
(dp4508
g82
g83
ssg71
g4502
sg64
(lp4509
S'1'
asbag57
(g78
g59
NtRp4510
(dp4511
g62
(dp4512
g89
g90
ssg71
g4502
sg64
(lp4513
S':'
asbag57
(g78
g59
NtRp4514
(dp4515
g62
(dp4516
sg71
g4502
sg64
(lp4517
g57
(g58
g59
NtRp4518
(dp4519
g62
(dp4520
g70
I3
ssg71
g4514
sg64
(lp4521
S'user_1'
p4522
asbasbasbasbasbasbasbasbasbasbasbag57
(g73
g59
NtRp4523
(dp4524
g62
(dp4525
sg71
g4142
sg64
(lp4526
g57
(g78
g59
NtRp4527
(dp4528
g62
(dp4529
g82
g83
ssg71
g4523
sg64
(lp4530
S'flash'
p4531
asbag57
(g78
g59
NtRp4532
(dp4533
g62
(dp4534
g89
g90
ssg71
g4523
sg64
(lp4535
S':'
asbag57
(g78
g59
NtRp4536
(dp4537
g62
(dp4538
sg71
g4523
sg64
(lp4539
g57
(g58
g59
NtRp4540
(dp4541
g62
(dp4542
g70
I5
ssg71
g4536
sg64
(lp4543
S'None'
p4544
asbasbasbasbasbsS'etype'
p4545
S"<type 'exceptions.NameError'>"
p4546
sS'date'
p4547
S'Thu Sep 13 03:19:06 2012'
p4548
sS'response'
p4549
g57
(g58
g59
NtRp4550
(dp4551
g62
(dp4552
sg64
(lp4553
g57
(g66
g59
NtRp4554
(dp4555
g62
(dp4556
g70
I5
ssg71
Nsg64
(lp4557
g57
(g73
g59
NtRp4558
(dp4559
g62
(dp4560
sg71
g4554
sg64
(lp4561
g57
(g78
g59
NtRp4562
(dp4563
g62
(dp4564
g82
g83
ssg71
g4558
sg64
(lp4565
g155
asbag57
(g78
g59
NtRp4566
(dp4567
g62
(dp4568
g89
g90
ssg71
g4558
sg64
(lp4569
S':'
asbag57
(g78
g59
NtRp4570
(dp4571
g62
(dp4572
sg71
g4558
sg64
(lp4573
g57
(g58
g59
NtRp4574
(dp4575
g62
(dp4576
g70
I5
ssg71
g4570
sg64
(lp4577
S'<cStringIO.StringO object at 0xae2ca3c0>'
p4578
asbasbasbag57
(g73
g59
NtRp4579
(dp4580
g62
(dp4581
sg71
g4554
sg64
(lp4582
g57
(g78
g59
NtRp4583
(dp4584
g62
(dp4585
g82
g83
ssg71
g4579
sg64
(lp4586
g243
asbag57
(g78
g59
NtRp4587
(dp4588
g62
(dp4589
g89
g90
ssg71
g4579
sg64
(lp4590
S':'
asbag57
(g78
g59
NtRp4591
(dp4592
g62
(dp4593
sg71
g4579
sg64
(lp4594
g57
(g58
g59
NtRp4595
(dp4596
g62
(dp4597
g70
I5
ssg71
g4591
sg64
(lp4598
g57
(g66
g59
NtRp4599
(dp4600
g62
(dp4601
g70
I4
ssg71
Nsg64
(lp4602
g57
(g73
g59
NtRp4603
(dp4604
g62
(dp4605
sg71
g4599
sg64
(lp4606
g57
(g78
g59
NtRp4607
(dp4608
g62
(dp4609
g82
g83
ssg71
g4603
sg64
(lp4610
S'session_id_proyecto_webcast'
p4611
asbag57
(g78
g59
NtRp4612
(dp4613
g62
(dp4614
g89
g90
ssg71
g4603
sg64
(lp4615
S':'
asbag57
(g78
g59
NtRp4616
(dp4617
g62
(dp4618
sg71
g4603
sg64
(lp4619
g57
(g58
g59
NtRp4620
(dp4621
g62
(dp4622
g70
I4
ssg71
g4616
sg64
(lp4623
g846
ag57
(g66
g59
NtRp4624
(dp4625
g62
(dp4626
g70
I3
ssg71
Nsg64
(lp4627
g57
(g73
g59
NtRp4628
(dp4629
g62
(dp4630
sg71
g4624
sg64
(lp4631
g57
(g78
g59
NtRp4632
(dp4633
g62
(dp4634
g82
g83
ssg71
g4628
sg64
(lp4635
g293
asbag57
(g78
g59
NtRp4636
(dp4637
g62
(dp4638
g89
g90
ssg71
g4628
sg64
(lp4639
S':'
asbag57
(g78
g59
NtRp4640
(dp4641
g62
(dp4642
sg71
g4628
sg64
(lp4643
g57
(g58
g59
NtRp4644
(dp4645
g62
(dp4646
g70
I3
ssg71
g4640
sg64
(lp4647
S''
asbasbasbag57
(g73
g59
NtRp4648
(dp4649
g62
(dp4650
sg71
g4624
sg64
(lp4651
g57
(g78
g59
NtRp4652
(dp4653
g62
(dp4654
g82
g83
ssg71
g4648
sg64
(lp4655
g314
asbag57
(g78
g59
NtRp4656
(dp4657
g62
(dp4658
g89
g90
ssg71
g4648
sg64
(lp4659
S':'
asbag57
(g78
g59
NtRp4660
(dp4661
g62
(dp4662
sg71
g4648
sg64
(lp4663
g57
(g58
g59
NtRp4664
(dp4665
g62
(dp4666
g70
I3
ssg71
g4660
sg64
(lp4667
S''
asbasbasbag57
(g73
g59
NtRp4668
(dp4669
g62
(dp4670
sg71
g4624
sg64
(lp4671
g57
(g78
g59
NtRp4672
(dp4673
g62
(dp4674
g82
g83
ssg71
g4668
sg64
(lp4675
g335
asbag57
(g78
g59
NtRp4676
(dp4677
g62
(dp4678
g89
g90
ssg71
g4668
sg64
(lp4679
S':'
asbag57
(g78
g59
NtRp4680
(dp4681
g62
(dp4682
sg71
g4668
sg64
(lp4683
g57
(g58
g59
NtRp4684
(dp4685
g62
(dp4686
g70
I3
ssg71
g4680
sg64
(lp4687
S''
asbasbasbag57
(g73
g59
NtRp4688
(dp4689
g62
(dp4690
sg71
g4624
sg64
(lp4691
g57
(g78
g59
NtRp4692
(dp4693
g62
(dp4694
g82
g83
ssg71
g4688
sg64
(lp4695
g356
asbag57
(g78
g59
NtRp4696
(dp4697
g62
(dp4698
g89
g90
ssg71
g4688
sg64
(lp4699
S':'
asbag57
(g78
g59
NtRp4700
(dp4701
g62
(dp4702
sg71
g4688
sg64
(lp4703
g57
(g58
g59
NtRp4704
(dp4705
g62
(dp4706
g70
I3
ssg71
g4700
sg64
(lp4707
S''
asbasbasbag57
(g73
g59
NtRp4708
(dp4709
g62
(dp4710
sg71
g4624
sg64
(lp4711
g57
(g78
g59
NtRp4712
(dp4713
g62
(dp4714
g82
g83
ssg71
g4708
sg64
(lp4715
g377
asbag57
(g78
g59
NtRp4716
(dp4717
g62
(dp4718
g89
g90
ssg71
g4708
sg64
(lp4719
S':'
asbag57
(g78
g59
NtRp4720
(dp4721
g62
(dp4722
sg71
g4708
sg64
(lp4723
g57
(g58
g59
NtRp4724
(dp4725
g62
(dp4726
g70
I3
ssg71
g4720
sg64
(lp4727
S''
asbasbasbag57
(g73
g59
NtRp4728
(dp4729
g62
(dp4730
sg71
g4624
sg64
(lp4731
g57
(g78
g59
NtRp4732
(dp4733
g62
(dp4734
g82
g83
ssg71
g4728
sg64
(lp4735
g398
asbag57
(g78
g59
NtRp4736
(dp4737
g62
(dp4738
g89
g90
ssg71
g4728
sg64
(lp4739
S':'
asbag57
(g78
g59
NtRp4740
(dp4741
g62
(dp4742
sg71
g4728
sg64
(lp4743
g57
(g58
g59
NtRp4744
(dp4745
g62
(dp4746
g70
I3
ssg71
g4740
sg64
(lp4747
S'/'
asbasbasbag57
(g73
g59
NtRp4748
(dp4749
g62
(dp4750
sg71
g4624
sg64
(lp4751
g57
(g78
g59
NtRp4752
(dp4753
g62
(dp4754
g82
g83
ssg71
g4748
sg64
(lp4755
g419
asbag57
(g78
g59
NtRp4756
(dp4757
g62
(dp4758
g89
g90
ssg71
g4748
sg64
(lp4759
S':'
asbag57
(g78
g59
NtRp4760
(dp4761
g62
(dp4762
sg71
g4748
sg64
(lp4763
g57
(g58
g59
NtRp4764
(dp4765
g62
(dp4766
g70
I3
ssg71
g4760
sg64
(lp4767
S''
asbasbasbag57
(g73
g59
NtRp4768
(dp4769
g62
(dp4770
sg71
g4624
sg64
(lp4771
g57
(g78
g59
NtRp4772
(dp4773
g62
(dp4774
g82
g83
ssg71
g4768
sg64
(lp4775
g440
asbag57
(g78
g59
NtRp4776
(dp4777
g62
(dp4778
g89
g90
ssg71
g4768
sg64
(lp4779
S':'
asbag57
(g78
g59
NtRp4780
(dp4781
g62
(dp4782
sg71
g4768
sg64
(lp4783
g57
(g58
g59
NtRp4784
(dp4785
g62
(dp4786
g70
I3
ssg71
g4780
sg64
(lp4787
S''
asbasbasbasbasbasbasbasbasbasbasbag57
(g73
g59
NtRp4788
(dp4789
g62
(dp4790
sg71
g4554
sg64
(lp4791
g57
(g78
g59
NtRp4792
(dp4793
g62
(dp4794
g82
g83
ssg71
g4788
sg64
(lp4795
S'delimiters'
p4796
asbag57
(g78
g59
NtRp4797
(dp4798
g62
(dp4799
g89
g90
ssg71
g4788
sg64
(lp4800
S':'
asbag57
(g78
g59
NtRp4801
(dp4802
g62
(dp4803
sg71
g4788
sg64
(lp4804
g57
(g58
g59
NtRp4805
(dp4806
g62
(dp4807
g70
I5
ssg71
g4801
sg64
(lp4808
g57
(g66
g59
NtRp4809
(dp4810
g62
(dp4811
g70
I4
ssg71
Nsg64
(lp4812
g57
(g73
g59
NtRp4813
(dp4814
g62
(dp4815
sg71
g4809
sg64
(lp4816
g57
(g78
g59
NtRp4817
(dp4818
g62
(dp4819
sg71
g4813
sg64
(lp4820
g57
(g58
g59
NtRp4821
(dp4822
g62
(dp4823
g70
I4
ssg71
g4817
sg64
(lp4824
S'{{'
p4825
asbasbasbag57
(g73
g59
NtRp4826
(dp4827
g62
(dp4828
sg71
g4809
sg64
(lp4829
g57
(g78
g59
NtRp4830
(dp4831
g62
(dp4832
sg71
g4826
sg64
(lp4833
g57
(g58
g59
NtRp4834
(dp4835
g62
(dp4836
g70
I4
ssg71
g4830
sg64
(lp4837
S'}}'
p4838
asbasbasbasbasbasbasbag57
(g73
g59
NtRp4839
(dp4840
g62
(dp4841
sg71
g4554
sg64
(lp4842
g57
(g78
g59
NtRp4843
(dp4844
g62
(dp4845
g82
g83
ssg71
g4839
sg64
(lp4846
S'files'
p4847
asbag57
(g78
g59
NtRp4848
(dp4849
g62
(dp4850
g89
g90
ssg71
g4839
sg64
(lp4851
S':'
asbag57
(g78
g59
NtRp4852
(dp4853
g62
(dp4854
sg71
g4839
sg64
(lp4855
g57
(g58
g59
NtRp4856
(dp4857
g62
(dp4858
g70
I5
ssg71
g4852
sg64
(lp4859
g57
(g66
g59
NtRp4860
(dp4861
g62
(dp4862
g70
I4
ssg71
Nsg64
(lp4863
g57
(g73
g59
NtRp4864
(dp4865
g62
(dp4866
sg71
g4860
sg64
(lp4867
g57
(g78
g59
NtRp4868
(dp4869
g62
(dp4870
sg71
g4864
sg64
(lp4871
g57
(g58
g59
NtRp4872
(dp4873
g62
(dp4874
g70
I4
ssg71
g4868
sg64
(lp4875
S'/proyecto_webcast/static/js/jquery.js'
p4876
asbasbasbag57
(g73
g59
NtRp4877
(dp4878
g62
(dp4879
sg71
g4860
sg64
(lp4880
g57
(g78
g59
NtRp4881
(dp4882
g62
(dp4883
sg71
g4877
sg64
(lp4884
g57
(g58
g59
NtRp4885
(dp4886
g62
(dp4887
g70
I4
ssg71
g4881
sg64
(lp4888
S'/proyecto_webcast/static/css/calendar.css'
p4889
asbasbasbag57
(g73
g59
NtRp4890
(dp4891
g62
(dp4892
sg71
g4860
sg64
(lp4893
g57
(g78
g59
NtRp4894
(dp4895
g62
(dp4896
sg71
g4890
sg64
(lp4897
g57
(g58
g59
NtRp4898
(dp4899
g62
(dp4900
g70
I4
ssg71
g4894
sg64
(lp4901
S'/proyecto_webcast/static/js/calendar.js'
p4902
asbasbasbag57
(g73
g59
NtRp4903
(dp4904
g62
(dp4905
sg71
g4860
sg64
(lp4906
g57
(g78
g59
NtRp4907
(dp4908
g62
(dp4909
sg71
g4903
sg64
(lp4910
g57
(g58
g59
NtRp4911
(dp4912
g62
(dp4913
g70
I4
ssg71
g4907
sg64
(lp4914
S'/proyecto_webcast/static/js/web2py.js'
p4915
asbasbasbag57
(g73
g59
NtRp4916
(dp4917
g62
(dp4918
sg71
g4860
sg64
(lp4919
g57
(g78
g59
NtRp4920
(dp4921
g62
(dp4922
sg71
g4916
sg64
(lp4923
g57
(g58
g59
NtRp4924
(dp4925
g62
(dp4926
g70
I4
ssg71
g4920
sg64
(lp4927
S'/proyecto_webcast/static/css/bootstrap.min.css'
p4928
asbasbasbag57
(g73
g59
NtRp4929
(dp4930
g62
(dp4931
sg71
g4860
sg64
(lp4932
g57
(g78
g59
NtRp4933
(dp4934
g62
(dp4935
sg71
g4929
sg64
(lp4936
g57
(g58
g59
NtRp4937
(dp4938
g62
(dp4939
g70
I4
ssg71
g4933
sg64
(lp4940
S'/proyecto_webcast/static/css/bootstrap-responsive.min.css'
p4941
asbasbasbag57
(g73
g59
NtRp4942
(dp4943
g62
(dp4944
sg71
g4860
sg64
(lp4945
g57
(g78
g59
NtRp4946
(dp4947
g62
(dp4948
sg71
g4942
sg64
(lp4949
g57
(g58
g59
NtRp4950
(dp4951
g62
(dp4952
g70
I4
ssg71
g4946
sg64
(lp4953
S'/proyecto_webcast/static/css/web2py.css'
p4954
asbasbasbag57
(g73
g59
NtRp4955
(dp4956
g62
(dp4957
sg71
g4860
sg64
(lp4958
g57
(g78
g59
NtRp4959
(dp4960
g62
(dp4961
sg71
g4955
sg64
(lp4962
g57
(g58
g59
NtRp4963
(dp4964
g62
(dp4965
g70
I4
ssg71
g4959
sg64
(lp4966
S'/proyecto_webcast/static/css/web2py_bootstrap.css'
p4967
asbasbasbasbasbasbasbag57
(g73
g59
NtRp4968
(dp4969
g62
(dp4970
sg71
g4554
sg64
(lp4971
g57
(g78
g59
NtRp4972
(dp4973
g62
(dp4974
g82
g83
ssg71
g4968
sg64
(lp4975
S'flash'
p4976
asbag57
(g78
g59
NtRp4977
(dp4978
g62
(dp4979
g89
g90
ssg71
g4968
sg64
(lp4980
S':'
asbag57
(g78
g59
NtRp4981
(dp4982
g62
(dp4983
sg71
g4968
sg64
(lp4984
g57
(g58
g59
NtRp4985
(dp4986
g62
(dp4987
g70
I5
ssg71
g4981
sg64
(lp4988
cgluon.languages
lazyT_unpickle
p4989
(S't\x0b\x00\x00\x00Bienvenidos'
tRp4990
asbasbasbag57
(g73
g59
NtRp4991
(dp4992
g62
(dp4993
sg71
g4554
sg64
(lp4994
g57
(g78
g59
NtRp4995
(dp4996
g62
(dp4997
g82
g83
ssg71
g4991
sg64
(lp4998
S'generic_patterns'
p4999
asbag57
(g78
g59
NtRp5000
(dp5001
g62
(dp5002
g89
g90
ssg71
g4991
sg64
(lp5003
S':'
asbag57
(g78
g59
NtRp5004
(dp5005
g62
(dp5006
sg71
g4991
sg64
(lp5007
g57
(g58
g59
NtRp5008
(dp5009
g62
(dp5010
g70
I5
ssg71
g5004
sg64
(lp5011
g57
(g66
g59
NtRp5012
(dp5013
g62
(dp5014
g70
I4
ssg71
Nsg64
(lp5015
g57
(g73
g59
NtRp5016
(dp5017
g62
(dp5018
sg71
g5012
sg64
(lp5019
g57
(g78
g59
NtRp5020
(dp5021
g62
(dp5022
sg71
g5016
sg64
(lp5023
g57
(g58
g59
NtRp5024
(dp5025
g62
(dp5026
g70
I4
ssg71
g5020
sg64
(lp5027
S'*'
asbasbasbasbasbasbasbag57
(g73
g59
NtRp5028
(dp5029
g62
(dp5030
sg71
g4554
sg64
(lp5031
g57
(g78
g59
NtRp5032
(dp5033
g62
(dp5034
g82
g83
ssg71
g5028
sg64
(lp5035
S'google_analytics_id'
p5036
asbag57
(g78
g59
NtRp5037
(dp5038
g62
(dp5039
g89
g90
ssg71
g5028
sg64
(lp5040
S':'
asbag57
(g78
g59
NtRp5041
(dp5042
g62
(dp5043
sg71
g5028
sg64
(lp5044
g57
(g58
g59
NtRp5045
(dp5046
g62
(dp5047
g70
I5
ssg71
g5041
sg64
(lp5048
S'None'
p5049
asbasbasbag57
(g73
g59
NtRp5050
(dp5051
g62
(dp5052
sg71
g4554
sg64
(lp5053
g57
(g78
g59
NtRp5054
(dp5055
g62
(dp5056
g82
g83
ssg71
g5050
sg64
(lp5057
S'headers'
p5058
asbag57
(g78
g59
NtRp5059
(dp5060
g62
(dp5061
g89
g90
ssg71
g5050
sg64
(lp5062
S':'
asbag57
(g78
g59
NtRp5063
(dp5064
g62
(dp5065
sg71
g5050
sg64
(lp5066
g57
(g58
g59
NtRp5067
(dp5068
g62
(dp5069
g70
I5
ssg71
g5063
sg64
(lp5070
g57
(g66
g59
NtRp5071
(dp5072
g62
(dp5073
g70
I4
ssg71
Nsg64
(lp5074
g57
(g73
g59
NtRp5075
(dp5076
g62
(dp5077
sg71
g5071
sg64
(lp5078
g57
(g78
g59
NtRp5079
(dp5080
g62
(dp5081
g82
g83
ssg71
g5075
sg64
(lp5082
S'Cache-Control'
p5083
asbag57
(g78
g59
NtRp5084
(dp5085
g62
(dp5086
g89
g90
ssg71
g5075
sg64
(lp5087
S':'
asbag57
(g78
g59
NtRp5088
(dp5089
g62
(dp5090
sg71
g5075
sg64
(lp5091
g57
(g58
g59
NtRp5092
(dp5093
g62
(dp5094
g70
I4
ssg71
g5088
sg64
(lp5095
S'no-store, no-cache, must-revalidate, post-check=0, pre-check=0'
p5096
asbasbasbag57
(g73
g59
NtRp5097
(dp5098
g62
(dp5099
sg71
g5071
sg64
(lp5100
g57
(g78
g59
NtRp5101
(dp5102
g62
(dp5103
g82
g83
ssg71
g5097
sg64
(lp5104
S'Content-Type'
p5105
asbag57
(g78
g59
NtRp5106
(dp5107
g62
(dp5108
g89
g90
ssg71
g5097
sg64
(lp5109
S':'
asbag57
(g78
g59
NtRp5110
(dp5111
g62
(dp5112
sg71
g5097
sg64
(lp5113
g57
(g58
g59
NtRp5114
(dp5115
g62
(dp5116
g70
I4
ssg71
g5110
sg64
(lp5117
S'text/html; charset=utf-8'
p5118
asbasbasbag57
(g73
g59
NtRp5119
(dp5120
g62
(dp5121
sg71
g5071
sg64
(lp5122
g57
(g78
g59
NtRp5123
(dp5124
g62
(dp5125
g82
g83
ssg71
g5119
sg64
(lp5126
S'Expires'
p5127
asbag57
(g78
g59
NtRp5128
(dp5129
g62
(dp5130
g89
g90
ssg71
g5119
sg64
(lp5131
S':'
asbag57
(g78
g59
NtRp5132
(dp5133
g62
(dp5134
sg71
g5119
sg64
(lp5135
g57
(g58
g59
NtRp5136
(dp5137
g62
(dp5138
g70
I4
ssg71
g5132
sg64
(lp5139
S'Thu, 13 Sep 2012 08:19:06 GMT'
p5140
asbasbasbag57
(g73
g59
NtRp5141
(dp5142
g62
(dp5143
sg71
g5071
sg64
(lp5144
g57
(g78
g59
NtRp5145
(dp5146
g62
(dp5147
g82
g83
ssg71
g5141
sg64
(lp5148
S'Pragma'
p5149
asbag57
(g78
g59
NtRp5150
(dp5151
g62
(dp5152
g89
g90
ssg71
g5141
sg64
(lp5153
S':'
asbag57
(g78
g59
NtRp5154
(dp5155
g62
(dp5156
sg71
g5141
sg64
(lp5157
g57
(g58
g59
NtRp5158
(dp5159
g62
(dp5160
g70
I4
ssg71
g5154
sg64
(lp5161
S'no-cache'
p5162
asbasbasbag57
(g73
g59
NtRp5163
(dp5164
g62
(dp5165
sg71
g5071
sg64
(lp5166
g57
(g78
g59
NtRp5167
(dp5168
g62
(dp5169
g82
g83
ssg71
g5163
sg64
(lp5170
S'X-Powered-By'
p5171
asbag57
(g78
g59
NtRp5172
(dp5173
g62
(dp5174
g89
g90
ssg71
g5163
sg64
(lp5175
S':'
asbag57
(g78
g59
NtRp5176
(dp5177
g62
(dp5178
sg71
g5163
sg64
(lp5179
g57
(g58
g59
NtRp5180
(dp5181
g62
(dp5182
g70
I4
ssg71
g5176
sg64
(lp5183
S'web2py'
p5184
asbasbasbasbasbasbasbag57
(g73
g59
NtRp5185
(dp5186
g62
(dp5187
sg71
g4554
sg64
(lp5188
g57
(g78
g59
NtRp5189
(dp5190
g62
(dp5191
g82
g83
ssg71
g5185
sg64
(lp5192
S'menu'
p5193
asbag57
(g78
g59
NtRp5194
(dp5195
g62
(dp5196
g89
g90
ssg71
g5185
sg64
(lp5197
S':'
asbag57
(g78
g59
NtRp5198
(dp5199
g62
(dp5200
sg71
g5185
sg64
(lp5201
g57
(g58
g59
NtRp5202
(dp5203
g62
(dp5204
g70
I5
ssg71
g5198
sg64
(lp5205
g57
(g66
g59
NtRp5206
(dp5207
g62
(dp5208
g70
I4
ssg71
Nsg64
(lp5209
g57
(g73
g59
NtRp5210
(dp5211
g62
(dp5212
sg71
g5206
sg64
(lp5213
g57
(g78
g59
NtRp5214
(dp5215
g62
(dp5216
sg71
g5210
sg64
(lp5217
g57
(g58
g59
NtRp5218
(dp5219
g62
(dp5220
g70
I4
ssg71
g5214
sg64
(lp5221
g57
(g66
g59
NtRp5222
(dp5223
g62
(dp5224
g70
I3
ssg71
Nsg64
(lp5225
g57
(g73
g59
NtRp5226
(dp5227
g62
(dp5228
sg71
g5222
sg64
(lp5229
g57
(g78
g59
NtRp5230
(dp5231
g62
(dp5232
sg71
g5226
sg64
(lp5233
g57
(g58
g59
NtRp5234
(dp5235
g62
(dp5236
g70
I3
ssg71
g5230
sg64
(lp5237
g4989
(S's\x04\x00\x00\x00Home'
tRp5238
asbasbasbag57
(g73
g59
NtRp5239
(dp5240
g62
(dp5241
sg71
g5222
sg64
(lp5242
g57
(g78
g59
NtRp5243
(dp5244
g62
(dp5245
sg71
g5239
sg64
(lp5246
g57
(g58
g59
NtRp5247
(dp5248
g62
(dp5249
g70
I3
ssg71
g5243
sg64
(lp5250
g100
asbasbasbag57
(g73
g59
NtRp5251
(dp5252
g62
(dp5253
sg71
g5222
sg64
(lp5254
g57
(g78
g59
NtRp5255
(dp5256
g62
(dp5257
sg71
g5251
sg64
(lp5258
g57
(g58
g59
NtRp5259
(dp5260
g62
(dp5261
g70
I3
ssg71
g5255
sg64
(lp5262
S'/proyecto_webcast/default/index'
p5263
asbasbasbag57
(g73
g59
NtRp5264
(dp5265
g62
(dp5266
sg71
g5222
sg64
(lp5267
g57
(g78
g59
NtRp5268
(dp5269
g62
(dp5270
sg71
g5264
sg64
(lp5271
g57
(g58
g59
NtRp5272
(dp5273
g62
(dp5274
g70
I3
ssg71
g5268
sg64
(lp5275
g57
(g66
g59
NtRp5276
(dp5277
g62
(dp5278
g70
I2
ssg71
Nsg64
(lp5279
sbasbasbasbasbasbasbasbag57
(g73
g59
NtRp5280
(dp5281
g62
(dp5282
sg71
g5206
sg64
(lp5283
g57
(g78
g59
NtRp5284
(dp5285
g62
(dp5286
sg71
g5280
sg64
(lp5287
g57
(g58
g59
NtRp5288
(dp5289
g62
(dp5290
g70
I4
ssg71
g5284
sg64
(lp5291
g57
(g66
g59
NtRp5292
(dp5293
g62
(dp5294
g70
I3
ssg71
Nsg64
(lp5295
g57
(g73
g59
NtRp5296
(dp5297
g62
(dp5298
sg71
g5292
sg64
(lp5299
g57
(g78
g59
NtRp5300
(dp5301
g62
(dp5302
sg71
g5296
sg64
(lp5303
g57
(g58
g59
NtRp5304
(dp5305
g62
(dp5306
g70
I3
ssg71
g5300
sg64
(lp5307
g4989
(S's\x06\x00\x00\x00Grupos'
tRp5308
asbasbasbag57
(g73
g59
NtRp5309
(dp5310
g62
(dp5311
sg71
g5292
sg64
(lp5312
g57
(g78
g59
NtRp5313
(dp5314
g62
(dp5315
sg71
g5309
sg64
(lp5316
g57
(g58
g59
NtRp5317
(dp5318
g62
(dp5319
g70
I3
ssg71
g5313
sg64
(lp5320
g100
asbasbasbag57
(g73
g59
NtRp5321
(dp5322
g62
(dp5323
sg71
g5292
sg64
(lp5324
g57
(g78
g59
NtRp5325
(dp5326
g62
(dp5327
sg71
g5321
sg64
(lp5328
g57
(g58
g59
NtRp5329
(dp5330
g62
(dp5331
g70
I3
ssg71
g5325
sg64
(lp5332
S'/proyecto_webcast/configuracion/grupos'
p5333
asbasbasbag57
(g73
g59
NtRp5334
(dp5335
g62
(dp5336
sg71
g5292
sg64
(lp5337
g57
(g78
g59
NtRp5338
(dp5339
g62
(dp5340
sg71
g5334
sg64
(lp5341
g57
(g58
g59
NtRp5342
(dp5343
g62
(dp5344
g70
I3
ssg71
g5338
sg64
(lp5345
g57
(g66
g59
NtRp5346
(dp5347
g62
(dp5348
g70
I2
ssg71
Nsg64
(lp5349
sbasbasbasbasbasbasbasbag57
(g73
g59
NtRp5350
(dp5351
g62
(dp5352
sg71
g5206
sg64
(lp5353
g57
(g78
g59
NtRp5354
(dp5355
g62
(dp5356
sg71
g5350
sg64
(lp5357
g57
(g58
g59
NtRp5358
(dp5359
g62
(dp5360
g70
I4
ssg71
g5354
sg64
(lp5361
g57
(g66
g59
NtRp5362
(dp5363
g62
(dp5364
g70
I3
ssg71
Nsg64
(lp5365
g57
(g73
g59
NtRp5366
(dp5367
g62
(dp5368
sg71
g5362
sg64
(lp5369
g57
(g78
g59
NtRp5370
(dp5371
g62
(dp5372
sg71
g5366
sg64
(lp5373
g57
(g58
g59
NtRp5374
(dp5375
g62
(dp5376
g70
I3
ssg71
g5370
sg64
(lp5377
g4989
(S's\x07\x00\x00\x00Estados'
tRp5378
asbasbasbag57
(g73
g59
NtRp5379
(dp5380
g62
(dp5381
sg71
g5362
sg64
(lp5382
g57
(g78
g59
NtRp5383
(dp5384
g62
(dp5385
sg71
g5379
sg64
(lp5386
g57
(g58
g59
NtRp5387
(dp5388
g62
(dp5389
g70
I3
ssg71
g5383
sg64
(lp5390
g100
asbasbasbag57
(g73
g59
NtRp5391
(dp5392
g62
(dp5393
sg71
g5362
sg64
(lp5394
g57
(g78
g59
NtRp5395
(dp5396
g62
(dp5397
sg71
g5391
sg64
(lp5398
g57
(g58
g59
NtRp5399
(dp5400
g62
(dp5401
g70
I3
ssg71
g5395
sg64
(lp5402
S'/proyecto_webcast/configuracion/estados'
p5403
asbasbasbag57
(g73
g59
NtRp5404
(dp5405
g62
(dp5406
sg71
g5362
sg64
(lp5407
g57
(g78
g59
NtRp5408
(dp5409
g62
(dp5410
sg71
g5404
sg64
(lp5411
g57
(g58
g59
NtRp5412
(dp5413
g62
(dp5414
g70
I3
ssg71
g5408
sg64
(lp5415
g57
(g66
g59
NtRp5416
(dp5417
g62
(dp5418
g70
I2
ssg71
Nsg64
(lp5419
sbasbasbasbasbasbasbasbag57
(g73
g59
NtRp5420
(dp5421
g62
(dp5422
sg71
g5206
sg64
(lp5423
g57
(g78
g59
NtRp5424
(dp5425
g62
(dp5426
sg71
g5420
sg64
(lp5427
g57
(g58
g59
NtRp5428
(dp5429
g62
(dp5430
g70
I4
ssg71
g5424
sg64
(lp5431
g57
(g66
g59
NtRp5432
(dp5433
g62
(dp5434
g70
I3
ssg71
Nsg64
(lp5435
g57
(g73
g59
NtRp5436
(dp5437
g62
(dp5438
sg71
g5432
sg64
(lp5439
g57
(g78
g59
NtRp5440
(dp5441
g62
(dp5442
sg71
g5436
sg64
(lp5443
g57
(g58
g59
NtRp5444
(dp5445
g62
(dp5446
g70
I3
ssg71
g5440
sg64
(lp5447
g4989
(S's\x05\x00\x00\x00Tipos'
tRp5448
asbasbasbag57
(g73
g59
NtRp5449
(dp5450
g62
(dp5451
sg71
g5432
sg64
(lp5452
g57
(g78
g59
NtRp5453
(dp5454
g62
(dp5455
sg71
g5449
sg64
(lp5456
g57
(g58
g59
NtRp5457
(dp5458
g62
(dp5459
g70
I3
ssg71
g5453
sg64
(lp5460
g100
asbasbasbag57
(g73
g59
NtRp5461
(dp5462
g62
(dp5463
sg71
g5432
sg64
(lp5464
g57
(g78
g59
NtRp5465
(dp5466
g62
(dp5467
sg71
g5461
sg64
(lp5468
g57
(g58
g59
NtRp5469
(dp5470
g62
(dp5471
g70
I3
ssg71
g5465
sg64
(lp5472
S'/proyecto_webcast/configuracion/tipos'
p5473
asbasbasbag57
(g73
g59
NtRp5474
(dp5475
g62
(dp5476
sg71
g5432
sg64
(lp5477
g57
(g78
g59
NtRp5478
(dp5479
g62
(dp5480
sg71
g5474
sg64
(lp5481
g57
(g58
g59
NtRp5482
(dp5483
g62
(dp5484
g70
I3
ssg71
g5478
sg64
(lp5485
g57
(g66
g59
NtRp5486
(dp5487
g62
(dp5488
g70
I2
ssg71
Nsg64
(lp5489
sbasbasbasbasbasbasbasbag57
(g73
g59
NtRp5490
(dp5491
g62
(dp5492
sg71
g5206
sg64
(lp5493
g57
(g78
g59
NtRp5494
(dp5495
g62
(dp5496
sg71
g5490
sg64
(lp5497
g57
(g58
g59
NtRp5498
(dp5499
g62
(dp5500
g70
I4
ssg71
g5494
sg64
(lp5501
g57
(g66
g59
NtRp5502
(dp5503
g62
(dp5504
g70
I3
ssg71
Nsg64
(lp5505
g57
(g73
g59
NtRp5506
(dp5507
g62
(dp5508
sg71
g5502
sg64
(lp5509
g57
(g78
g59
NtRp5510
(dp5511
g62
(dp5512
sg71
g5506
sg64
(lp5513
g57
(g58
g59
NtRp5514
(dp5515
g62
(dp5516
g70
I3
ssg71
g5510
sg64
(lp5517
g4989
(S's\x08\x00\x00\x00Clientes'
tRp5518
asbasbasbag57
(g73
g59
NtRp5519
(dp5520
g62
(dp5521
sg71
g5502
sg64
(lp5522
g57
(g78
g59
NtRp5523
(dp5524
g62
(dp5525
sg71
g5519
sg64
(lp5526
g57
(g58
g59
NtRp5527
(dp5528
g62
(dp5529
g70
I3
ssg71
g5523
sg64
(lp5530
g100
asbasbasbag57
(g73
g59
NtRp5531
(dp5532
g62
(dp5533
sg71
g5502
sg64
(lp5534
g57
(g78
g59
NtRp5535
(dp5536
g62
(dp5537
sg71
g5531
sg64
(lp5538
g57
(g58
g59
NtRp5539
(dp5540
g62
(dp5541
g70
I3
ssg71
g5535
sg64
(lp5542
S'/proyecto_webcast/configuracion/clientes'
p5543
asbasbasbag57
(g73
g59
NtRp5544
(dp5545
g62
(dp5546
sg71
g5502
sg64
(lp5547
g57
(g78
g59
NtRp5548
(dp5549
g62
(dp5550
sg71
g5544
sg64
(lp5551
g57
(g58
g59
NtRp5552
(dp5553
g62
(dp5554
g70
I3
ssg71
g5548
sg64
(lp5555
g57
(g66
g59
NtRp5556
(dp5557
g62
(dp5558
g70
I2
ssg71
Nsg64
(lp5559
sbasbasbasbasbasbasbasbag57
(g73
g59
NtRp5560
(dp5561
g62
(dp5562
sg71
g5206
sg64
(lp5563
g57
(g78
g59
NtRp5564
(dp5565
g62
(dp5566
sg71
g5560
sg64
(lp5567
g57
(g58
g59
NtRp5568
(dp5569
g62
(dp5570
g70
I4
ssg71
g5564
sg64
(lp5571
g57
(g66
g59
NtRp5572
(dp5573
g62
(dp5574
g70
I3
ssg71
Nsg64
(lp5575
g57
(g73
g59
NtRp5576
(dp5577
g62
(dp5578
sg71
g5572
sg64
(lp5579
g57
(g78
g59
NtRp5580
(dp5581
g62
(dp5582
sg71
g5576
sg64
(lp5583
g57
(g58
g59
NtRp5584
(dp5585
g62
(dp5586
g70
I3
ssg71
g5580
sg64
(lp5587
g4989
(S's\t\x00\x00\x00proyectos'
tRp5588
asbasbasbag57
(g73
g59
NtRp5589
(dp5590
g62
(dp5591
sg71
g5572
sg64
(lp5592
g57
(g78
g59
NtRp5593
(dp5594
g62
(dp5595
sg71
g5589
sg64
(lp5596
g57
(g58
g59
NtRp5597
(dp5598
g62
(dp5599
g70
I3
ssg71
g5593
sg64
(lp5600
g100
asbasbasbag57
(g73
g59
NtRp5601
(dp5602
g62
(dp5603
sg71
g5572
sg64
(lp5604
g57
(g78
g59
NtRp5605
(dp5606
g62
(dp5607
sg71
g5601
sg64
(lp5608
g57
(g58
g59
NtRp5609
(dp5610
g62
(dp5611
g70
I3
ssg71
g5605
sg64
(lp5612
S'/proyecto_webcast/configuracion/proyectos'
p5613
asbasbasbag57
(g73
g59
NtRp5614
(dp5615
g62
(dp5616
sg71
g5572
sg64
(lp5617
g57
(g78
g59
NtRp5618
(dp5619
g62
(dp5620
sg71
g5614
sg64
(lp5621
g57
(g58
g59
NtRp5622
(dp5623
g62
(dp5624
g70
I3
ssg71
g5618
sg64
(lp5625
g57
(g66
g59
NtRp5626
(dp5627
g62
(dp5628
g70
I2
ssg71
Nsg64
(lp5629
sbasbasbasbasbasbasbasbag57
(g73
g59
NtRp5630
(dp5631
g62
(dp5632
sg71
g5206
sg64
(lp5633
g57
(g78
g59
NtRp5634
(dp5635
g62
(dp5636
sg71
g5630
sg64
(lp5637
g57
(g58
g59
NtRp5638
(dp5639
g62
(dp5640
g70
I4
ssg71
g5634
sg64
(lp5641
g57
(g66
g59
NtRp5642
(dp5643
g62
(dp5644
g70
I3
ssg71
Nsg64
(lp5645
g57
(g73
g59
NtRp5646
(dp5647
g62
(dp5648
sg71
g5642
sg64
(lp5649
g57
(g78
g59
NtRp5650
(dp5651
g62
(dp5652
sg71
g5646
sg64
(lp5653
g57
(g58
g59
NtRp5654
(dp5655
g62
(dp5656
g70
I3
ssg71
g5650
sg64
(lp5657
g4989
(S's\x06\x00\x00\x00Tareas'
tRp5658
asbasbasbag57
(g73
g59
NtRp5659
(dp5660
g62
(dp5661
sg71
g5642
sg64
(lp5662
g57
(g78
g59
NtRp5663
(dp5664
g62
(dp5665
sg71
g5659
sg64
(lp5666
g57
(g58
g59
NtRp5667
(dp5668
g62
(dp5669
g70
I3
ssg71
g5663
sg64
(lp5670
g100
asbasbasbag57
(g73
g59
NtRp5671
(dp5672
g62
(dp5673
sg71
g5642
sg64
(lp5674
g57
(g78
g59
NtRp5675
(dp5676
g62
(dp5677
sg71
g5671
sg64
(lp5678
g57
(g58
g59
NtRp5679
(dp5680
g62
(dp5681
g70
I3
ssg71
g5675
sg64
(lp5682
S'/proyecto_webcast/configuracion/tareas'
p5683
asbasbasbag57
(g73
g59
NtRp5684
(dp5685
g62
(dp5686
sg71
g5642
sg64
(lp5687
g57
(g78
g59
NtRp5688
(dp5689
g62
(dp5690
sg71
g5684
sg64
(lp5691
g57
(g58
g59
NtRp5692
(dp5693
g62
(dp5694
g70
I3
ssg71
g5688
sg64
(lp5695
g57
(g66
g59
NtRp5696
(dp5697
g62
(dp5698
g70
I2
ssg71
Nsg64
(lp5699
sbasbasbasbasbasbasbasbasbasbasbasbag57
(g73
g59
NtRp5700
(dp5701
g62
(dp5702
sg71
g4554
sg64
(lp5703
g57
(g78
g59
NtRp5704
(dp5705
g62
(dp5706
g82
g83
ssg71
g5700
sg64
(lp5707
S'meta'
p5708
asbag57
(g78
g59
NtRp5709
(dp5710
g62
(dp5711
g89
g90
ssg71
g5700
sg64
(lp5712
S':'
asbag57
(g78
g59
NtRp5713
(dp5714
g62
(dp5715
sg71
g5700
sg64
(lp5716
g57
(g58
g59
NtRp5717
(dp5718
g62
(dp5719
g70
I5
ssg71
g5713
sg64
(lp5720
g57
(g66
g59
NtRp5721
(dp5722
g62
(dp5723
g70
I4
ssg71
Nsg64
(lp5724
g57
(g73
g59
NtRp5725
(dp5726
g62
(dp5727
sg71
g5721
sg64
(lp5728
g57
(g78
g59
NtRp5729
(dp5730
g62
(dp5731
g82
g83
ssg71
g5725
sg64
(lp5732
S'author'
p5733
asbag57
(g78
g59
NtRp5734
(dp5735
g62
(dp5736
g89
g90
ssg71
g5725
sg64
(lp5737
S':'
asbag57
(g78
g59
NtRp5738
(dp5739
g62
(dp5740
sg71
g5725
sg64
(lp5741
g57
(g58
g59
NtRp5742
(dp5743
g62
(dp5744
g70
I4
ssg71
g5738
sg64
(lp5745
S'@chum150 <ccardenas@emp2web.com>'
p5746
asbasbasbag57
(g73
g59
NtRp5747
(dp5748
g62
(dp5749
sg71
g5721
sg64
(lp5750
g57
(g78
g59
NtRp5751
(dp5752
g62
(dp5753
g82
g83
ssg71
g5747
sg64
(lp5754
S'description'
p5755
asbag57
(g78
g59
NtRp5756
(dp5757
g62
(dp5758
g89
g90
ssg71
g5747
sg64
(lp5759
S':'
asbag57
(g78
g59
NtRp5760
(dp5761
g62
(dp5762
sg71
g5747
sg64
(lp5763
g57
(g58
g59
NtRp5764
(dp5765
g62
(dp5766
g70
I4
ssg71
g5760
sg64
(lp5767
S'Ejemplo generado en el webcast #devIO'
p5768
asbasbasbag57
(g73
g59
NtRp5769
(dp5770
g62
(dp5771
sg71
g5721
sg64
(lp5772
g57
(g78
g59
NtRp5773
(dp5774
g62
(dp5775
g82
g83
ssg71
g5769
sg64
(lp5776
S'generator'
p5777
asbag57
(g78
g59
NtRp5778
(dp5779
g62
(dp5780
g89
g90
ssg71
g5769
sg64
(lp5781
S':'
asbag57
(g78
g59
NtRp5782
(dp5783
g62
(dp5784
sg71
g5769
sg64
(lp5785
g57
(g58
g59
NtRp5786
(dp5787
g62
(dp5788
g70
I4
ssg71
g5782
sg64
(lp5789
S'Web2py Web Framework'
p5790
asbasbasbag57
(g73
g59
NtRp5791
(dp5792
g62
(dp5793
sg71
g5721
sg64
(lp5794
g57
(g78
g59
NtRp5795
(dp5796
g62
(dp5797
g82
g83
ssg71
g5791
sg64
(lp5798
S'keywords'
p5799
asbag57
(g78
g59
NtRp5800
(dp5801
g62
(dp5802
g89
g90
ssg71
g5791
sg64
(lp5803
S':'
asbag57
(g78
g59
NtRp5804
(dp5805
g62
(dp5806
sg71
g5791
sg64
(lp5807
g57
(g58
g59
NtRp5808
(dp5809
g62
(dp5810
g70
I4
ssg71
g5804
sg64
(lp5811
S'web2py, @chum150, @desweb'
p5812
asbasbasbasbasbasbasbag57
(g73
g59
NtRp5813
(dp5814
g62
(dp5815
sg71
g4554
sg64
(lp5816
g57
(g78
g59
NtRp5817
(dp5818
g62
(dp5819
g82
g83
ssg71
g5813
sg64
(lp5820
S'postprocessing'
p5821
asbag57
(g78
g59
NtRp5822
(dp5823
g62
(dp5824
g89
g90
ssg71
g5813
sg64
(lp5825
S':'
asbag57
(g78
g59
NtRp5826
(dp5827
g62
(dp5828
sg71
g5813
sg64
(lp5829
g57
(g58
g59
NtRp5830
(dp5831
g62
(dp5832
g70
I5
ssg71
g5826
sg64
(lp5833
g57
(g66
g59
NtRp5834
(dp5835
g62
(dp5836
g70
I4
ssg71
Nsg64
(lp5837
sbasbasbasbag57
(g73
g59
NtRp5838
(dp5839
g62
(dp5840
sg71
g4554
sg64
(lp5841
g57
(g78
g59
NtRp5842
(dp5843
g62
(dp5844
g82
g83
ssg71
g5838
sg64
(lp5845
S'session_file'
p5846
asbag57
(g78
g59
NtRp5847
(dp5848
g62
(dp5849
g89
g90
ssg71
g5838
sg64
(lp5850
S':'
asbag57
(g78
g59
NtRp5851
(dp5852
g62
(dp5853
sg71
g5838
sg64
(lp5854
g57
(g58
g59
NtRp5855
(dp5856
g62
(dp5857
g70
I5
ssg71
g5851
sg64
(lp5858
S"<open file '/home/emp2web/ejecutar/web2py/applications/proyecto_webcast/sessions/127.0.0.1-3575e940-2aa6-4413-a80f-60a8b60379f5', mode 'rb+' at 0xaed10288>"
p5859
asbasbasbag57
(g73
g59
NtRp5860
(dp5861
g62
(dp5862
sg71
g4554
sg64
(lp5863
g57
(g78
g59
NtRp5864
(dp5865
g62
(dp5866
g82
g83
ssg71
g5860
sg64
(lp5867
S'session_filename'
p5868
asbag57
(g78
g59
NtRp5869
(dp5870
g62
(dp5871
g89
g90
ssg71
g5860
sg64
(lp5872
S':'
asbag57
(g78
g59
NtRp5873
(dp5874
g62
(dp5875
sg71
g5860
sg64
(lp5876
g57
(g58
g59
NtRp5877
(dp5878
g62
(dp5879
g70
I5
ssg71
g5873
sg64
(lp5880
S'/home/emp2web/ejecutar/web2py/applications/proyecto_webcast/sessions/127.0.0.1-3575e940-2aa6-4413-a80f-60a8b60379f5'
p5881
asbasbasbag57
(g73
g59
NtRp5882
(dp5883
g62
(dp5884
sg71
g4554
sg64
(lp5885
g57
(g78
g59
NtRp5886
(dp5887
g62
(dp5888
g82
g83
ssg71
g5882
sg64
(lp5889
S'session_id'
p5890
asbag57
(g78
g59
NtRp5891
(dp5892
g62
(dp5893
g89
g90
ssg71
g5882
sg64
(lp5894
S':'
asbag57
(g78
g59
NtRp5895
(dp5896
g62
(dp5897
sg71
g5882
sg64
(lp5898
g57
(g58
g59
NtRp5899
(dp5900
g62
(dp5901
g70
I5
ssg71
g5895
sg64
(lp5902
g846
asbasbasbag57
(g73
g59
NtRp5903
(dp5904
g62
(dp5905
sg71
g4554
sg64
(lp5906
g57
(g78
g59
NtRp5907
(dp5908
g62
(dp5909
g82
g83
ssg71
g5903
sg64
(lp5910
S'session_id_name'
p5911
asbag57
(g78
g59
NtRp5912
(dp5913
g62
(dp5914
g89
g90
ssg71
g5903
sg64
(lp5915
S':'
asbag57
(g78
g59
NtRp5916
(dp5917
g62
(dp5918
sg71
g5903
sg64
(lp5919
g57
(g58
g59
NtRp5920
(dp5921
g62
(dp5922
g70
I5
ssg71
g5916
sg64
(lp5923
g4611
asbasbasbag57
(g73
g59
NtRp5924
(dp5925
g62
(dp5926
sg71
g4554
sg64
(lp5927
g57
(g78
g59
NtRp5928
(dp5929
g62
(dp5930
g82
g83
ssg71
g5924
sg64
(lp5931
S'session_locked'
p5932
asbag57
(g78
g59
NtRp5933
(dp5934
g62
(dp5935
g89
g90
ssg71
g5924
sg64
(lp5936
S':'
asbag57
(g78
g59
NtRp5937
(dp5938
g62
(dp5939
sg71
g5924
sg64
(lp5940
g57
(g58
g59
NtRp5941
(dp5942
g62
(dp5943
g70
I5
ssg71
g5937
sg64
(lp5944
g1913
asbasbasbag57
(g73
g59
NtRp5945
(dp5946
g62
(dp5947
sg71
g4554
sg64
(lp5948
g57
(g78
g59
NtRp5949
(dp5950
g62
(dp5951
g82
g83
ssg71
g5945
sg64
(lp5952
S'session_new'
p5953
asbag57
(g78
g59
NtRp5954
(dp5955
g62
(dp5956
g89
g90
ssg71
g5945
sg64
(lp5957
S':'
asbag57
(g78
g59
NtRp5958
(dp5959
g62
(dp5960
sg71
g5945
sg64
(lp5961
g57
(g58
g59
NtRp5962
(dp5963
g62
(dp5964
g70
I5
ssg71
g5958
sg64
(lp5965
g100
asbasbasbag57
(g73
g59
NtRp5966
(dp5967
g62
(dp5968
sg71
g4554
sg64
(lp5969
g57
(g78
g59
NtRp5970
(dp5971
g62
(dp5972
g82
g83
ssg71
g5966
sg64
(lp5973
S'status'
p5974
asbag57
(g78
g59
NtRp5975
(dp5976
g62
(dp5977
g89
g90
ssg71
g5966
sg64
(lp5978
S':'
asbag57
(g78
g59
NtRp5979
(dp5980
g62
(dp5981
sg71
g5966
sg64
(lp5982
g57
(g58
g59
NtRp5983
(dp5984
g62
(dp5985
g70
I5
ssg71
g5979
sg64
(lp5986
S'200'
p5987
asbasbasbag57
(g73
g59
NtRp5988
(dp5989
g62
(dp5990
sg71
g4554
sg64
(lp5991
g57
(g78
g59
NtRp5992
(dp5993
g62
(dp5994
g82
g83
ssg71
g5988
sg64
(lp5995
S'subtitle'
p5996
asbag57
(g78
g59
NtRp5997
(dp5998
g62
(dp5999
g89
g90
ssg71
g5988
sg64
(lp6000
S':'
asbag57
(g78
g59
NtRp6001
(dp6002
g62
(dp6003
sg71
g5988
sg64
(lp6004
g57
(g58
g59
NtRp6005
(dp6006
g62
(dp6007
g70
I5
ssg71
g6001
sg64
(lp6008
g4989
(S's\x10\x00\x00\x00Ejemplo Webcast!'
tRp6009
asbasbasbag57
(g73
g59
NtRp6010
(dp6011
g62
(dp6012
sg71
g4554
sg64
(lp6013
g57
(g78
g59
NtRp6014
(dp6015
g62
(dp6016
g82
g83
ssg71
g6010
sg64
(lp6017
S'title'
p6018
asbag57
(g78
g59
NtRp6019
(dp6020
g62
(dp6021
g89
g90
ssg71
g6010
sg64
(lp6022
S':'
asbag57
(g78
g59
NtRp6023
(dp6024
g62
(dp6025
sg71
g6010
sg64
(lp6026
g57
(g58
g59
NtRp6027
(dp6028
g62
(dp6029
g70
I5
ssg71
g6023
sg64
(lp6030
S'Proyecto Webcast'
p6031
asbasbasbag57
(g73
g59
NtRp6032
(dp6033
g62
(dp6034
sg71
g4554
sg64
(lp6035
g57
(g78
g59
NtRp6036
(dp6037
g62
(dp6038
g82
g83
ssg71
g6032
sg64
(lp6039
S'view'
p6040
asbag57
(g78
g59
NtRp6041
(dp6042
g62
(dp6043
g89
g90
ssg71
g6032
sg64
(lp6044
S':'
asbag57
(g78
g59
NtRp6045
(dp6046
g62
(dp6047
sg71
g6032
sg64
(lp6048
g57
(g58
g59
NtRp6049
(dp6050
g62
(dp6051
g70
I5
ssg71
g6045
sg64
(lp6052
S'default/principal.html'
p6053
asbasbasbasbasbsS'locals'
p6054
(dp6055
S'Service'
p6056
S"<class 'gluon.tools.Service'>"
p6057
sS'OBJECT'
p6058
S"<class 'gluon.html.OBJECT'>"
p6059
sS'SQLDB'
p6060
S"<class 'gluon.dal.DAL'>"
p6061
sg4137
S'<Storage {\'_formkey[login]\': \'84a9b79c-f56d-424f...xd8\\xb0\\x91\'*\\xd1\\xdc\\xce\\xa1\\xcc\\xf6.\\xdf\\xf9"}>'
p6062
sS'LINK'
p6063
S"<class 'gluon.html.LINK'>"
p6064
sS'BR'
p6065
S"<class 'gluon.html.BR'>"
p6066
sS'local_import'
p6067
S'<function <lambda>>'
p6068
sS'OPTGROUP'
p6069
S"<class 'gluon.html.OPTGROUP'>"
p6070
sS'__package__'
p6071
S'None'
p6072
sS'PRE'
p6073
S"<class 'gluon.html.PRE'>"
p6074
sS'IS_INT_IN_RANGE'
p6075
S"<class 'gluon.validators.IS_INT_IN_RANGE'>"
p6076
sS'left_sidebar_enabled'
p6077
g100
sS'IS_LOWER'
p6078
S"<class 'gluon.validators.IS_LOWER'>"
p6079
sS'IS_STRONG'
p6080
S"<class 'gluon.validators.IS_STRONG'>"
p6081
sS'cache'
p6082
S'<gluon.cache.Cache object>'
p6083
sS'IS_IN_DB'
p6084
S"<class 'gluon.validators.IS_IN_DB'>"
p6085
sS'TAG'
p6086
S'<gluon.html.__TAG__ object>'
p6087
sS'SQLField'
p6088
S"<class 'gluon.dal.Field'>"
p6089
sS'mail'
p6090
S'<gluon.tools.Mail object>'
p6091
sS'BODY'
p6092
S"<class 'gluon.html.BODY'>"
p6093
sS'IS_DATE_IN_RANGE'
p6094
S"<class 'gluon.validators.IS_DATE_IN_RANGE'>"
p6095
sS'TH'
p6096
S"<class 'gluon.html.TH'>"
p6097
sS'URL'
p6098
S'<function URL>'
p6099
sS'__file__'
p6100
S"'/home/emp2web/ejecutar/web2py/applications/proyecto_webcast/views/default/principal.html'"
p6101
sS'db'
p6102
S'<DAL sqlite://storage.sqlite>'
p6103
sS'auth'
p6104
S'<gluon.tools.Auth object>'
p6105
sS'P'
S"<class 'gluon.html.P'>"
p6106
sS'TFOOT'
p6107
S"<class 'gluon.html.TFOOT'>"
p6108
sS'XHTML'
p6109
S"<class 'gluon.html.XHTML'>"
p6110
sS'ON'
p6111
g1913
sS'OL'
p6112
S"<class 'gluon.html.OL'>"
p6113
sS'TEXTAREA'
p6114
S"<class 'gluon.html.TEXTAREA'>"
p6115
sS'MENU'
p6116
S"<class 'gluon.html.MENU'>"
p6117
sS'LOAD'
p6118
S'<function LOAD>'
p6119
sS'CODE'
p6120
S"<class 'gluon.html.CODE'>"
p6121
sS'HTTP'
p6122
S"<class 'gluon.http.HTTP'>"
p6123
sS'HR'
p6124
S"<class 'gluon.html.HR'>"
p6125
sS'IS_DATETIME'
p6126
S"<class 'gluon.validators.IS_DATETIME'>"
p6127
sS'HEAD'
p6128
S"<class 'gluon.html.HEAD'>"
p6129
sS'LABEL'
p6130
S"<class 'gluon.html.LABEL'>"
p6131
sS'CLEANUP'
p6132
S"<class 'gluon.validators.CLEANUP'>"
p6133
sS'plugins'
p6134
S'<gluon.tools.PluginManager object>'
p6135
sS'SELECT'
p6136
S"<class 'gluon.html.SELECT'>"
p6137
sS'use_janrain'
p6138
S'<function use_janrain>'
p6139
sS'CENTER'
p6140
S"<class 'gluon.html.CENTER'>"
p6141
sS'prettydate'
p6142
S'<function prettydate>'
p6143
sS'Crud'
p6144
S"<class 'gluon.tools.Crud'>"
p6145
sS'Auth'
p6146
S"<class 'gluon.tools.Auth'>"
p6147
sS'__builtins__'
p6148
S"{'ArithmeticError': <type 'exceptions.ArithmeticError'>, 'AssertionError': <type 'exceptions.AssertionError'>, 'AttributeError': <type 'exceptions.AttributeError'>, 'BaseException': <type 'exceptions.BaseException'>, 'BufferError': <type 'exceptions.BufferError'>, 'BytesWarning': <type 'exceptions.BytesWarning'>, 'DeprecationWarning': <type 'exceptions.DeprecationWarning'>, 'EOFError': <type 'exceptions.EOFError'>, 'Ellipsis': Ellipsis, 'EnvironmentError': <type 'exceptions.EnvironmentError'>, ...}"
p6149
sS'HTML'
p6150
S"<class 'gluon.html.HTML'>"
p6151
sS'SQLFORM'
p6152
S"<class 'gluon.sqlhtml.SQLFORM'>"
p6153
sS'EM'
p6154
S"<class 'gluon.html.EM'>"
p6155
sS'redirect'
p6156
S'<function redirect>'
p6157
sS'FIELDSET'
p6158
S"<class 'gluon.html.FIELDSET'>"
p6159
sS'IS_EQUAL_TO'
p6160
S"<class 'gluon.validators.IS_EQUAL_TO'>"
p6161
sS'embed64'
p6162
S'<function embed64>'
p6163
sS'IS_LIST_OF'
p6164
S"<class 'gluon.validators.IS_LIST_OF'>"
p6165
sS'__name__'
p6166
S"'__restricted__'"
p6167
sS'EMBED'
p6168
S"<class 'gluon.html.EMBED'>"
p6169
sS'FORM'
p6170
S"<class 'gluon.html.FORM'>"
p6171
sS'H2'
p6172
S"<class 'gluon.html.H2'>"
p6173
sS'H3'
p6174
S"<class 'gluon.html.H3'>"
p6175
sS'BUTTON'
p6176
S"<class 'gluon.html.BUTTON'>"
p6177
sS'H1'
p6178
S"<class 'gluon.html.H1'>"
p6179
sS'H6'
p6180
S"<class 'gluon.html.H6'>"
p6181
sS'H4'
p6182
S"<class 'gluon.html.H4'>"
p6183
sS'H5'
p6184
S"<class 'gluon.html.H5'>"
p6185
sS'UL'
p6186
S"<class 'gluon.html.UL'>"
p6187
sS'IS_UPPER'
p6188
S"<class 'gluon.validators.IS_UPPER'>"
p6189
sS'xmlescape'
p6190
S'<function xmlescape>'
p6191
sS'IS_TIME'
p6192
S"<class 'gluon.validators.IS_TIME'>"
p6193
sS'OPTION'
p6194
S"<class 'gluon.html.OPTION'>"
p6195
sS'TITLE'
p6196
S"<class 'gluon.html.TITLE'>"
p6197
sS'CRYPT'
p6198
S"<class 'gluon.validators.CRYPT'>"
p6199
sS'IS_EMPTY_OR'
p6200
S"<class 'gluon.validators.IS_EMPTY_OR'>"
p6201
sS'MARKMIN'
p6202
S"<class 'gluon.html.MARKMIN'>"
p6203
sS'INPUT'
p6204
S"<class 'gluon.html.INPUT'>"
p6205
sS'STRONG'
p6206
S"<class 'gluon.html.STRONG'>"
p6207
sS'COL'
p6208
S"<class 'gluon.html.COL'>"
p6209
sS'service'
p6210
S'<gluon.tools.Service object>'
p6211
sS'SCRIPT'
p6212
S"<class 'gluon.html.SCRIPT'>"
p6213
sS'is_mobile'
p6214
g100
sS'TABLE'
p6215
S"<class 'gluon.html.TABLE'>"
p6216
sS'IS_IPV4'
p6217
S"<class 'gluon.validators.IS_IPV4'>"
p6218
sS'IS_LENGTH'
p6219
S"<class 'gluon.validators.IS_LENGTH'>"
p6220
sS'XML'
p6221
S"<class 'gluon.html.XML'>"
p6222
sS'B'
S"<class 'gluon.html.B'>"
p6223
sS'IMG'
p6224
S"<class 'gluon.html.IMG'>"
p6225
sS'SQLTABLE'
p6226
S"<class 'gluon.sqlhtml.SQLTABLE'>"
p6227
sS'IS_MATCH'
p6228
S"<class 'gluon.validators.IS_MATCH'>"
p6229
sS'IS_ALPHANUMERIC'
p6230
S"<class 'gluon.validators.IS_ALPHANUMERIC'>"
p6231
sS'SPAN'
p6232
S"<class 'gluon.html.SPAN'>"
p6233
sS'IS_SLUG'
p6234
S"<class 'gluon.validators.IS_SLUG'>"
p6235
sS'BEAUTIFY'
p6236
S"<class 'gluon.html.BEAUTIFY'>"
p6237
sS'META'
p6238
S"<class 'gluon.html.META'>"
p6239
sS'IS_DATE'
p6240
S"<class 'gluon.validators.IS_DATE'>"
p6241
sS'IS_EMAIL'
p6242
S"<class 'gluon.validators.IS_EMAIL'>"
p6243
sS'IS_NOT_EMPTY'
p6244
S"<class 'gluon.validators.IS_NOT_EMPTY'>"
p6245
sS'IS_FLOAT_IN_RANGE'
p6246
S"<class 'gluon.validators.IS_FLOAT_IN_RANGE'>"
p6247
sS'TBODY'
p6248
S"<class 'gluon.html.TBODY'>"
p6249
sS'CAT'
p6250
S"<class 'gluon.html.CAT'>"
p6251
sS'Field'
p6252
S"<class 'gluon.dal.Field'>"
p6253
sS'middle_columns'
p6254
S"'span12'"
p6255
sS'DIV'
p6256
S"<class 'gluon.html.DIV'>"
p6257
sS'LEGEND'
p6258
S"<class 'gluon.html.LEGEND'>"
p6259
sS'COLGROUP'
p6260
S"<class 'gluon.html.COLGROUP'>"
p6261
sS'DAL'
p6262
S"<class 'gluon.dal.DAL'>"
p6263
sS'TT'
p6264
S"<class 'gluon.html.TT'>"
p6265
sS'TR'
p6266
S"<class 'gluon.html.TR'>"
p6267
sS'LI'
p6268
S"<class 'gluon.html.LI'>"
p6269
sS'right_sidebar_enabled'
p6270
g100
sS'IFRAME'
p6271
S"<class 'gluon.html.IFRAME'>"
p6272
sS'TD'
p6273
S"<class 'gluon.html.TD'>"
p6274
sS'PluginManager'
p6275
S"<class 'gluon.tools.PluginManager'>"
p6276
sS'IS_URL'
p6277
S"<class 'gluon.validators.IS_URL'>"
p6278
sS'A'
S"<class 'gluon.html.A'>"
p6279
sS'STYLE'
p6280
S"<class 'gluon.html.STYLE'>"
p6281
sS'IS_DATETIME_IN_RANGE'
p6282
S"<class 'gluon.validators.IS_DATETIME_IN_RANGE'>"
p6283
sS'IS_IMAGE'
p6284
S"<class 'gluon.validators.IS_IMAGE'>"
p6285
sS'I'
S"<class 'gluon.html.I'>"
p6286
sS'crud'
p6287
S'<gluon.tools.Crud object>'
p6288
sS'IS_NOT_IN_DB'
p6289
S"<class 'gluon.validators.IS_NOT_IN_DB'>"
p6290
sg4549
S"<Storage {'body': <cStringIO.StringO object at 0...t 0xae79341c>, 'view': 'default/principal.html'}>"
p6291
sS'THEAD'
p6292
S"<class 'gluon.html.THEAD'>"
p6293
sS'IS_NULL_OR'
p6294
S"<class 'gluon.validators.IS_EMPTY_OR'>"
p6295
sg56
S"<Storage {'function': 'principal', 'body': <cStr...s/proyecto_webcast/', 'post_vars': <Storage {}>}>"
p6296
sS'IS_EXPR'
p6297
S"<class 'gluon.validators.IS_EXPR'>"
p6298
sS'T'
S'<gluon.languages.translator object>'
p6299
sS'IS_IN_SET'
p6300
S"<class 'gluon.validators.IS_IN_SET'>"
p6301
sS'IS_UPLOAD_FILENAME'
p6302
S"<class 'gluon.validators.IS_UPLOAD_FILENAME'>"
p6303
sS'IS_DECIMAL_IN_RANGE'
p6304
S"<class 'gluon.validators.IS_DECIMAL_IN_RANGE'>"
p6305
sssS'traceback'
p6306
S'Traceback (most recent call last):\n  File "/home/emp2web/ejecutar/web2py/gluon/restricted.py", line 209, in restricted\n    exec ccode in environment\n  File "/home/emp2web/ejecutar/web2py/applications/proyecto_webcast/views/default/principal.html", line 79, in <module>\nNameError: name \'formulario\' is not defined\n'
p6307
s.