(dp1
S'output'
p2
S"<type 'exceptions.AttributeError'> 'DAL' object has no attribute 'proyectos'"
p3
sS'layer'
p4
S'/home/emp2web/webcast/web2py/applications/proyectos/controllers/configuracion.py'
p5
sS'code'
p6
S'# coding: utf8\n# intente algo como\ndef index(): return dict(message="hello from configuracion.py")\n\ndef grupos():\n    formulario=SQLFORM.grid(db.grupos)\n    return locals()\n    \ndef estados():\n    formulario=SQLFORM.grid(db.estados)\n    return locals()\n    \ndef tipos():\n    formulario=SQLFORM.grid(db.tipos)\n    return locals()\n\n\ndef clientes():\n    formulario=SQLFORM.smartgrid(db.clientes)\n    return locals()\n    \ndef proyectos():\n    formulario=SQLFORM.smartgrid(db.proyectos)\n    return locals()\n\nresponse._vars=response._caller(proyectos)\n'
p7
sS'snapshot'
p8
(dp9
S'exception'
p10
(dp11
S'__hash__'
p12
S"<method-wrapper '__hash__' of exceptions.AttributeError object>"
p13
sS'__setattr__'
p14
S"<method-wrapper '__setattr__' of exceptions.AttributeError object>"
p15
sS'__reduce_ex__'
p16
S'<built-in method __reduce_ex__ of exceptions.AttributeError object>'
p17
sS'__getslice__'
p18
S"<method-wrapper '__getslice__' of exceptions.AttributeError object>"
p19
sS'__getitem__'
p20
S"<method-wrapper '__getitem__' of exceptions.AttributeError object>"
p21
sS'__setstate__'
p22
S'<built-in method __setstate__ of exceptions.AttributeError object>'
p23
sS'__reduce__'
p24
S'<built-in method __reduce__ of exceptions.AttributeError object>'
p25
sS'__str__'
p26
S"<method-wrapper '__str__' of exceptions.AttributeError object>"
p27
sS'__format__'
p28
S'<built-in method __format__ of exceptions.AttributeError object>'
p29
sS'__getattribute__'
p30
S"<method-wrapper '__getattribute__' of exceptions.AttributeError object>"
p31
sS'__class__'
p32
S"<type 'exceptions.AttributeError'>"
p33
sS'__unicode__'
p34
S'<built-in method __unicode__ of exceptions.AttributeError object>'
p35
sS'__delattr__'
p36
S"<method-wrapper '__delattr__' of exceptions.AttributeError object>"
p37
sS'__subclasshook__'
p38
S'<built-in method __subclasshook__ of type object>'
p39
sS'__repr__'
p40
S"<method-wrapper '__repr__' of exceptions.AttributeError object>"
p41
sS'args'
p42
S'("\'DAL\' object has no attribute \'proyectos\'",)'
p43
sS'__dict__'
p44
S'{}'
p45
sS'__sizeof__'
p46
S'<built-in method __sizeof__ of exceptions.AttributeError object>'
p47
sS'__doc__'
p48
S"'Attribute not found.'"
p49
sS'__init__'
p50
S"<method-wrapper '__init__' of exceptions.AttributeError object>"
p51
sS'__new__'
p52
S'<built-in method __new__ of type object>'
p53
ssS'evalue'
p54
S"'DAL' object has no attribute 'proyectos'"
p55
sS'request'
p56
ccopy_reg
_reconstructor
p57
(cgluon.html
BEAUTIFY
p58
c__builtin__
object
p59
NtRp60
(dp61
S'attributes'
p62
(dp63
sS'components'
p64
(lp65
g57
(cgluon.html
TABLE
p66
g59
NtRp67
(dp68
g62
(dp69
S'level'
p70
I5
ssS'parent'
p71
Nsg64
(lp72
g57
(cgluon.html
TR
p73
g59
NtRp74
(dp75
g62
(dp76
sg71
g67
sg64
(lp77
g57
(cgluon.html
TD
p78
g59
NtRp79
(dp80
g62
(dp81
S'_style'
p82
S'font-weight:bold;vertical-align:top'
p83
ssg71
g74
sg64
(lp84
S'ajax'
p85
asbag57
(g78
g59
NtRp86
(dp87
g62
(dp88
S'_valign'
p89
S'top'
p90
ssg71
g74
sg64
(lp91
S':'
asbag57
(g78
g59
NtRp92
(dp93
g62
(dp94
sg71
g74
sg64
(lp95
g57
(g58
g59
NtRp96
(dp97
g62
(dp98
g70
I5
ssg71
g92
sg64
(lp99
S'False'
p100
asbasbasbag57
(g73
g59
NtRp101
(dp102
g62
(dp103
sg71
g67
sg64
(lp104
g57
(g78
g59
NtRp105
(dp106
g62
(dp107
g82
g83
ssg71
g101
sg64
(lp108
S'application'
p109
asbag57
(g78
g59
NtRp110
(dp111
g62
(dp112
g89
g90
ssg71
g101
sg64
(lp113
S':'
asbag57
(g78
g59
NtRp114
(dp115
g62
(dp116
sg71
g101
sg64
(lp117
g57
(g58
g59
NtRp118
(dp119
g62
(dp120
g70
I5
ssg71
g114
sg64
(lp121
S'proyectos'
p122
asbasbasbag57
(g73
g59
NtRp123
(dp124
g62
(dp125
sg71
g67
sg64
(lp126
g57
(g78
g59
NtRp127
(dp128
g62
(dp129
g82
g83
ssg71
g123
sg64
(lp130
g42
asbag57
(g78
g59
NtRp131
(dp132
g62
(dp133
g89
g90
ssg71
g123
sg64
(lp134
S':'
asbag57
(g78
g59
NtRp135
(dp136
g62
(dp137
sg71
g123
sg64
(lp138
g57
(g58
g59
NtRp139
(dp140
g62
(dp141
g70
I5
ssg71
g135
sg64
(lp142
g57
(g66
g59
NtRp143
(dp144
g62
(dp145
g70
I4
ssg71
Nsg64
(lp146
sbasbasbasbag57
(g73
g59
NtRp147
(dp148
g62
(dp149
sg71
g67
sg64
(lp150
g57
(g78
g59
NtRp151
(dp152
g62
(dp153
g82
g83
ssg71
g147
sg64
(lp154
S'body'
p155
asbag57
(g78
g59
NtRp156
(dp157
g62
(dp158
g89
g90
ssg71
g147
sg64
(lp159
S':'
asbag57
(g78
g59
NtRp160
(dp161
g62
(dp162
sg71
g147
sg64
(lp163
g57
(g58
g59
NtRp164
(dp165
g62
(dp166
g70
I5
ssg71
g160
sg64
(lp167
S'<cStringIO.StringO object at 0xa081240>'
p168
asbasbasbag57
(g73
g59
NtRp169
(dp170
g62
(dp171
sg71
g67
sg64
(lp172
g57
(g78
g59
NtRp173
(dp174
g62
(dp175
g82
g83
ssg71
g169
sg64
(lp176
S'cid'
p177
asbag57
(g78
g59
NtRp178
(dp179
g62
(dp180
g89
g90
ssg71
g169
sg64
(lp181
S':'
asbag57
(g78
g59
NtRp182
(dp183
g62
(dp184
sg71
g169
sg64
(lp185
g57
(g58
g59
NtRp186
(dp187
g62
(dp188
g70
I5
ssg71
g182
sg64
(lp189
S'None'
p190
asbasbasbag57
(g73
g59
NtRp191
(dp192
g62
(dp193
sg71
g67
sg64
(lp194
g57
(g78
g59
NtRp195
(dp196
g62
(dp197
g82
g83
ssg71
g191
sg64
(lp198
S'client'
p199
asbag57
(g78
g59
NtRp200
(dp201
g62
(dp202
g89
g90
ssg71
g191
sg64
(lp203
S':'
asbag57
(g78
g59
NtRp204
(dp205
g62
(dp206
sg71
g191
sg64
(lp207
g57
(g58
g59
NtRp208
(dp209
g62
(dp210
g70
I5
ssg71
g204
sg64
(lp211
S'127.0.0.1'
p212
asbasbasbag57
(g73
g59
NtRp213
(dp214
g62
(dp215
sg71
g67
sg64
(lp216
g57
(g78
g59
NtRp217
(dp218
g62
(dp219
g82
g83
ssg71
g213
sg64
(lp220
S'controller'
p221
asbag57
(g78
g59
NtRp222
(dp223
g62
(dp224
g89
g90
ssg71
g213
sg64
(lp225
S':'
asbag57
(g78
g59
NtRp226
(dp227
g62
(dp228
sg71
g213
sg64
(lp229
g57
(g58
g59
NtRp230
(dp231
g62
(dp232
g70
I5
ssg71
g226
sg64
(lp233
S'configuracion'
p234
asbasbasbag57
(g73
g59
NtRp235
(dp236
g62
(dp237
sg71
g67
sg64
(lp238
g57
(g78
g59
NtRp239
(dp240
g62
(dp241
g82
g83
ssg71
g235
sg64
(lp242
S'cookies'
p243
asbag57
(g78
g59
NtRp244
(dp245
g62
(dp246
g89
g90
ssg71
g235
sg64
(lp247
S':'
asbag57
(g78
g59
NtRp248
(dp249
g62
(dp250
sg71
g235
sg64
(lp251
g57
(g58
g59
NtRp252
(dp253
g62
(dp254
g70
I5
ssg71
g248
sg64
(lp255
g57
(g66
g59
NtRp256
(dp257
g62
(dp258
g70
I4
ssg71
Nsg64
(lp259
g57
(g73
g59
NtRp260
(dp261
g62
(dp262
sg71
g256
sg64
(lp263
g57
(g78
g59
NtRp264
(dp265
g62
(dp266
g82
g83
ssg71
g260
sg64
(lp267
S'CP.mode'
p268
asbag57
(g78
g59
NtRp269
(dp270
g62
(dp271
g89
g90
ssg71
g260
sg64
(lp272
S':'
asbag57
(g78
g59
NtRp273
(dp274
g62
(dp275
sg71
g260
sg64
(lp276
g57
(g58
g59
NtRp277
(dp278
g62
(dp279
g70
I4
ssg71
g273
sg64
(lp280
S'B'
ag57
(g66
g59
NtRp281
(dp282
g62
(dp283
g70
I3
ssg71
Nsg64
(lp284
g57
(g73
g59
NtRp285
(dp286
g62
(dp287
sg71
g281
sg64
(lp288
g57
(g78
g59
NtRp289
(dp290
g62
(dp291
g82
g83
ssg71
g285
sg64
(lp292
S'comment'
p293
asbag57
(g78
g59
NtRp294
(dp295
g62
(dp296
g89
g90
ssg71
g285
sg64
(lp297
S':'
asbag57
(g78
g59
NtRp298
(dp299
g62
(dp300
sg71
g285
sg64
(lp301
g57
(g58
g59
NtRp302
(dp303
g62
(dp304
g70
I3
ssg71
g298
sg64
(lp305
S''
asbasbasbag57
(g73
g59
NtRp306
(dp307
g62
(dp308
sg71
g281
sg64
(lp309
g57
(g78
g59
NtRp310
(dp311
g62
(dp312
g82
g83
ssg71
g306
sg64
(lp313
S'domain'
p314
asbag57
(g78
g59
NtRp315
(dp316
g62
(dp317
g89
g90
ssg71
g306
sg64
(lp318
S':'
asbag57
(g78
g59
NtRp319
(dp320
g62
(dp321
sg71
g306
sg64
(lp322
g57
(g58
g59
NtRp323
(dp324
g62
(dp325
g70
I3
ssg71
g319
sg64
(lp326
S''
asbasbasbag57
(g73
g59
NtRp327
(dp328
g62
(dp329
sg71
g281
sg64
(lp330
g57
(g78
g59
NtRp331
(dp332
g62
(dp333
g82
g83
ssg71
g327
sg64
(lp334
S'expires'
p335
asbag57
(g78
g59
NtRp336
(dp337
g62
(dp338
g89
g90
ssg71
g327
sg64
(lp339
S':'
asbag57
(g78
g59
NtRp340
(dp341
g62
(dp342
sg71
g327
sg64
(lp343
g57
(g58
g59
NtRp344
(dp345
g62
(dp346
g70
I3
ssg71
g340
sg64
(lp347
S''
asbasbasbag57
(g73
g59
NtRp348
(dp349
g62
(dp350
sg71
g281
sg64
(lp351
g57
(g78
g59
NtRp352
(dp353
g62
(dp354
g82
g83
ssg71
g348
sg64
(lp355
S'httponly'
p356
asbag57
(g78
g59
NtRp357
(dp358
g62
(dp359
g89
g90
ssg71
g348
sg64
(lp360
S':'
asbag57
(g78
g59
NtRp361
(dp362
g62
(dp363
sg71
g348
sg64
(lp364
g57
(g58
g59
NtRp365
(dp366
g62
(dp367
g70
I3
ssg71
g361
sg64
(lp368
S''
asbasbasbag57
(g73
g59
NtRp369
(dp370
g62
(dp371
sg71
g281
sg64
(lp372
g57
(g78
g59
NtRp373
(dp374
g62
(dp375
g82
g83
ssg71
g369
sg64
(lp376
S'max-age'
p377
asbag57
(g78
g59
NtRp378
(dp379
g62
(dp380
g89
g90
ssg71
g369
sg64
(lp381
S':'
asbag57
(g78
g59
NtRp382
(dp383
g62
(dp384
sg71
g369
sg64
(lp385
g57
(g58
g59
NtRp386
(dp387
g62
(dp388
g70
I3
ssg71
g382
sg64
(lp389
S''
asbasbasbag57
(g73
g59
NtRp390
(dp391
g62
(dp392
sg71
g281
sg64
(lp393
g57
(g78
g59
NtRp394
(dp395
g62
(dp396
g82
g83
ssg71
g390
sg64
(lp397
S'path'
p398
asbag57
(g78
g59
NtRp399
(dp400
g62
(dp401
g89
g90
ssg71
g390
sg64
(lp402
S':'
asbag57
(g78
g59
NtRp403
(dp404
g62
(dp405
sg71
g390
sg64
(lp406
g57
(g58
g59
NtRp407
(dp408
g62
(dp409
g70
I3
ssg71
g403
sg64
(lp410
S''
asbasbasbag57
(g73
g59
NtRp411
(dp412
g62
(dp413
sg71
g281
sg64
(lp414
g57
(g78
g59
NtRp415
(dp416
g62
(dp417
g82
g83
ssg71
g411
sg64
(lp418
S'secure'
p419
asbag57
(g78
g59
NtRp420
(dp421
g62
(dp422
g89
g90
ssg71
g411
sg64
(lp423
S':'
asbag57
(g78
g59
NtRp424
(dp425
g62
(dp426
sg71
g411
sg64
(lp427
g57
(g58
g59
NtRp428
(dp429
g62
(dp430
g70
I3
ssg71
g424
sg64
(lp431
S''
asbasbasbag57
(g73
g59
NtRp432
(dp433
g62
(dp434
sg71
g281
sg64
(lp435
g57
(g78
g59
NtRp436
(dp437
g62
(dp438
g82
g83
ssg71
g432
sg64
(lp439
S'version'
p440
asbag57
(g78
g59
NtRp441
(dp442
g62
(dp443
g89
g90
ssg71
g432
sg64
(lp444
S':'
asbag57
(g78
g59
NtRp445
(dp446
g62
(dp447
sg71
g432
sg64
(lp448
g57
(g58
g59
NtRp449
(dp450
g62
(dp451
g70
I3
ssg71
g445
sg64
(lp452
S''
asbasbasbasbasbasbasbag57
(g73
g59
NtRp453
(dp454
g62
(dp455
sg71
g256
sg64
(lp456
g57
(g78
g59
NtRp457
(dp458
g62
(dp459
g82
g83
ssg71
g453
sg64
(lp460
S'session_id_admin'
p461
asbag57
(g78
g59
NtRp462
(dp463
g62
(dp464
g89
g90
ssg71
g453
sg64
(lp465
S':'
asbag57
(g78
g59
NtRp466
(dp467
g62
(dp468
sg71
g453
sg64
(lp469
g57
(g58
g59
NtRp470
(dp471
g62
(dp472
g70
I4
ssg71
g466
sg64
(lp473
S'127.0.0.1-59d830b7-3426-4408-b007-2063f315657f'
p474
ag57
(g66
g59
NtRp475
(dp476
g62
(dp477
g70
I3
ssg71
Nsg64
(lp478
g57
(g73
g59
NtRp479
(dp480
g62
(dp481
sg71
g475
sg64
(lp482
g57
(g78
g59
NtRp483
(dp484
g62
(dp485
g82
g83
ssg71
g479
sg64
(lp486
g293
asbag57
(g78
g59
NtRp487
(dp488
g62
(dp489
g89
g90
ssg71
g479
sg64
(lp490
S':'
asbag57
(g78
g59
NtRp491
(dp492
g62
(dp493
sg71
g479
sg64
(lp494
g57
(g58
g59
NtRp495
(dp496
g62
(dp497
g70
I3
ssg71
g491
sg64
(lp498
S''
asbasbasbag57
(g73
g59
NtRp499
(dp500
g62
(dp501
sg71
g475
sg64
(lp502
g57
(g78
g59
NtRp503
(dp504
g62
(dp505
g82
g83
ssg71
g499
sg64
(lp506
g314
asbag57
(g78
g59
NtRp507
(dp508
g62
(dp509
g89
g90
ssg71
g499
sg64
(lp510
S':'
asbag57
(g78
g59
NtRp511
(dp512
g62
(dp513
sg71
g499
sg64
(lp514
g57
(g58
g59
NtRp515
(dp516
g62
(dp517
g70
I3
ssg71
g511
sg64
(lp518
S''
asbasbasbag57
(g73
g59
NtRp519
(dp520
g62
(dp521
sg71
g475
sg64
(lp522
g57
(g78
g59
NtRp523
(dp524
g62
(dp525
g82
g83
ssg71
g519
sg64
(lp526
g335
asbag57
(g78
g59
NtRp527
(dp528
g62
(dp529
g89
g90
ssg71
g519
sg64
(lp530
S':'
asbag57
(g78
g59
NtRp531
(dp532
g62
(dp533
sg71
g519
sg64
(lp534
g57
(g58
g59
NtRp535
(dp536
g62
(dp537
g70
I3
ssg71
g531
sg64
(lp538
S''
asbasbasbag57
(g73
g59
NtRp539
(dp540
g62
(dp541
sg71
g475
sg64
(lp542
g57
(g78
g59
NtRp543
(dp544
g62
(dp545
g82
g83
ssg71
g539
sg64
(lp546
g356
asbag57
(g78
g59
NtRp547
(dp548
g62
(dp549
g89
g90
ssg71
g539
sg64
(lp550
S':'
asbag57
(g78
g59
NtRp551
(dp552
g62
(dp553
sg71
g539
sg64
(lp554
g57
(g58
g59
NtRp555
(dp556
g62
(dp557
g70
I3
ssg71
g551
sg64
(lp558
S''
asbasbasbag57
(g73
g59
NtRp559
(dp560
g62
(dp561
sg71
g475
sg64
(lp562
g57
(g78
g59
NtRp563
(dp564
g62
(dp565
g82
g83
ssg71
g559
sg64
(lp566
g377
asbag57
(g78
g59
NtRp567
(dp568
g62
(dp569
g89
g90
ssg71
g559
sg64
(lp570
S':'
asbag57
(g78
g59
NtRp571
(dp572
g62
(dp573
sg71
g559
sg64
(lp574
g57
(g58
g59
NtRp575
(dp576
g62
(dp577
g70
I3
ssg71
g571
sg64
(lp578
S''
asbasbasbag57
(g73
g59
NtRp579
(dp580
g62
(dp581
sg71
g475
sg64
(lp582
g57
(g78
g59
NtRp583
(dp584
g62
(dp585
g82
g83
ssg71
g579
sg64
(lp586
g398
asbag57
(g78
g59
NtRp587
(dp588
g62
(dp589
g89
g90
ssg71
g579
sg64
(lp590
S':'
asbag57
(g78
g59
NtRp591
(dp592
g62
(dp593
sg71
g579
sg64
(lp594
g57
(g58
g59
NtRp595
(dp596
g62
(dp597
g70
I3
ssg71
g591
sg64
(lp598
S''
asbasbasbag57
(g73
g59
NtRp599
(dp600
g62
(dp601
sg71
g475
sg64
(lp602
g57
(g78
g59
NtRp603
(dp604
g62
(dp605
g82
g83
ssg71
g599
sg64
(lp606
g419
asbag57
(g78
g59
NtRp607
(dp608
g62
(dp609
g89
g90
ssg71
g599
sg64
(lp610
S':'
asbag57
(g78
g59
NtRp611
(dp612
g62
(dp613
sg71
g599
sg64
(lp614
g57
(g58
g59
NtRp615
(dp616
g62
(dp617
g70
I3
ssg71
g611
sg64
(lp618
S''
asbasbasbag57
(g73
g59
NtRp619
(dp620
g62
(dp621
sg71
g475
sg64
(lp622
g57
(g78
g59
NtRp623
(dp624
g62
(dp625
g82
g83
ssg71
g619
sg64
(lp626
g440
asbag57
(g78
g59
NtRp627
(dp628
g62
(dp629
g89
g90
ssg71
g619
sg64
(lp630
S':'
asbag57
(g78
g59
NtRp631
(dp632
g62
(dp633
sg71
g619
sg64
(lp634
g57
(g58
g59
NtRp635
(dp636
g62
(dp637
g70
I3
ssg71
g631
sg64
(lp638
S''
asbasbasbasbasbasbasbag57
(g73
g59
NtRp639
(dp640
g62
(dp641
sg71
g256
sg64
(lp642
g57
(g78
g59
NtRp643
(dp644
g62
(dp645
g82
g83
ssg71
g639
sg64
(lp646
S'session_id_proyectos'
p647
asbag57
(g78
g59
NtRp648
(dp649
g62
(dp650
g89
g90
ssg71
g639
sg64
(lp651
S':'
asbag57
(g78
g59
NtRp652
(dp653
g62
(dp654
sg71
g639
sg64
(lp655
g57
(g58
g59
NtRp656
(dp657
g62
(dp658
g70
I4
ssg71
g652
sg64
(lp659
S'127.0.0.1-be82b3d9-4d64-4bfc-8d3a-c456e8044ba2'
p660
ag57
(g66
g59
NtRp661
(dp662
g62
(dp663
g70
I3
ssg71
Nsg64
(lp664
g57
(g73
g59
NtRp665
(dp666
g62
(dp667
sg71
g661
sg64
(lp668
g57
(g78
g59
NtRp669
(dp670
g62
(dp671
g82
g83
ssg71
g665
sg64
(lp672
g293
asbag57
(g78
g59
NtRp673
(dp674
g62
(dp675
g89
g90
ssg71
g665
sg64
(lp676
S':'
asbag57
(g78
g59
NtRp677
(dp678
g62
(dp679
sg71
g665
sg64
(lp680
g57
(g58
g59
NtRp681
(dp682
g62
(dp683
g70
I3
ssg71
g677
sg64
(lp684
S''
asbasbasbag57
(g73
g59
NtRp685
(dp686
g62
(dp687
sg71
g661
sg64
(lp688
g57
(g78
g59
NtRp689
(dp690
g62
(dp691
g82
g83
ssg71
g685
sg64
(lp692
g314
asbag57
(g78
g59
NtRp693
(dp694
g62
(dp695
g89
g90
ssg71
g685
sg64
(lp696
S':'
asbag57
(g78
g59
NtRp697
(dp698
g62
(dp699
sg71
g685
sg64
(lp700
g57
(g58
g59
NtRp701
(dp702
g62
(dp703
g70
I3
ssg71
g697
sg64
(lp704
S''
asbasbasbag57
(g73
g59
NtRp705
(dp706
g62
(dp707
sg71
g661
sg64
(lp708
g57
(g78
g59
NtRp709
(dp710
g62
(dp711
g82
g83
ssg71
g705
sg64
(lp712
g335
asbag57
(g78
g59
NtRp713
(dp714
g62
(dp715
g89
g90
ssg71
g705
sg64
(lp716
S':'
asbag57
(g78
g59
NtRp717
(dp718
g62
(dp719
sg71
g705
sg64
(lp720
g57
(g58
g59
NtRp721
(dp722
g62
(dp723
g70
I3
ssg71
g717
sg64
(lp724
S''
asbasbasbag57
(g73
g59
NtRp725
(dp726
g62
(dp727
sg71
g661
sg64
(lp728
g57
(g78
g59
NtRp729
(dp730
g62
(dp731
g82
g83
ssg71
g725
sg64
(lp732
g356
asbag57
(g78
g59
NtRp733
(dp734
g62
(dp735
g89
g90
ssg71
g725
sg64
(lp736
S':'
asbag57
(g78
g59
NtRp737
(dp738
g62
(dp739
sg71
g725
sg64
(lp740
g57
(g58
g59
NtRp741
(dp742
g62
(dp743
g70
I3
ssg71
g737
sg64
(lp744
S''
asbasbasbag57
(g73
g59
NtRp745
(dp746
g62
(dp747
sg71
g661
sg64
(lp748
g57
(g78
g59
NtRp749
(dp750
g62
(dp751
g82
g83
ssg71
g745
sg64
(lp752
g377
asbag57
(g78
g59
NtRp753
(dp754
g62
(dp755
g89
g90
ssg71
g745
sg64
(lp756
S':'
asbag57
(g78
g59
NtRp757
(dp758
g62
(dp759
sg71
g745
sg64
(lp760
g57
(g58
g59
NtRp761
(dp762
g62
(dp763
g70
I3
ssg71
g757
sg64
(lp764
S''
asbasbasbag57
(g73
g59
NtRp765
(dp766
g62
(dp767
sg71
g661
sg64
(lp768
g57
(g78
g59
NtRp769
(dp770
g62
(dp771
g82
g83
ssg71
g765
sg64
(lp772
g398
asbag57
(g78
g59
NtRp773
(dp774
g62
(dp775
g89
g90
ssg71
g765
sg64
(lp776
S':'
asbag57
(g78
g59
NtRp777
(dp778
g62
(dp779
sg71
g765
sg64
(lp780
g57
(g58
g59
NtRp781
(dp782
g62
(dp783
g70
I3
ssg71
g777
sg64
(lp784
S''
asbasbasbag57
(g73
g59
NtRp785
(dp786
g62
(dp787
sg71
g661
sg64
(lp788
g57
(g78
g59
NtRp789
(dp790
g62
(dp791
g82
g83
ssg71
g785
sg64
(lp792
g419
asbag57
(g78
g59
NtRp793
(dp794
g62
(dp795
g89
g90
ssg71
g785
sg64
(lp796
S':'
asbag57
(g78
g59
NtRp797
(dp798
g62
(dp799
sg71
g785
sg64
(lp800
g57
(g58
g59
NtRp801
(dp802
g62
(dp803
g70
I3
ssg71
g797
sg64
(lp804
S''
asbasbasbag57
(g73
g59
NtRp805
(dp806
g62
(dp807
sg71
g661
sg64
(lp808
g57
(g78
g59
NtRp809
(dp810
g62
(dp811
g82
g83
ssg71
g805
sg64
(lp812
g440
asbag57
(g78
g59
NtRp813
(dp814
g62
(dp815
g89
g90
ssg71
g805
sg64
(lp816
S':'
asbag57
(g78
g59
NtRp817
(dp818
g62
(dp819
sg71
g805
sg64
(lp820
g57
(g58
g59
NtRp821
(dp822
g62
(dp823
g70
I3
ssg71
g817
sg64
(lp824
S''
asbasbasbasbasbasbasbag57
(g73
g59
NtRp825
(dp826
g62
(dp827
sg71
g256
sg64
(lp828
g57
(g78
g59
NtRp829
(dp830
g62
(dp831
g82
g83
ssg71
g825
sg64
(lp832
S'session_id_welcome'
p833
asbag57
(g78
g59
NtRp834
(dp835
g62
(dp836
g89
g90
ssg71
g825
sg64
(lp837
S':'
asbag57
(g78
g59
NtRp838
(dp839
g62
(dp840
sg71
g825
sg64
(lp841
g57
(g58
g59
NtRp842
(dp843
g62
(dp844
g70
I4
ssg71
g838
sg64
(lp845
S'127.0.0.1-c8e186f8-735f-483e-9656-57e94bd318d4'
p846
ag57
(g66
g59
NtRp847
(dp848
g62
(dp849
g70
I3
ssg71
Nsg64
(lp850
g57
(g73
g59
NtRp851
(dp852
g62
(dp853
sg71
g847
sg64
(lp854
g57
(g78
g59
NtRp855
(dp856
g62
(dp857
g82
g83
ssg71
g851
sg64
(lp858
g293
asbag57
(g78
g59
NtRp859
(dp860
g62
(dp861
g89
g90
ssg71
g851
sg64
(lp862
S':'
asbag57
(g78
g59
NtRp863
(dp864
g62
(dp865
sg71
g851
sg64
(lp866
g57
(g58
g59
NtRp867
(dp868
g62
(dp869
g70
I3
ssg71
g863
sg64
(lp870
S''
asbasbasbag57
(g73
g59
NtRp871
(dp872
g62
(dp873
sg71
g847
sg64
(lp874
g57
(g78
g59
NtRp875
(dp876
g62
(dp877
g82
g83
ssg71
g871
sg64
(lp878
g314
asbag57
(g78
g59
NtRp879
(dp880
g62
(dp881
g89
g90
ssg71
g871
sg64
(lp882
S':'
asbag57
(g78
g59
NtRp883
(dp884
g62
(dp885
sg71
g871
sg64
(lp886
g57
(g58
g59
NtRp887
(dp888
g62
(dp889
g70
I3
ssg71
g883
sg64
(lp890
S''
asbasbasbag57
(g73
g59
NtRp891
(dp892
g62
(dp893
sg71
g847
sg64
(lp894
g57
(g78
g59
NtRp895
(dp896
g62
(dp897
g82
g83
ssg71
g891
sg64
(lp898
g335
asbag57
(g78
g59
NtRp899
(dp900
g62
(dp901
g89
g90
ssg71
g891
sg64
(lp902
S':'
asbag57
(g78
g59
NtRp903
(dp904
g62
(dp905
sg71
g891
sg64
(lp906
g57
(g58
g59
NtRp907
(dp908
g62
(dp909
g70
I3
ssg71
g903
sg64
(lp910
S''
asbasbasbag57
(g73
g59
NtRp911
(dp912
g62
(dp913
sg71
g847
sg64
(lp914
g57
(g78
g59
NtRp915
(dp916
g62
(dp917
g82
g83
ssg71
g911
sg64
(lp918
g356
asbag57
(g78
g59
NtRp919
(dp920
g62
(dp921
g89
g90
ssg71
g911
sg64
(lp922
S':'
asbag57
(g78
g59
NtRp923
(dp924
g62
(dp925
sg71
g911
sg64
(lp926
g57
(g58
g59
NtRp927
(dp928
g62
(dp929
g70
I3
ssg71
g923
sg64
(lp930
S''
asbasbasbag57
(g73
g59
NtRp931
(dp932
g62
(dp933
sg71
g847
sg64
(lp934
g57
(g78
g59
NtRp935
(dp936
g62
(dp937
g82
g83
ssg71
g931
sg64
(lp938
g377
asbag57
(g78
g59
NtRp939
(dp940
g62
(dp941
g89
g90
ssg71
g931
sg64
(lp942
S':'
asbag57
(g78
g59
NtRp943
(dp944
g62
(dp945
sg71
g931
sg64
(lp946
g57
(g58
g59
NtRp947
(dp948
g62
(dp949
g70
I3
ssg71
g943
sg64
(lp950
S''
asbasbasbag57
(g73
g59
NtRp951
(dp952
g62
(dp953
sg71
g847
sg64
(lp954
g57
(g78
g59
NtRp955
(dp956
g62
(dp957
g82
g83
ssg71
g951
sg64
(lp958
g398
asbag57
(g78
g59
NtRp959
(dp960
g62
(dp961
g89
g90
ssg71
g951
sg64
(lp962
S':'
asbag57
(g78
g59
NtRp963
(dp964
g62
(dp965
sg71
g951
sg64
(lp966
g57
(g58
g59
NtRp967
(dp968
g62
(dp969
g70
I3
ssg71
g963
sg64
(lp970
S''
asbasbasbag57
(g73
g59
NtRp971
(dp972
g62
(dp973
sg71
g847
sg64
(lp974
g57
(g78
g59
NtRp975
(dp976
g62
(dp977
g82
g83
ssg71
g971
sg64
(lp978
g419
asbag57
(g78
g59
NtRp979
(dp980
g62
(dp981
g89
g90
ssg71
g971
sg64
(lp982
S':'
asbag57
(g78
g59
NtRp983
(dp984
g62
(dp985
sg71
g971
sg64
(lp986
g57
(g58
g59
NtRp987
(dp988
g62
(dp989
g70
I3
ssg71
g983
sg64
(lp990
S''
asbasbasbag57
(g73
g59
NtRp991
(dp992
g62
(dp993
sg71
g847
sg64
(lp994
g57
(g78
g59
NtRp995
(dp996
g62
(dp997
g82
g83
ssg71
g991
sg64
(lp998
g440
asbag57
(g78
g59
NtRp999
(dp1000
g62
(dp1001
g89
g90
ssg71
g991
sg64
(lp1002
S':'
asbag57
(g78
g59
NtRp1003
(dp1004
g62
(dp1005
sg71
g991
sg64
(lp1006
g57
(g58
g59
NtRp1007
(dp1008
g62
(dp1009
g70
I3
ssg71
g1003
sg64
(lp1010
S''
asbasbasbasbasbasbasbag57
(g73
g59
NtRp1011
(dp1012
g62
(dp1013
sg71
g256
sg64
(lp1014
g57
(g78
g59
NtRp1015
(dp1016
g62
(dp1017
g82
g83
ssg71
g1011
sg64
(lp1018
S'size'
p1019
asbag57
(g78
g59
NtRp1020
(dp1021
g62
(dp1022
g89
g90
ssg71
g1011
sg64
(lp1023
S':'
asbag57
(g78
g59
NtRp1024
(dp1025
g62
(dp1026
sg71
g1011
sg64
(lp1027
g57
(g58
g59
NtRp1028
(dp1029
g62
(dp1030
g70
I4
ssg71
g1024
sg64
(lp1031
S'4'
ag57
(g66
g59
NtRp1032
(dp1033
g62
(dp1034
g70
I3
ssg71
Nsg64
(lp1035
g57
(g73
g59
NtRp1036
(dp1037
g62
(dp1038
sg71
g1032
sg64
(lp1039
g57
(g78
g59
NtRp1040
(dp1041
g62
(dp1042
g82
g83
ssg71
g1036
sg64
(lp1043
g293
asbag57
(g78
g59
NtRp1044
(dp1045
g62
(dp1046
g89
g90
ssg71
g1036
sg64
(lp1047
S':'
asbag57
(g78
g59
NtRp1048
(dp1049
g62
(dp1050
sg71
g1036
sg64
(lp1051
g57
(g58
g59
NtRp1052
(dp1053
g62
(dp1054
g70
I3
ssg71
g1048
sg64
(lp1055
S''
asbasbasbag57
(g73
g59
NtRp1056
(dp1057
g62
(dp1058
sg71
g1032
sg64
(lp1059
g57
(g78
g59
NtRp1060
(dp1061
g62
(dp1062
g82
g83
ssg71
g1056
sg64
(lp1063
g314
asbag57
(g78
g59
NtRp1064
(dp1065
g62
(dp1066
g89
g90
ssg71
g1056
sg64
(lp1067
S':'
asbag57
(g78
g59
NtRp1068
(dp1069
g62
(dp1070
sg71
g1056
sg64
(lp1071
g57
(g58
g59
NtRp1072
(dp1073
g62
(dp1074
g70
I3
ssg71
g1068
sg64
(lp1075
S''
asbasbasbag57
(g73
g59
NtRp1076
(dp1077
g62
(dp1078
sg71
g1032
sg64
(lp1079
g57
(g78
g59
NtRp1080
(dp1081
g62
(dp1082
g82
g83
ssg71
g1076
sg64
(lp1083
g335
asbag57
(g78
g59
NtRp1084
(dp1085
g62
(dp1086
g89
g90
ssg71
g1076
sg64
(lp1087
S':'
asbag57
(g78
g59
NtRp1088
(dp1089
g62
(dp1090
sg71
g1076
sg64
(lp1091
g57
(g58
g59
NtRp1092
(dp1093
g62
(dp1094
g70
I3
ssg71
g1088
sg64
(lp1095
S''
asbasbasbag57
(g73
g59
NtRp1096
(dp1097
g62
(dp1098
sg71
g1032
sg64
(lp1099
g57
(g78
g59
NtRp1100
(dp1101
g62
(dp1102
g82
g83
ssg71
g1096
sg64
(lp1103
g356
asbag57
(g78
g59
NtRp1104
(dp1105
g62
(dp1106
g89
g90
ssg71
g1096
sg64
(lp1107
S':'
asbag57
(g78
g59
NtRp1108
(dp1109
g62
(dp1110
sg71
g1096
sg64
(lp1111
g57
(g58
g59
NtRp1112
(dp1113
g62
(dp1114
g70
I3
ssg71
g1108
sg64
(lp1115
S''
asbasbasbag57
(g73
g59
NtRp1116
(dp1117
g62
(dp1118
sg71
g1032
sg64
(lp1119
g57
(g78
g59
NtRp1120
(dp1121
g62
(dp1122
g82
g83
ssg71
g1116
sg64
(lp1123
g377
asbag57
(g78
g59
NtRp1124
(dp1125
g62
(dp1126
g89
g90
ssg71
g1116
sg64
(lp1127
S':'
asbag57
(g78
g59
NtRp1128
(dp1129
g62
(dp1130
sg71
g1116
sg64
(lp1131
g57
(g58
g59
NtRp1132
(dp1133
g62
(dp1134
g70
I3
ssg71
g1128
sg64
(lp1135
S''
asbasbasbag57
(g73
g59
NtRp1136
(dp1137
g62
(dp1138
sg71
g1032
sg64
(lp1139
g57
(g78
g59
NtRp1140
(dp1141
g62
(dp1142
g82
g83
ssg71
g1136
sg64
(lp1143
g398
asbag57
(g78
g59
NtRp1144
(dp1145
g62
(dp1146
g89
g90
ssg71
g1136
sg64
(lp1147
S':'
asbag57
(g78
g59
NtRp1148
(dp1149
g62
(dp1150
sg71
g1136
sg64
(lp1151
g57
(g58
g59
NtRp1152
(dp1153
g62
(dp1154
g70
I3
ssg71
g1148
sg64
(lp1155
S''
asbasbasbag57
(g73
g59
NtRp1156
(dp1157
g62
(dp1158
sg71
g1032
sg64
(lp1159
g57
(g78
g59
NtRp1160
(dp1161
g62
(dp1162
g82
g83
ssg71
g1156
sg64
(lp1163
g419
asbag57
(g78
g59
NtRp1164
(dp1165
g62
(dp1166
g89
g90
ssg71
g1156
sg64
(lp1167
S':'
asbag57
(g78
g59
NtRp1168
(dp1169
g62
(dp1170
sg71
g1156
sg64
(lp1171
g57
(g58
g59
NtRp1172
(dp1173
g62
(dp1174
g70
I3
ssg71
g1168
sg64
(lp1175
S''
asbasbasbag57
(g73
g59
NtRp1176
(dp1177
g62
(dp1178
sg71
g1032
sg64
(lp1179
g57
(g78
g59
NtRp1180
(dp1181
g62
(dp1182
g82
g83
ssg71
g1176
sg64
(lp1183
g440
asbag57
(g78
g59
NtRp1184
(dp1185
g62
(dp1186
g89
g90
ssg71
g1176
sg64
(lp1187
S':'
asbag57
(g78
g59
NtRp1188
(dp1189
g62
(dp1190
sg71
g1176
sg64
(lp1191
g57
(g58
g59
NtRp1192
(dp1193
g62
(dp1194
g70
I3
ssg71
g1188
sg64
(lp1195
S''
asbasbasbasbasbasbasbasbasbasbasbag57
(g73
g59
NtRp1196
(dp1197
g62
(dp1198
sg71
g67
sg64
(lp1199
g57
(g78
g59
NtRp1200
(dp1201
g62
(dp1202
g82
g83
ssg71
g1196
sg64
(lp1203
S'env'
p1204
asbag57
(g78
g59
NtRp1205
(dp1206
g62
(dp1207
g89
g90
ssg71
g1196
sg64
(lp1208
S':'
asbag57
(g78
g59
NtRp1209
(dp1210
g62
(dp1211
sg71
g1196
sg64
(lp1212
g57
(g58
g59
NtRp1213
(dp1214
g62
(dp1215
g70
I5
ssg71
g1209
sg64
(lp1216
g57
(g66
g59
NtRp1217
(dp1218
g62
(dp1219
g70
I4
ssg71
Nsg64
(lp1220
g57
(g73
g59
NtRp1221
(dp1222
g62
(dp1223
sg71
g1217
sg64
(lp1224
g57
(g78
g59
NtRp1225
(dp1226
g62
(dp1227
g82
g83
ssg71
g1221
sg64
(lp1228
S'app_folders'
p1229
asbag57
(g78
g59
NtRp1230
(dp1231
g62
(dp1232
g89
g90
ssg71
g1221
sg64
(lp1233
S':'
asbag57
(g78
g59
NtRp1234
(dp1235
g62
(dp1236
sg71
g1221
sg64
(lp1237
g57
(g58
g59
NtRp1238
(dp1239
g62
(dp1240
g70
I4
ssg71
g1234
sg64
(lp1241
S"set(['/home/emp2web/webcast/web2py/applications/examples/', '/home/emp2web/webcast/web2py/applications/welcome/', '/home/emp2web/webcast/web2py/applications/admin/', '/home/emp2web/webcast/web2py/applications/proyectos/'])"
p1242
asbasbasbag57
(g73
g59
NtRp1243
(dp1244
g62
(dp1245
sg71
g1217
sg64
(lp1246
g57
(g78
g59
NtRp1247
(dp1248
g62
(dp1249
g82
g83
ssg71
g1243
sg64
(lp1250
S'applications_parent'
p1251
asbag57
(g78
g59
NtRp1252
(dp1253
g62
(dp1254
g89
g90
ssg71
g1243
sg64
(lp1255
S':'
asbag57
(g78
g59
NtRp1256
(dp1257
g62
(dp1258
sg71
g1243
sg64
(lp1259
g57
(g58
g59
NtRp1260
(dp1261
g62
(dp1262
g70
I4
ssg71
g1256
sg64
(lp1263
S'/home/emp2web/webcast/web2py'
p1264
asbasbasbag57
(g73
g59
NtRp1265
(dp1266
g62
(dp1267
sg71
g1217
sg64
(lp1268
g57
(g78
g59
NtRp1269
(dp1270
g62
(dp1271
g82
g83
ssg71
g1265
sg64
(lp1272
S'cmd_args'
p1273
asbag57
(g78
g59
NtRp1274
(dp1275
g62
(dp1276
g89
g90
ssg71
g1265
sg64
(lp1277
S':'
asbag57
(g78
g59
NtRp1278
(dp1279
g62
(dp1280
sg71
g1265
sg64
(lp1281
g57
(g58
g59
NtRp1282
(dp1283
g62
(dp1284
g70
I4
ssg71
g1278
sg64
(lp1285
g57
(g66
g59
NtRp1286
(dp1287
g62
(dp1288
g70
I3
ssg71
Nsg64
(lp1289
sbasbasbasbag57
(g73
g59
NtRp1290
(dp1291
g62
(dp1292
sg71
g1217
sg64
(lp1293
g57
(g78
g59
NtRp1294
(dp1295
g62
(dp1296
g82
g83
ssg71
g1290
sg64
(lp1297
S'cmd_options'
p1298
asbag57
(g78
g59
NtRp1299
(dp1300
g62
(dp1301
g89
g90
ssg71
g1290
sg64
(lp1302
S':'
asbag57
(g78
g59
NtRp1303
(dp1304
g62
(dp1305
sg71
g1290
sg64
(lp1306
g57
(g58
g59
NtRp1307
(dp1308
g62
(dp1309
g70
I4
ssg71
g1303
sg64
(lp1310
S"<Values at 0xa03ad8c: {'verbose': False, 'ip': '127.0.0.1', 'with_scheduler': False, 'ips': ['127.0.1.1'], 'shutdown_timeout': 5, 'taskbar': False, 'port': 8000, 'maxthreads': None, 'softcron': False, 'server_name': 'emp2web-300E4A-300E5A-300E7A-3430EA-3530EA', 'bpython': False, 'nogui': False, 'nocron': False, 'extcron': False, 'run_system_tests': False, 'test': None, 'folder': '/home/emp2web/webcast/web2py', 'config': '', 'import_models': False, 'winservice': '', 'shell': None, 'run': '', 'log_filename': 'httpserver.log', 'debuglevel': 30, 'args': [''], 'socket_timeout': 5, 'ssl_ca_certificate': None, 'scheduler': None, 'profiler_filename': None, 'ssl_private_key': '', 'scheduler_groups': None, 'password': 'web2py', 'request_queue_size': 5, 'ssl_certificate': '', 'cronjob': False, 'numthreads': None, 'quiet': False, 'interfaces': None, 'minthreads': None, 'timeout': 10, 'plain': False, 'nobanner': False, 'pid_filename': 'httpserver.pid'}>"
p1311
asbasbasbag57
(g73
g59
NtRp1312
(dp1313
g62
(dp1314
sg71
g1217
sg64
(lp1315
g57
(g78
g59
NtRp1316
(dp1317
g62
(dp1318
g82
g83
ssg71
g1312
sg64
(lp1319
S'db_sessions'
p1320
asbag57
(g78
g59
NtRp1321
(dp1322
g62
(dp1323
g89
g90
ssg71
g1312
sg64
(lp1324
S':'
asbag57
(g78
g59
NtRp1325
(dp1326
g62
(dp1327
sg71
g1312
sg64
(lp1328
g57
(g58
g59
NtRp1329
(dp1330
g62
(dp1331
g70
I4
ssg71
g1325
sg64
(lp1332
S'set([])'
p1333
asbasbasbag57
(g73
g59
NtRp1334
(dp1335
g62
(dp1336
sg71
g1217
sg64
(lp1337
g57
(g78
g59
NtRp1338
(dp1339
g62
(dp1340
g82
g83
ssg71
g1334
sg64
(lp1341
S'debugging'
p1342
asbag57
(g78
g59
NtRp1343
(dp1344
g62
(dp1345
g89
g90
ssg71
g1334
sg64
(lp1346
S':'
asbag57
(g78
g59
NtRp1347
(dp1348
g62
(dp1349
sg71
g1334
sg64
(lp1350
g57
(g58
g59
NtRp1351
(dp1352
g62
(dp1353
g70
I4
ssg71
g1347
sg64
(lp1354
g100
asbasbasbag57
(g73
g59
NtRp1355
(dp1356
g62
(dp1357
sg71
g1217
sg64
(lp1358
g57
(g78
g59
NtRp1359
(dp1360
g62
(dp1361
g82
g83
ssg71
g1355
sg64
(lp1362
S'gluon_parent'
p1363
asbag57
(g78
g59
NtRp1364
(dp1365
g62
(dp1366
g89
g90
ssg71
g1355
sg64
(lp1367
S':'
asbag57
(g78
g59
NtRp1368
(dp1369
g62
(dp1370
sg71
g1355
sg64
(lp1371
g57
(g58
g59
NtRp1372
(dp1373
g62
(dp1374
g70
I4
ssg71
g1368
sg64
(lp1375
S'/home/emp2web/webcast/web2py'
p1376
asbasbasbag57
(g73
g59
NtRp1377
(dp1378
g62
(dp1379
sg71
g1217
sg64
(lp1380
g57
(g78
g59
NtRp1381
(dp1382
g62
(dp1383
g82
g83
ssg71
g1377
sg64
(lp1384
S'http_accept'
p1385
asbag57
(g78
g59
NtRp1386
(dp1387
g62
(dp1388
g89
g90
ssg71
g1377
sg64
(lp1389
S':'
asbag57
(g78
g59
NtRp1390
(dp1391
g62
(dp1392
sg71
g1377
sg64
(lp1393
g57
(g58
g59
NtRp1394
(dp1395
g62
(dp1396
g70
I4
ssg71
g1390
sg64
(lp1397
S'text/html,application/xhtml+xml,application/xml;q=0.9,*/*;q=0.8'
p1398
asbasbasbag57
(g73
g59
NtRp1399
(dp1400
g62
(dp1401
sg71
g1217
sg64
(lp1402
g57
(g78
g59
NtRp1403
(dp1404
g62
(dp1405
g82
g83
ssg71
g1399
sg64
(lp1406
S'http_accept_charset'
p1407
asbag57
(g78
g59
NtRp1408
(dp1409
g62
(dp1410
g89
g90
ssg71
g1399
sg64
(lp1411
S':'
asbag57
(g78
g59
NtRp1412
(dp1413
g62
(dp1414
sg71
g1399
sg64
(lp1415
g57
(g58
g59
NtRp1416
(dp1417
g62
(dp1418
g70
I4
ssg71
g1412
sg64
(lp1419
S'ISO-8859-1,utf-8;q=0.7,*;q=0.3'
p1420
asbasbasbag57
(g73
g59
NtRp1421
(dp1422
g62
(dp1423
sg71
g1217
sg64
(lp1424
g57
(g78
g59
NtRp1425
(dp1426
g62
(dp1427
g82
g83
ssg71
g1421
sg64
(lp1428
S'http_accept_encoding'
p1429
asbag57
(g78
g59
NtRp1430
(dp1431
g62
(dp1432
g89
g90
ssg71
g1421
sg64
(lp1433
S':'
asbag57
(g78
g59
NtRp1434
(dp1435
g62
(dp1436
sg71
g1421
sg64
(lp1437
g57
(g58
g59
NtRp1438
(dp1439
g62
(dp1440
g70
I4
ssg71
g1434
sg64
(lp1441
S'gzip,deflate,sdch'
p1442
asbasbasbag57
(g73
g59
NtRp1443
(dp1444
g62
(dp1445
sg71
g1217
sg64
(lp1446
g57
(g78
g59
NtRp1447
(dp1448
g62
(dp1449
g82
g83
ssg71
g1443
sg64
(lp1450
S'http_accept_language'
p1451
asbag57
(g78
g59
NtRp1452
(dp1453
g62
(dp1454
g89
g90
ssg71
g1443
sg64
(lp1455
S':'
asbag57
(g78
g59
NtRp1456
(dp1457
g62
(dp1458
sg71
g1443
sg64
(lp1459
g57
(g58
g59
NtRp1460
(dp1461
g62
(dp1462
g70
I4
ssg71
g1456
sg64
(lp1463
S'es-ES,es;q=0.8'
p1464
asbasbasbag57
(g73
g59
NtRp1465
(dp1466
g62
(dp1467
sg71
g1217
sg64
(lp1468
g57
(g78
g59
NtRp1469
(dp1470
g62
(dp1471
g82
g83
ssg71
g1465
sg64
(lp1472
S'http_connection'
p1473
asbag57
(g78
g59
NtRp1474
(dp1475
g62
(dp1476
g89
g90
ssg71
g1465
sg64
(lp1477
S':'
asbag57
(g78
g59
NtRp1478
(dp1479
g62
(dp1480
sg71
g1465
sg64
(lp1481
g57
(g58
g59
NtRp1482
(dp1483
g62
(dp1484
g70
I4
ssg71
g1478
sg64
(lp1485
S'keep-alive'
p1486
asbasbasbag57
(g73
g59
NtRp1487
(dp1488
g62
(dp1489
sg71
g1217
sg64
(lp1490
g57
(g78
g59
NtRp1491
(dp1492
g62
(dp1493
g82
g83
ssg71
g1487
sg64
(lp1494
S'http_cookie'
p1495
asbag57
(g78
g59
NtRp1496
(dp1497
g62
(dp1498
g89
g90
ssg71
g1487
sg64
(lp1499
S':'
asbag57
(g78
g59
NtRp1500
(dp1501
g62
(dp1502
sg71
g1487
sg64
(lp1503
g57
(g58
g59
NtRp1504
(dp1505
g62
(dp1506
g70
I4
ssg71
g1500
sg64
(lp1507
S'size=4; CP.mode=B; session_id_welcome=127.0.0.1-c8e186f8-735f-483e-9656-57e94bd318d4; session_id_admin=127.0.0.1-59d830b7-3426-4408-b007-2063f315657f; session_id_proyectos=127.0.0.1-be82b3d9-4d64-4bfc-8d3a-c456e8044ba2'
p1508
asbasbasbag57
(g73
g59
NtRp1509
(dp1510
g62
(dp1511
sg71
g1217
sg64
(lp1512
g57
(g78
g59
NtRp1513
(dp1514
g62
(dp1515
g82
g83
ssg71
g1509
sg64
(lp1516
S'http_host'
p1517
asbag57
(g78
g59
NtRp1518
(dp1519
g62
(dp1520
g89
g90
ssg71
g1509
sg64
(lp1521
S':'
asbag57
(g78
g59
NtRp1522
(dp1523
g62
(dp1524
sg71
g1509
sg64
(lp1525
g57
(g58
g59
NtRp1526
(dp1527
g62
(dp1528
g70
I4
ssg71
g1522
sg64
(lp1529
S'localhost:8000'
p1530
asbasbasbag57
(g73
g59
NtRp1531
(dp1532
g62
(dp1533
sg71
g1217
sg64
(lp1534
g57
(g78
g59
NtRp1535
(dp1536
g62
(dp1537
g82
g83
ssg71
g1531
sg64
(lp1538
S'http_referer'
p1539
asbag57
(g78
g59
NtRp1540
(dp1541
g62
(dp1542
g89
g90
ssg71
g1531
sg64
(lp1543
S':'
asbag57
(g78
g59
NtRp1544
(dp1545
g62
(dp1546
sg71
g1531
sg64
(lp1547
g57
(g58
g59
NtRp1548
(dp1549
g62
(dp1550
g70
I4
ssg71
g1544
sg64
(lp1551
S'http://localhost:8000/proyectos/configuracion/clientes'
p1552
asbasbasbag57
(g73
g59
NtRp1553
(dp1554
g62
(dp1555
sg71
g1217
sg64
(lp1556
g57
(g78
g59
NtRp1557
(dp1558
g62
(dp1559
g82
g83
ssg71
g1553
sg64
(lp1560
S'http_user_agent'
p1561
asbag57
(g78
g59
NtRp1562
(dp1563
g62
(dp1564
g89
g90
ssg71
g1553
sg64
(lp1565
S':'
asbag57
(g78
g59
NtRp1566
(dp1567
g62
(dp1568
sg71
g1553
sg64
(lp1569
g57
(g58
g59
NtRp1570
(dp1571
g62
(dp1572
g70
I4
ssg71
g1566
sg64
(lp1573
S'Mozilla/5.0 (X11; Linux i686) AppleWebKit/535.19 (KHTML, like Gecko) Ubuntu/12.04 Chromium/18.0.1025.151 Chrome/18.0.1025.151 Safari/535.19'
p1574
asbasbasbag57
(g73
g59
NtRp1575
(dp1576
g62
(dp1577
sg71
g1217
sg64
(lp1578
g57
(g78
g59
NtRp1579
(dp1580
g62
(dp1581
g82
g83
ssg71
g1575
sg64
(lp1582
S'is_jython'
p1583
asbag57
(g78
g59
NtRp1584
(dp1585
g62
(dp1586
g89
g90
ssg71
g1575
sg64
(lp1587
S':'
asbag57
(g78
g59
NtRp1588
(dp1589
g62
(dp1590
sg71
g1575
sg64
(lp1591
g57
(g58
g59
NtRp1592
(dp1593
g62
(dp1594
g70
I4
ssg71
g1588
sg64
(lp1595
g100
asbasbasbag57
(g73
g59
NtRp1596
(dp1597
g62
(dp1598
sg71
g1217
sg64
(lp1599
g57
(g78
g59
NtRp1600
(dp1601
g62
(dp1602
g82
g83
ssg71
g1596
sg64
(lp1603
S'is_pypy'
p1604
asbag57
(g78
g59
NtRp1605
(dp1606
g62
(dp1607
g89
g90
ssg71
g1596
sg64
(lp1608
S':'
asbag57
(g78
g59
NtRp1609
(dp1610
g62
(dp1611
sg71
g1596
sg64
(lp1612
g57
(g58
g59
NtRp1613
(dp1614
g62
(dp1615
g70
I4
ssg71
g1609
sg64
(lp1616
g100
asbasbasbag57
(g73
g59
NtRp1617
(dp1618
g62
(dp1619
sg71
g1217
sg64
(lp1620
g57
(g78
g59
NtRp1621
(dp1622
g62
(dp1623
g82
g83
ssg71
g1617
sg64
(lp1624
S'path_info'
p1625
asbag57
(g78
g59
NtRp1626
(dp1627
g62
(dp1628
g89
g90
ssg71
g1617
sg64
(lp1629
S':'
asbag57
(g78
g59
NtRp1630
(dp1631
g62
(dp1632
sg71
g1617
sg64
(lp1633
g57
(g58
g59
NtRp1634
(dp1635
g62
(dp1636
g70
I4
ssg71
g1630
sg64
(lp1637
S'/proyectos/configuracion/proyectos'
p1638
asbasbasbag57
(g73
g59
NtRp1639
(dp1640
g62
(dp1641
sg71
g1217
sg64
(lp1642
g57
(g78
g59
NtRp1643
(dp1644
g62
(dp1645
g82
g83
ssg71
g1639
sg64
(lp1646
S'query_string'
p1647
asbag57
(g78
g59
NtRp1648
(dp1649
g62
(dp1650
g89
g90
ssg71
g1639
sg64
(lp1651
S':'
asbag57
(g78
g59
NtRp1652
(dp1653
g62
(dp1654
sg71
g1639
sg64
(lp1655
g57
(g58
g59
NtRp1656
(dp1657
g62
(dp1658
g70
I4
ssg71
g1652
sg64
(lp1659
S''
asbasbasbag57
(g73
g59
NtRp1660
(dp1661
g62
(dp1662
sg71
g1217
sg64
(lp1663
g57
(g78
g59
NtRp1664
(dp1665
g62
(dp1666
g82
g83
ssg71
g1660
sg64
(lp1667
S'remote_addr'
p1668
asbag57
(g78
g59
NtRp1669
(dp1670
g62
(dp1671
g89
g90
ssg71
g1660
sg64
(lp1672
S':'
asbag57
(g78
g59
NtRp1673
(dp1674
g62
(dp1675
sg71
g1660
sg64
(lp1676
g57
(g58
g59
NtRp1677
(dp1678
g62
(dp1679
g70
I4
ssg71
g1673
sg64
(lp1680
g212
asbasbasbag57
(g73
g59
NtRp1681
(dp1682
g62
(dp1683
sg71
g1217
sg64
(lp1684
g57
(g78
g59
NtRp1685
(dp1686
g62
(dp1687
g82
g83
ssg71
g1681
sg64
(lp1688
S'remote_port'
p1689
asbag57
(g78
g59
NtRp1690
(dp1691
g62
(dp1692
g89
g90
ssg71
g1681
sg64
(lp1693
S':'
asbag57
(g78
g59
NtRp1694
(dp1695
g62
(dp1696
sg71
g1681
sg64
(lp1697
g57
(g58
g59
NtRp1698
(dp1699
g62
(dp1700
g70
I4
ssg71
g1694
sg64
(lp1701
S'36859'
p1702
asbasbasbag57
(g73
g59
NtRp1703
(dp1704
g62
(dp1705
sg71
g1217
sg64
(lp1706
g57
(g78
g59
NtRp1707
(dp1708
g62
(dp1709
g82
g83
ssg71
g1703
sg64
(lp1710
S'request_method'
p1711
asbag57
(g78
g59
NtRp1712
(dp1713
g62
(dp1714
g89
g90
ssg71
g1703
sg64
(lp1715
S':'
asbag57
(g78
g59
NtRp1716
(dp1717
g62
(dp1718
sg71
g1703
sg64
(lp1719
g57
(g58
g59
NtRp1720
(dp1721
g62
(dp1722
g70
I4
ssg71
g1716
sg64
(lp1723
S'GET'
p1724
asbasbasbag57
(g73
g59
NtRp1725
(dp1726
g62
(dp1727
sg71
g1217
sg64
(lp1728
g57
(g78
g59
NtRp1729
(dp1730
g62
(dp1731
g82
g83
ssg71
g1725
sg64
(lp1732
S'request_uri'
p1733
asbag57
(g78
g59
NtRp1734
(dp1735
g62
(dp1736
g89
g90
ssg71
g1725
sg64
(lp1737
S':'
asbag57
(g78
g59
NtRp1738
(dp1739
g62
(dp1740
sg71
g1725
sg64
(lp1741
g57
(g58
g59
NtRp1742
(dp1743
g62
(dp1744
g70
I4
ssg71
g1738
sg64
(lp1745
g1638
asbasbasbag57
(g73
g59
NtRp1746
(dp1747
g62
(dp1748
sg71
g1217
sg64
(lp1749
g57
(g78
g59
NtRp1750
(dp1751
g62
(dp1752
g82
g83
ssg71
g1746
sg64
(lp1753
S'script_name'
p1754
asbag57
(g78
g59
NtRp1755
(dp1756
g62
(dp1757
g89
g90
ssg71
g1746
sg64
(lp1758
S':'
asbag57
(g78
g59
NtRp1759
(dp1760
g62
(dp1761
sg71
g1746
sg64
(lp1762
g57
(g58
g59
NtRp1763
(dp1764
g62
(dp1765
g70
I4
ssg71
g1759
sg64
(lp1766
S''
asbasbasbag57
(g73
g59
NtRp1767
(dp1768
g62
(dp1769
sg71
g1217
sg64
(lp1770
g57
(g78
g59
NtRp1771
(dp1772
g62
(dp1773
g82
g83
ssg71
g1767
sg64
(lp1774
S'server_name'
p1775
asbag57
(g78
g59
NtRp1776
(dp1777
g62
(dp1778
g89
g90
ssg71
g1767
sg64
(lp1779
S':'
asbag57
(g78
g59
NtRp1780
(dp1781
g62
(dp1782
sg71
g1767
sg64
(lp1783
g57
(g58
g59
NtRp1784
(dp1785
g62
(dp1786
g70
I4
ssg71
g1780
sg64
(lp1787
S'emp2web-300E4A-300E5A-300E7A-3430EA-3530EA'
p1788
asbasbasbag57
(g73
g59
NtRp1789
(dp1790
g62
(dp1791
sg71
g1217
sg64
(lp1792
g57
(g78
g59
NtRp1793
(dp1794
g62
(dp1795
g82
g83
ssg71
g1789
sg64
(lp1796
S'server_port'
p1797
asbag57
(g78
g59
NtRp1798
(dp1799
g62
(dp1800
g89
g90
ssg71
g1789
sg64
(lp1801
S':'
asbag57
(g78
g59
NtRp1802
(dp1803
g62
(dp1804
sg71
g1789
sg64
(lp1805
g57
(g58
g59
NtRp1806
(dp1807
g62
(dp1808
g70
I4
ssg71
g1802
sg64
(lp1809
S'8000'
p1810
asbasbasbag57
(g73
g59
NtRp1811
(dp1812
g62
(dp1813
sg71
g1217
sg64
(lp1814
g57
(g78
g59
NtRp1815
(dp1816
g62
(dp1817
g82
g83
ssg71
g1811
sg64
(lp1818
S'server_protocol'
p1819
asbag57
(g78
g59
NtRp1820
(dp1821
g62
(dp1822
g89
g90
ssg71
g1811
sg64
(lp1823
S':'
asbag57
(g78
g59
NtRp1824
(dp1825
g62
(dp1826
sg71
g1811
sg64
(lp1827
g57
(g58
g59
NtRp1828
(dp1829
g62
(dp1830
g70
I4
ssg71
g1824
sg64
(lp1831
S'HTTP/1.1'
p1832
asbasbasbag57
(g73
g59
NtRp1833
(dp1834
g62
(dp1835
sg71
g1217
sg64
(lp1836
g57
(g78
g59
NtRp1837
(dp1838
g62
(dp1839
g82
g83
ssg71
g1833
sg64
(lp1840
S'server_software'
p1841
asbag57
(g78
g59
NtRp1842
(dp1843
g62
(dp1844
g89
g90
ssg71
g1833
sg64
(lp1845
S':'
asbag57
(g78
g59
NtRp1846
(dp1847
g62
(dp1848
sg71
g1833
sg64
(lp1849
g57
(g58
g59
NtRp1850
(dp1851
g62
(dp1852
g70
I4
ssg71
g1846
sg64
(lp1853
S'Rocket 1.2.4'
p1854
asbasbasbag57
(g73
g59
NtRp1855
(dp1856
g62
(dp1857
sg71
g1217
sg64
(lp1858
g57
(g78
g59
NtRp1859
(dp1860
g62
(dp1861
g82
g83
ssg71
g1855
sg64
(lp1862
S'web2py_crontype'
p1863
asbag57
(g78
g59
NtRp1864
(dp1865
g62
(dp1866
g89
g90
ssg71
g1855
sg64
(lp1867
S':'
asbag57
(g78
g59
NtRp1868
(dp1869
g62
(dp1870
sg71
g1855
sg64
(lp1871
g57
(g58
g59
NtRp1872
(dp1873
g62
(dp1874
g70
I4
ssg71
g1868
sg64
(lp1875
S'hard'
p1876
asbasbasbag57
(g73
g59
NtRp1877
(dp1878
g62
(dp1879
sg71
g1217
sg64
(lp1880
g57
(g78
g59
NtRp1881
(dp1882
g62
(dp1883
g82
g83
ssg71
g1877
sg64
(lp1884
S'web2py_path'
p1885
asbag57
(g78
g59
NtRp1886
(dp1887
g62
(dp1888
g89
g90
ssg71
g1877
sg64
(lp1889
S':'
asbag57
(g78
g59
NtRp1890
(dp1891
g62
(dp1892
sg71
g1877
sg64
(lp1893
g57
(g58
g59
NtRp1894
(dp1895
g62
(dp1896
g70
I4
ssg71
g1890
sg64
(lp1897
g1264
asbasbasbag57
(g73
g59
NtRp1898
(dp1899
g62
(dp1900
sg71
g1217
sg64
(lp1901
g57
(g78
g59
NtRp1902
(dp1903
g62
(dp1904
g82
g83
ssg71
g1898
sg64
(lp1905
S'web2py_version'
p1906
asbag57
(g78
g59
NtRp1907
(dp1908
g62
(dp1909
g89
g90
ssg71
g1898
sg64
(lp1910
S':'
asbag57
(g78
g59
NtRp1911
(dp1912
g62
(dp1913
sg71
g1898
sg64
(lp1914
g57
(g58
g59
NtRp1915
(dp1916
g62
(dp1917
g70
I4
ssg71
g1911
sg64
(lp1918
g57
(g66
g59
NtRp1919
(dp1920
g62
(dp1921
g70
I3
ssg71
Nsg64
(lp1922
g57
(g73
g59
NtRp1923
(dp1924
g62
(dp1925
sg71
g1919
sg64
(lp1926
g57
(g78
g59
NtRp1927
(dp1928
g62
(dp1929
sg71
g1923
sg64
(lp1930
g57
(g58
g59
NtRp1931
(dp1932
g62
(dp1933
g70
I3
ssg71
g1927
sg64
(lp1934
S'2'
asbasbasbag57
(g73
g59
NtRp1935
(dp1936
g62
(dp1937
sg71
g1919
sg64
(lp1938
g57
(g78
g59
NtRp1939
(dp1940
g62
(dp1941
sg71
g1935
sg64
(lp1942
g57
(g58
g59
NtRp1943
(dp1944
g62
(dp1945
g70
I3
ssg71
g1939
sg64
(lp1946
S'0'
asbasbasbag57
(g73
g59
NtRp1947
(dp1948
g62
(dp1949
sg71
g1919
sg64
(lp1950
g57
(g78
g59
NtRp1951
(dp1952
g62
(dp1953
sg71
g1947
sg64
(lp1954
g57
(g58
g59
NtRp1955
(dp1956
g62
(dp1957
g70
I3
ssg71
g1951
sg64
(lp1958
S'6'
asbasbasbag57
(g73
g59
NtRp1959
(dp1960
g62
(dp1961
sg71
g1919
sg64
(lp1962
g57
(g78
g59
NtRp1963
(dp1964
g62
(dp1965
sg71
g1959
sg64
(lp1966
g57
(g58
g59
NtRp1967
(dp1968
g62
(dp1969
g70
I3
ssg71
g1963
sg64
(lp1970
S'datetime.datetime(2012, 9, 2, 4, 44, 23)'
p1971
asbasbasbag57
(g73
g59
NtRp1972
(dp1973
g62
(dp1974
sg71
g1919
sg64
(lp1975
g57
(g78
g59
NtRp1976
(dp1977
g62
(dp1978
sg71
g1972
sg64
(lp1979
g57
(g58
g59
NtRp1980
(dp1981
g62
(dp1982
g70
I3
ssg71
g1976
sg64
(lp1983
S'stable'
p1984
asbasbasbasbasbasbasbag57
(g73
g59
NtRp1985
(dp1986
g62
(dp1987
sg71
g1217
sg64
(lp1988
g57
(g78
g59
NtRp1989
(dp1990
g62
(dp1991
g82
g83
ssg71
g1985
sg64
(lp1992
S'wsgi_errors'
p1993
asbag57
(g78
g59
NtRp1994
(dp1995
g62
(dp1996
g89
g90
ssg71
g1985
sg64
(lp1997
S':'
asbag57
(g78
g59
NtRp1998
(dp1999
g62
(dp2000
sg71
g1985
sg64
(lp2001
g57
(g58
g59
NtRp2002
(dp2003
g62
(dp2004
g70
I4
ssg71
g1998
sg64
(lp2005
S"<open file '<stderr>', mode 'w' at 0xb72ca0d0>"
p2006
asbasbasbag57
(g73
g59
NtRp2007
(dp2008
g62
(dp2009
sg71
g1217
sg64
(lp2010
g57
(g78
g59
NtRp2011
(dp2012
g62
(dp2013
g82
g83
ssg71
g2007
sg64
(lp2014
S'wsgi_file_wrapper'
p2015
asbag57
(g78
g59
NtRp2016
(dp2017
g62
(dp2018
g89
g90
ssg71
g2007
sg64
(lp2019
S':'
asbag57
(g78
g59
NtRp2020
(dp2021
g62
(dp2022
sg71
g2007
sg64
(lp2023
g57
(g58
g59
NtRp2024
(dp2025
g62
(dp2026
g70
I4
ssg71
g2020
sg64
(lp2027
S'<class wsgiref.util.FileWrapper at 0xa00e02c>'
p2028
asbasbasbag57
(g73
g59
NtRp2029
(dp2030
g62
(dp2031
sg71
g1217
sg64
(lp2032
g57
(g78
g59
NtRp2033
(dp2034
g62
(dp2035
g82
g83
ssg71
g2029
sg64
(lp2036
S'wsgi_input'
p2037
asbag57
(g78
g59
NtRp2038
(dp2039
g62
(dp2040
g89
g90
ssg71
g2029
sg64
(lp2041
S':'
asbag57
(g78
g59
NtRp2042
(dp2043
g62
(dp2044
sg71
g2029
sg64
(lp2045
g57
(g58
g59
NtRp2046
(dp2047
g62
(dp2048
g70
I4
ssg71
g2042
sg64
(lp2049
S'<socket._fileobject object at 0xa4aec6c>'
p2050
asbasbasbag57
(g73
g59
NtRp2051
(dp2052
g62
(dp2053
sg71
g1217
sg64
(lp2054
g57
(g78
g59
NtRp2055
(dp2056
g62
(dp2057
g82
g83
ssg71
g2051
sg64
(lp2058
S'wsgi_multiprocess'
p2059
asbag57
(g78
g59
NtRp2060
(dp2061
g62
(dp2062
g89
g90
ssg71
g2051
sg64
(lp2063
S':'
asbag57
(g78
g59
NtRp2064
(dp2065
g62
(dp2066
sg71
g2051
sg64
(lp2067
g57
(g58
g59
NtRp2068
(dp2069
g62
(dp2070
g70
I4
ssg71
g2064
sg64
(lp2071
g100
asbasbasbag57
(g73
g59
NtRp2072
(dp2073
g62
(dp2074
sg71
g1217
sg64
(lp2075
g57
(g78
g59
NtRp2076
(dp2077
g62
(dp2078
g82
g83
ssg71
g2072
sg64
(lp2079
S'wsgi_multithread'
p2080
asbag57
(g78
g59
NtRp2081
(dp2082
g62
(dp2083
g89
g90
ssg71
g2072
sg64
(lp2084
S':'
asbag57
(g78
g59
NtRp2085
(dp2086
g62
(dp2087
sg71
g2072
sg64
(lp2088
g57
(g58
g59
NtRp2089
(dp2090
g62
(dp2091
g70
I4
ssg71
g2085
sg64
(lp2092
S'True'
p2093
asbasbasbag57
(g73
g59
NtRp2094
(dp2095
g62
(dp2096
sg71
g1217
sg64
(lp2097
g57
(g78
g59
NtRp2098
(dp2099
g62
(dp2100
g82
g83
ssg71
g2094
sg64
(lp2101
S'wsgi_run_once'
p2102
asbag57
(g78
g59
NtRp2103
(dp2104
g62
(dp2105
g89
g90
ssg71
g2094
sg64
(lp2106
S':'
asbag57
(g78
g59
NtRp2107
(dp2108
g62
(dp2109
sg71
g2094
sg64
(lp2110
g57
(g58
g59
NtRp2111
(dp2112
g62
(dp2113
g70
I4
ssg71
g2107
sg64
(lp2114
g100
asbasbasbag57
(g73
g59
NtRp2115
(dp2116
g62
(dp2117
sg71
g1217
sg64
(lp2118
g57
(g78
g59
NtRp2119
(dp2120
g62
(dp2121
g82
g83
ssg71
g2115
sg64
(lp2122
S'wsgi_url_scheme'
p2123
asbag57
(g78
g59
NtRp2124
(dp2125
g62
(dp2126
g89
g90
ssg71
g2115
sg64
(lp2127
S':'
asbag57
(g78
g59
NtRp2128
(dp2129
g62
(dp2130
sg71
g2115
sg64
(lp2131
g57
(g58
g59
NtRp2132
(dp2133
g62
(dp2134
g70
I4
ssg71
g2128
sg64
(lp2135
S'http'
p2136
asbasbasbag57
(g73
g59
NtRp2137
(dp2138
g62
(dp2139
sg71
g1217
sg64
(lp2140
g57
(g78
g59
NtRp2141
(dp2142
g62
(dp2143
g82
g83
ssg71
g2137
sg64
(lp2144
S'wsgi_version'
p2145
asbag57
(g78
g59
NtRp2146
(dp2147
g62
(dp2148
g89
g90
ssg71
g2137
sg64
(lp2149
S':'
asbag57
(g78
g59
NtRp2150
(dp2151
g62
(dp2152
sg71
g2137
sg64
(lp2153
g57
(g58
g59
NtRp2154
(dp2155
g62
(dp2156
g70
I4
ssg71
g2150
sg64
(lp2157
g57
(g66
g59
NtRp2158
(dp2159
g62
(dp2160
g70
I3
ssg71
Nsg64
(lp2161
g57
(g73
g59
NtRp2162
(dp2163
g62
(dp2164
sg71
g2158
sg64
(lp2165
g57
(g78
g59
NtRp2166
(dp2167
g62
(dp2168
sg71
g2162
sg64
(lp2169
g57
(g58
g59
NtRp2170
(dp2171
g62
(dp2172
g70
I3
ssg71
g2166
sg64
(lp2173
S'1'
asbasbasbag57
(g73
g59
NtRp2174
(dp2175
g62
(dp2176
sg71
g2158
sg64
(lp2177
g57
(g78
g59
NtRp2178
(dp2179
g62
(dp2180
sg71
g2174
sg64
(lp2181
g57
(g58
g59
NtRp2182
(dp2183
g62
(dp2184
g70
I3
ssg71
g2178
sg64
(lp2185
S'0'
asbasbasbasbasbasbasbasbasbasbasbag57
(g73
g59
NtRp2186
(dp2187
g62
(dp2188
sg71
g67
sg64
(lp2189
g57
(g78
g59
NtRp2190
(dp2191
g62
(dp2192
g82
g83
ssg71
g2186
sg64
(lp2193
S'extension'
p2194
asbag57
(g78
g59
NtRp2195
(dp2196
g62
(dp2197
g89
g90
ssg71
g2186
sg64
(lp2198
S':'
asbag57
(g78
g59
NtRp2199
(dp2200
g62
(dp2201
sg71
g2186
sg64
(lp2202
g57
(g58
g59
NtRp2203
(dp2204
g62
(dp2205
g70
I5
ssg71
g2199
sg64
(lp2206
S'html'
p2207
asbasbasbag57
(g73
g59
NtRp2208
(dp2209
g62
(dp2210
sg71
g67
sg64
(lp2211
g57
(g78
g59
NtRp2212
(dp2213
g62
(dp2214
g82
g83
ssg71
g2208
sg64
(lp2215
S'folder'
p2216
asbag57
(g78
g59
NtRp2217
(dp2218
g62
(dp2219
g89
g90
ssg71
g2208
sg64
(lp2220
S':'
asbag57
(g78
g59
NtRp2221
(dp2222
g62
(dp2223
sg71
g2208
sg64
(lp2224
g57
(g58
g59
NtRp2225
(dp2226
g62
(dp2227
g70
I5
ssg71
g2221
sg64
(lp2228
S'/home/emp2web/webcast/web2py/applications/proyectos/'
p2229
asbasbasbag57
(g73
g59
NtRp2230
(dp2231
g62
(dp2232
sg71
g67
sg64
(lp2233
g57
(g78
g59
NtRp2234
(dp2235
g62
(dp2236
g82
g83
ssg71
g2230
sg64
(lp2237
S'function'
p2238
asbag57
(g78
g59
NtRp2239
(dp2240
g62
(dp2241
g89
g90
ssg71
g2230
sg64
(lp2242
S':'
asbag57
(g78
g59
NtRp2243
(dp2244
g62
(dp2245
sg71
g2230
sg64
(lp2246
g57
(g58
g59
NtRp2247
(dp2248
g62
(dp2249
g70
I5
ssg71
g2243
sg64
(lp2250
S'proyectos'
p2251
asbasbasbag57
(g73
g59
NtRp2252
(dp2253
g62
(dp2254
sg71
g67
sg64
(lp2255
g57
(g78
g59
NtRp2256
(dp2257
g62
(dp2258
g82
g83
ssg71
g2252
sg64
(lp2259
S'get_vars'
p2260
asbag57
(g78
g59
NtRp2261
(dp2262
g62
(dp2263
g89
g90
ssg71
g2252
sg64
(lp2264
S':'
asbag57
(g78
g59
NtRp2265
(dp2266
g62
(dp2267
sg71
g2252
sg64
(lp2268
g57
(g58
g59
NtRp2269
(dp2270
g62
(dp2271
g70
I5
ssg71
g2265
sg64
(lp2272
g57
(g66
g59
NtRp2273
(dp2274
g62
(dp2275
g70
I4
ssg71
Nsg64
(lp2276
sbasbasbasbag57
(g73
g59
NtRp2277
(dp2278
g62
(dp2279
sg71
g67
sg64
(lp2280
g57
(g78
g59
NtRp2281
(dp2282
g62
(dp2283
g82
g83
ssg71
g2277
sg64
(lp2284
S'global_settings'
p2285
asbag57
(g78
g59
NtRp2286
(dp2287
g62
(dp2288
g89
g90
ssg71
g2277
sg64
(lp2289
S':'
asbag57
(g78
g59
NtRp2290
(dp2291
g62
(dp2292
sg71
g2277
sg64
(lp2293
g57
(g58
g59
NtRp2294
(dp2295
g62
(dp2296
g70
I5
ssg71
g2290
sg64
(lp2297
g57
(g66
g59
NtRp2298
(dp2299
g62
(dp2300
g70
I4
ssg71
Nsg64
(lp2301
g57
(g73
g59
NtRp2302
(dp2303
g62
(dp2304
sg71
g2298
sg64
(lp2305
g57
(g78
g59
NtRp2306
(dp2307
g62
(dp2308
g82
g83
ssg71
g2302
sg64
(lp2309
g1229
asbag57
(g78
g59
NtRp2310
(dp2311
g62
(dp2312
g89
g90
ssg71
g2302
sg64
(lp2313
S':'
asbag57
(g78
g59
NtRp2314
(dp2315
g62
(dp2316
sg71
g2302
sg64
(lp2317
g57
(g58
g59
NtRp2318
(dp2319
g62
(dp2320
g70
I4
ssg71
g2314
sg64
(lp2321
S"set(['/home/emp2web/webcast/web2py/applications/examples/', '/home/emp2web/webcast/web2py/applications/welcome/', '/home/emp2web/webcast/web2py/applications/admin/', '/home/emp2web/webcast/web2py/applications/proyectos/'])"
p2322
asbasbasbag57
(g73
g59
NtRp2323
(dp2324
g62
(dp2325
sg71
g2298
sg64
(lp2326
g57
(g78
g59
NtRp2327
(dp2328
g62
(dp2329
g82
g83
ssg71
g2323
sg64
(lp2330
g1251
asbag57
(g78
g59
NtRp2331
(dp2332
g62
(dp2333
g89
g90
ssg71
g2323
sg64
(lp2334
S':'
asbag57
(g78
g59
NtRp2335
(dp2336
g62
(dp2337
sg71
g2323
sg64
(lp2338
g57
(g58
g59
NtRp2339
(dp2340
g62
(dp2341
g70
I4
ssg71
g2335
sg64
(lp2342
g1264
asbasbasbag57
(g73
g59
NtRp2343
(dp2344
g62
(dp2345
sg71
g2298
sg64
(lp2346
g57
(g78
g59
NtRp2347
(dp2348
g62
(dp2349
g82
g83
ssg71
g2343
sg64
(lp2350
g1273
asbag57
(g78
g59
NtRp2351
(dp2352
g62
(dp2353
g89
g90
ssg71
g2343
sg64
(lp2354
S':'
asbag57
(g78
g59
NtRp2355
(dp2356
g62
(dp2357
sg71
g2343
sg64
(lp2358
g57
(g58
g59
NtRp2359
(dp2360
g62
(dp2361
g70
I4
ssg71
g2355
sg64
(lp2362
g57
(g66
g59
NtRp2363
(dp2364
g62
(dp2365
g70
I3
ssg71
Nsg64
(lp2366
sbasbasbasbag57
(g73
g59
NtRp2367
(dp2368
g62
(dp2369
sg71
g2298
sg64
(lp2370
g57
(g78
g59
NtRp2371
(dp2372
g62
(dp2373
g82
g83
ssg71
g2367
sg64
(lp2374
g1298
asbag57
(g78
g59
NtRp2375
(dp2376
g62
(dp2377
g89
g90
ssg71
g2367
sg64
(lp2378
S':'
asbag57
(g78
g59
NtRp2379
(dp2380
g62
(dp2381
sg71
g2367
sg64
(lp2382
g57
(g58
g59
NtRp2383
(dp2384
g62
(dp2385
g70
I4
ssg71
g2379
sg64
(lp2386
S"<Values at 0xa03ad8c: {'verbose': False, 'ip': '127.0.0.1', 'with_scheduler': False, 'ips': ['127.0.1.1'], 'shutdown_timeout': 5, 'taskbar': False, 'port': 8000, 'maxthreads': None, 'softcron': False, 'server_name': 'emp2web-300E4A-300E5A-300E7A-3430EA-3530EA', 'bpython': False, 'nogui': False, 'nocron': False, 'extcron': False, 'run_system_tests': False, 'test': None, 'folder': '/home/emp2web/webcast/web2py', 'config': '', 'import_models': False, 'winservice': '', 'shell': None, 'run': '', 'log_filename': 'httpserver.log', 'debuglevel': 30, 'args': [''], 'socket_timeout': 5, 'ssl_ca_certificate': None, 'scheduler': None, 'profiler_filename': None, 'ssl_private_key': '', 'scheduler_groups': None, 'password': 'web2py', 'request_queue_size': 5, 'ssl_certificate': '', 'cronjob': False, 'numthreads': None, 'quiet': False, 'interfaces': None, 'minthreads': None, 'timeout': 10, 'plain': False, 'nobanner': False, 'pid_filename': 'httpserver.pid'}>"
p2387
asbasbasbag57
(g73
g59
NtRp2388
(dp2389
g62
(dp2390
sg71
g2298
sg64
(lp2391
g57
(g78
g59
NtRp2392
(dp2393
g62
(dp2394
g82
g83
ssg71
g2388
sg64
(lp2395
g1320
asbag57
(g78
g59
NtRp2396
(dp2397
g62
(dp2398
g89
g90
ssg71
g2388
sg64
(lp2399
S':'
asbag57
(g78
g59
NtRp2400
(dp2401
g62
(dp2402
sg71
g2388
sg64
(lp2403
g57
(g58
g59
NtRp2404
(dp2405
g62
(dp2406
g70
I4
ssg71
g2400
sg64
(lp2407
S'set([])'
p2408
asbasbasbag57
(g73
g59
NtRp2409
(dp2410
g62
(dp2411
sg71
g2298
sg64
(lp2412
g57
(g78
g59
NtRp2413
(dp2414
g62
(dp2415
g82
g83
ssg71
g2409
sg64
(lp2416
g1342
asbag57
(g78
g59
NtRp2417
(dp2418
g62
(dp2419
g89
g90
ssg71
g2409
sg64
(lp2420
S':'
asbag57
(g78
g59
NtRp2421
(dp2422
g62
(dp2423
sg71
g2409
sg64
(lp2424
g57
(g58
g59
NtRp2425
(dp2426
g62
(dp2427
g70
I4
ssg71
g2421
sg64
(lp2428
g100
asbasbasbag57
(g73
g59
NtRp2429
(dp2430
g62
(dp2431
sg71
g2298
sg64
(lp2432
g57
(g78
g59
NtRp2433
(dp2434
g62
(dp2435
g82
g83
ssg71
g2429
sg64
(lp2436
g1363
asbag57
(g78
g59
NtRp2437
(dp2438
g62
(dp2439
g89
g90
ssg71
g2429
sg64
(lp2440
S':'
asbag57
(g78
g59
NtRp2441
(dp2442
g62
(dp2443
sg71
g2429
sg64
(lp2444
g57
(g58
g59
NtRp2445
(dp2446
g62
(dp2447
g70
I4
ssg71
g2441
sg64
(lp2448
g1376
asbasbasbag57
(g73
g59
NtRp2449
(dp2450
g62
(dp2451
sg71
g2298
sg64
(lp2452
g57
(g78
g59
NtRp2453
(dp2454
g62
(dp2455
g82
g83
ssg71
g2449
sg64
(lp2456
g1583
asbag57
(g78
g59
NtRp2457
(dp2458
g62
(dp2459
g89
g90
ssg71
g2449
sg64
(lp2460
S':'
asbag57
(g78
g59
NtRp2461
(dp2462
g62
(dp2463
sg71
g2449
sg64
(lp2464
g57
(g58
g59
NtRp2465
(dp2466
g62
(dp2467
g70
I4
ssg71
g2461
sg64
(lp2468
g100
asbasbasbag57
(g73
g59
NtRp2469
(dp2470
g62
(dp2471
sg71
g2298
sg64
(lp2472
g57
(g78
g59
NtRp2473
(dp2474
g62
(dp2475
g82
g83
ssg71
g2469
sg64
(lp2476
g1604
asbag57
(g78
g59
NtRp2477
(dp2478
g62
(dp2479
g89
g90
ssg71
g2469
sg64
(lp2480
S':'
asbag57
(g78
g59
NtRp2481
(dp2482
g62
(dp2483
sg71
g2469
sg64
(lp2484
g57
(g58
g59
NtRp2485
(dp2486
g62
(dp2487
g70
I4
ssg71
g2481
sg64
(lp2488
g100
asbasbasbag57
(g73
g59
NtRp2489
(dp2490
g62
(dp2491
sg71
g2298
sg64
(lp2492
g57
(g78
g59
NtRp2493
(dp2494
g62
(dp2495
g82
g83
ssg71
g2489
sg64
(lp2496
g1863
asbag57
(g78
g59
NtRp2497
(dp2498
g62
(dp2499
g89
g90
ssg71
g2489
sg64
(lp2500
S':'
asbag57
(g78
g59
NtRp2501
(dp2502
g62
(dp2503
sg71
g2489
sg64
(lp2504
g57
(g58
g59
NtRp2505
(dp2506
g62
(dp2507
g70
I4
ssg71
g2501
sg64
(lp2508
g1876
asbasbasbag57
(g73
g59
NtRp2509
(dp2510
g62
(dp2511
sg71
g2298
sg64
(lp2512
g57
(g78
g59
NtRp2513
(dp2514
g62
(dp2515
g82
g83
ssg71
g2509
sg64
(lp2516
g1906
asbag57
(g78
g59
NtRp2517
(dp2518
g62
(dp2519
g89
g90
ssg71
g2509
sg64
(lp2520
S':'
asbag57
(g78
g59
NtRp2521
(dp2522
g62
(dp2523
sg71
g2509
sg64
(lp2524
g57
(g58
g59
NtRp2525
(dp2526
g62
(dp2527
g70
I4
ssg71
g2521
sg64
(lp2528
g57
(g66
g59
NtRp2529
(dp2530
g62
(dp2531
g70
I3
ssg71
Nsg64
(lp2532
g57
(g73
g59
NtRp2533
(dp2534
g62
(dp2535
sg71
g2529
sg64
(lp2536
g57
(g78
g59
NtRp2537
(dp2538
g62
(dp2539
sg71
g2533
sg64
(lp2540
g57
(g58
g59
NtRp2541
(dp2542
g62
(dp2543
g70
I3
ssg71
g2537
sg64
(lp2544
S'2'
asbasbasbag57
(g73
g59
NtRp2545
(dp2546
g62
(dp2547
sg71
g2529
sg64
(lp2548
g57
(g78
g59
NtRp2549
(dp2550
g62
(dp2551
sg71
g2545
sg64
(lp2552
g57
(g58
g59
NtRp2553
(dp2554
g62
(dp2555
g70
I3
ssg71
g2549
sg64
(lp2556
S'0'
asbasbasbag57
(g73
g59
NtRp2557
(dp2558
g62
(dp2559
sg71
g2529
sg64
(lp2560
g57
(g78
g59
NtRp2561
(dp2562
g62
(dp2563
sg71
g2557
sg64
(lp2564
g57
(g58
g59
NtRp2565
(dp2566
g62
(dp2567
g70
I3
ssg71
g2561
sg64
(lp2568
S'6'
asbasbasbag57
(g73
g59
NtRp2569
(dp2570
g62
(dp2571
sg71
g2529
sg64
(lp2572
g57
(g78
g59
NtRp2573
(dp2574
g62
(dp2575
sg71
g2569
sg64
(lp2576
g57
(g58
g59
NtRp2577
(dp2578
g62
(dp2579
g70
I3
ssg71
g2573
sg64
(lp2580
S'datetime.datetime(2012, 9, 2, 4, 44, 23)'
p2581
asbasbasbag57
(g73
g59
NtRp2582
(dp2583
g62
(dp2584
sg71
g2529
sg64
(lp2585
g57
(g78
g59
NtRp2586
(dp2587
g62
(dp2588
sg71
g2582
sg64
(lp2589
g57
(g58
g59
NtRp2590
(dp2591
g62
(dp2592
g70
I3
ssg71
g2586
sg64
(lp2593
g1984
asbasbasbasbasbasbasbasbasbasbasbag57
(g73
g59
NtRp2594
(dp2595
g62
(dp2596
sg71
g67
sg64
(lp2597
g57
(g78
g59
NtRp2598
(dp2599
g62
(dp2600
g82
g83
ssg71
g2594
sg64
(lp2601
S'is_https'
p2602
asbag57
(g78
g59
NtRp2603
(dp2604
g62
(dp2605
g89
g90
ssg71
g2594
sg64
(lp2606
S':'
asbag57
(g78
g59
NtRp2607
(dp2608
g62
(dp2609
sg71
g2594
sg64
(lp2610
g57
(g58
g59
NtRp2611
(dp2612
g62
(dp2613
g70
I5
ssg71
g2607
sg64
(lp2614
g100
asbasbasbag57
(g73
g59
NtRp2615
(dp2616
g62
(dp2617
sg71
g67
sg64
(lp2618
g57
(g78
g59
NtRp2619
(dp2620
g62
(dp2621
g82
g83
ssg71
g2615
sg64
(lp2622
S'is_local'
p2623
asbag57
(g78
g59
NtRp2624
(dp2625
g62
(dp2626
g89
g90
ssg71
g2615
sg64
(lp2627
S':'
asbag57
(g78
g59
NtRp2628
(dp2629
g62
(dp2630
sg71
g2615
sg64
(lp2631
g57
(g58
g59
NtRp2632
(dp2633
g62
(dp2634
g70
I5
ssg71
g2628
sg64
(lp2635
g2093
asbasbasbag57
(g73
g59
NtRp2636
(dp2637
g62
(dp2638
sg71
g67
sg64
(lp2639
g57
(g78
g59
NtRp2640
(dp2641
g62
(dp2642
g82
g83
ssg71
g2636
sg64
(lp2643
S'is_restful'
p2644
asbag57
(g78
g59
NtRp2645
(dp2646
g62
(dp2647
g89
g90
ssg71
g2636
sg64
(lp2648
S':'
asbag57
(g78
g59
NtRp2649
(dp2650
g62
(dp2651
sg71
g2636
sg64
(lp2652
g57
(g58
g59
NtRp2653
(dp2654
g62
(dp2655
g70
I5
ssg71
g2649
sg64
(lp2656
g100
asbasbasbag57
(g73
g59
NtRp2657
(dp2658
g62
(dp2659
sg71
g67
sg64
(lp2660
g57
(g78
g59
NtRp2661
(dp2662
g62
(dp2663
g82
g83
ssg71
g2657
sg64
(lp2664
S'now'
p2665
asbag57
(g78
g59
NtRp2666
(dp2667
g62
(dp2668
g89
g90
ssg71
g2657
sg64
(lp2669
S':'
asbag57
(g78
g59
NtRp2670
(dp2671
g62
(dp2672
sg71
g2657
sg64
(lp2673
g57
(g58
g59
NtRp2674
(dp2675
g62
(dp2676
g70
I5
ssg71
g2670
sg64
(lp2677
S'datetime.datetime(2012, 9, 6, 16, 28, 51, 874344)'
p2678
asbasbasbag57
(g73
g59
NtRp2679
(dp2680
g62
(dp2681
sg71
g67
sg64
(lp2682
g57
(g78
g59
NtRp2683
(dp2684
g62
(dp2685
g82
g83
ssg71
g2679
sg64
(lp2686
S'post_vars'
p2687
asbag57
(g78
g59
NtRp2688
(dp2689
g62
(dp2690
g89
g90
ssg71
g2679
sg64
(lp2691
S':'
asbag57
(g78
g59
NtRp2692
(dp2693
g62
(dp2694
sg71
g2679
sg64
(lp2695
g57
(g58
g59
NtRp2696
(dp2697
g62
(dp2698
g70
I5
ssg71
g2692
sg64
(lp2699
g57
(g66
g59
NtRp2700
(dp2701
g62
(dp2702
g70
I4
ssg71
Nsg64
(lp2703
sbasbasbasbag57
(g73
g59
NtRp2704
(dp2705
g62
(dp2706
sg71
g67
sg64
(lp2707
g57
(g78
g59
NtRp2708
(dp2709
g62
(dp2710
g82
g83
ssg71
g2704
sg64
(lp2711
S'raw_args'
p2712
asbag57
(g78
g59
NtRp2713
(dp2714
g62
(dp2715
g89
g90
ssg71
g2704
sg64
(lp2716
S':'
asbag57
(g78
g59
NtRp2717
(dp2718
g62
(dp2719
sg71
g2704
sg64
(lp2720
g57
(g58
g59
NtRp2721
(dp2722
g62
(dp2723
g70
I5
ssg71
g2717
sg64
(lp2724
S'None'
p2725
asbasbasbag57
(g73
g59
NtRp2726
(dp2727
g62
(dp2728
sg71
g67
sg64
(lp2729
g57
(g78
g59
NtRp2730
(dp2731
g62
(dp2732
g82
g83
ssg71
g2726
sg64
(lp2733
S'raw_extension'
p2734
asbag57
(g78
g59
NtRp2735
(dp2736
g62
(dp2737
g89
g90
ssg71
g2726
sg64
(lp2738
S':'
asbag57
(g78
g59
NtRp2739
(dp2740
g62
(dp2741
sg71
g2726
sg64
(lp2742
g57
(g58
g59
NtRp2743
(dp2744
g62
(dp2745
g70
I5
ssg71
g2739
sg64
(lp2746
S'None'
p2747
asbasbasbag57
(g73
g59
NtRp2748
(dp2749
g62
(dp2750
sg71
g67
sg64
(lp2751
g57
(g78
g59
NtRp2752
(dp2753
g62
(dp2754
g82
g83
ssg71
g2748
sg64
(lp2755
S'url'
p2756
asbag57
(g78
g59
NtRp2757
(dp2758
g62
(dp2759
g89
g90
ssg71
g2748
sg64
(lp2760
S':'
asbag57
(g78
g59
NtRp2761
(dp2762
g62
(dp2763
sg71
g2748
sg64
(lp2764
g57
(g58
g59
NtRp2765
(dp2766
g62
(dp2767
g70
I5
ssg71
g2761
sg64
(lp2768
S'/proyectos/configuracion/proyectos'
p2769
asbasbasbag57
(g73
g59
NtRp2770
(dp2771
g62
(dp2772
sg71
g67
sg64
(lp2773
g57
(g78
g59
NtRp2774
(dp2775
g62
(dp2776
g82
g83
ssg71
g2770
sg64
(lp2777
S'utcnow'
p2778
asbag57
(g78
g59
NtRp2779
(dp2780
g62
(dp2781
g89
g90
ssg71
g2770
sg64
(lp2782
S':'
asbag57
(g78
g59
NtRp2783
(dp2784
g62
(dp2785
sg71
g2770
sg64
(lp2786
g57
(g58
g59
NtRp2787
(dp2788
g62
(dp2789
g70
I5
ssg71
g2783
sg64
(lp2790
S'datetime.datetime(2012, 9, 6, 21, 28, 51, 874376)'
p2791
asbasbasbag57
(g73
g59
NtRp2792
(dp2793
g62
(dp2794
sg71
g67
sg64
(lp2795
g57
(g78
g59
NtRp2796
(dp2797
g62
(dp2798
g82
g83
ssg71
g2792
sg64
(lp2799
S'uuid'
p2800
asbag57
(g78
g59
NtRp2801
(dp2802
g62
(dp2803
g89
g90
ssg71
g2792
sg64
(lp2804
S':'
asbag57
(g78
g59
NtRp2805
(dp2806
g62
(dp2807
sg71
g2792
sg64
(lp2808
g57
(g58
g59
NtRp2809
(dp2810
g62
(dp2811
g70
I5
ssg71
g2805
sg64
(lp2812
S'proyectos/127.0.0.1.2012-09-06.16-28-51.61cc82fc-7078-42fa-8733-5f3ad872bdfb'
p2813
asbasbasbag57
(g73
g59
NtRp2814
(dp2815
g62
(dp2816
sg71
g67
sg64
(lp2817
g57
(g78
g59
NtRp2818
(dp2819
g62
(dp2820
g82
g83
ssg71
g2814
sg64
(lp2821
S'vars'
p2822
asbag57
(g78
g59
NtRp2823
(dp2824
g62
(dp2825
g89
g90
ssg71
g2814
sg64
(lp2826
S':'
asbag57
(g78
g59
NtRp2827
(dp2828
g62
(dp2829
sg71
g2814
sg64
(lp2830
g57
(g58
g59
NtRp2831
(dp2832
g62
(dp2833
g70
I5
ssg71
g2827
sg64
(lp2834
g57
(g66
g59
NtRp2835
(dp2836
g62
(dp2837
g70
I4
ssg71
Nsg64
(lp2838
sbasbasbasbag57
(g73
g59
NtRp2839
(dp2840
g62
(dp2841
sg71
g67
sg64
(lp2842
g57
(g78
g59
NtRp2843
(dp2844
g62
(dp2845
g82
g83
ssg71
g2839
sg64
(lp2846
S'wsgi'
p2847
asbag57
(g78
g59
NtRp2848
(dp2849
g62
(dp2850
g89
g90
ssg71
g2839
sg64
(lp2851
S':'
asbag57
(g78
g59
NtRp2852
(dp2853
g62
(dp2854
sg71
g2839
sg64
(lp2855
g57
(g58
g59
NtRp2856
(dp2857
g62
(dp2858
g70
I5
ssg71
g2852
sg64
(lp2859
g57
(g66
g59
NtRp2860
(dp2861
g62
(dp2862
g70
I4
ssg71
Nsg64
(lp2863
g57
(g73
g59
NtRp2864
(dp2865
g62
(dp2866
sg71
g2860
sg64
(lp2867
g57
(g78
g59
NtRp2868
(dp2869
g62
(dp2870
g82
g83
ssg71
g2864
sg64
(lp2871
S'environ'
p2872
asbag57
(g78
g59
NtRp2873
(dp2874
g62
(dp2875
g89
g90
ssg71
g2864
sg64
(lp2876
S':'
asbag57
(g78
g59
NtRp2877
(dp2878
g62
(dp2879
sg71
g2864
sg64
(lp2880
g57
(g58
g59
NtRp2881
(dp2882
g62
(dp2883
g70
I4
ssg71
g2877
sg64
(lp2884
g57
(g66
g59
NtRp2885
(dp2886
g62
(dp2887
g70
I3
ssg71
Nsg64
(lp2888
g57
(g73
g59
NtRp2889
(dp2890
g62
(dp2891
sg71
g2885
sg64
(lp2892
g57
(g78
g59
NtRp2893
(dp2894
g62
(dp2895
g82
g83
ssg71
g2889
sg64
(lp2896
S'HTTP_ACCEPT'
p2897
asbag57
(g78
g59
NtRp2898
(dp2899
g62
(dp2900
g89
g90
ssg71
g2889
sg64
(lp2901
S':'
asbag57
(g78
g59
NtRp2902
(dp2903
g62
(dp2904
sg71
g2889
sg64
(lp2905
g57
(g58
g59
NtRp2906
(dp2907
g62
(dp2908
g70
I3
ssg71
g2902
sg64
(lp2909
g1398
asbasbasbag57
(g73
g59
NtRp2910
(dp2911
g62
(dp2912
sg71
g2885
sg64
(lp2913
g57
(g78
g59
NtRp2914
(dp2915
g62
(dp2916
g82
g83
ssg71
g2910
sg64
(lp2917
S'HTTP_ACCEPT_CHARSET'
p2918
asbag57
(g78
g59
NtRp2919
(dp2920
g62
(dp2921
g89
g90
ssg71
g2910
sg64
(lp2922
S':'
asbag57
(g78
g59
NtRp2923
(dp2924
g62
(dp2925
sg71
g2910
sg64
(lp2926
g57
(g58
g59
NtRp2927
(dp2928
g62
(dp2929
g70
I3
ssg71
g2923
sg64
(lp2930
g1420
asbasbasbag57
(g73
g59
NtRp2931
(dp2932
g62
(dp2933
sg71
g2885
sg64
(lp2934
g57
(g78
g59
NtRp2935
(dp2936
g62
(dp2937
g82
g83
ssg71
g2931
sg64
(lp2938
S'HTTP_ACCEPT_ENCODING'
p2939
asbag57
(g78
g59
NtRp2940
(dp2941
g62
(dp2942
g89
g90
ssg71
g2931
sg64
(lp2943
S':'
asbag57
(g78
g59
NtRp2944
(dp2945
g62
(dp2946
sg71
g2931
sg64
(lp2947
g57
(g58
g59
NtRp2948
(dp2949
g62
(dp2950
g70
I3
ssg71
g2944
sg64
(lp2951
g1442
asbasbasbag57
(g73
g59
NtRp2952
(dp2953
g62
(dp2954
sg71
g2885
sg64
(lp2955
g57
(g78
g59
NtRp2956
(dp2957
g62
(dp2958
g82
g83
ssg71
g2952
sg64
(lp2959
S'HTTP_ACCEPT_LANGUAGE'
p2960
asbag57
(g78
g59
NtRp2961
(dp2962
g62
(dp2963
g89
g90
ssg71
g2952
sg64
(lp2964
S':'
asbag57
(g78
g59
NtRp2965
(dp2966
g62
(dp2967
sg71
g2952
sg64
(lp2968
g57
(g58
g59
NtRp2969
(dp2970
g62
(dp2971
g70
I3
ssg71
g2965
sg64
(lp2972
g1464
asbasbasbag57
(g73
g59
NtRp2973
(dp2974
g62
(dp2975
sg71
g2885
sg64
(lp2976
g57
(g78
g59
NtRp2977
(dp2978
g62
(dp2979
g82
g83
ssg71
g2973
sg64
(lp2980
S'HTTP_CONNECTION'
p2981
asbag57
(g78
g59
NtRp2982
(dp2983
g62
(dp2984
g89
g90
ssg71
g2973
sg64
(lp2985
S':'
asbag57
(g78
g59
NtRp2986
(dp2987
g62
(dp2988
sg71
g2973
sg64
(lp2989
g57
(g58
g59
NtRp2990
(dp2991
g62
(dp2992
g70
I3
ssg71
g2986
sg64
(lp2993
g1486
asbasbasbag57
(g73
g59
NtRp2994
(dp2995
g62
(dp2996
sg71
g2885
sg64
(lp2997
g57
(g78
g59
NtRp2998
(dp2999
g62
(dp3000
g82
g83
ssg71
g2994
sg64
(lp3001
S'HTTP_COOKIE'
p3002
asbag57
(g78
g59
NtRp3003
(dp3004
g62
(dp3005
g89
g90
ssg71
g2994
sg64
(lp3006
S':'
asbag57
(g78
g59
NtRp3007
(dp3008
g62
(dp3009
sg71
g2994
sg64
(lp3010
g57
(g58
g59
NtRp3011
(dp3012
g62
(dp3013
g70
I3
ssg71
g3007
sg64
(lp3014
g1508
asbasbasbag57
(g73
g59
NtRp3015
(dp3016
g62
(dp3017
sg71
g2885
sg64
(lp3018
g57
(g78
g59
NtRp3019
(dp3020
g62
(dp3021
g82
g83
ssg71
g3015
sg64
(lp3022
S'HTTP_HOST'
p3023
asbag57
(g78
g59
NtRp3024
(dp3025
g62
(dp3026
g89
g90
ssg71
g3015
sg64
(lp3027
S':'
asbag57
(g78
g59
NtRp3028
(dp3029
g62
(dp3030
sg71
g3015
sg64
(lp3031
g57
(g58
g59
NtRp3032
(dp3033
g62
(dp3034
g70
I3
ssg71
g3028
sg64
(lp3035
g1530
asbasbasbag57
(g73
g59
NtRp3036
(dp3037
g62
(dp3038
sg71
g2885
sg64
(lp3039
g57
(g78
g59
NtRp3040
(dp3041
g62
(dp3042
g82
g83
ssg71
g3036
sg64
(lp3043
S'HTTP_REFERER'
p3044
asbag57
(g78
g59
NtRp3045
(dp3046
g62
(dp3047
g89
g90
ssg71
g3036
sg64
(lp3048
S':'
asbag57
(g78
g59
NtRp3049
(dp3050
g62
(dp3051
sg71
g3036
sg64
(lp3052
g57
(g58
g59
NtRp3053
(dp3054
g62
(dp3055
g70
I3
ssg71
g3049
sg64
(lp3056
g1552
asbasbasbag57
(g73
g59
NtRp3057
(dp3058
g62
(dp3059
sg71
g2885
sg64
(lp3060
g57
(g78
g59
NtRp3061
(dp3062
g62
(dp3063
g82
g83
ssg71
g3057
sg64
(lp3064
S'HTTP_USER_AGENT'
p3065
asbag57
(g78
g59
NtRp3066
(dp3067
g62
(dp3068
g89
g90
ssg71
g3057
sg64
(lp3069
S':'
asbag57
(g78
g59
NtRp3070
(dp3071
g62
(dp3072
sg71
g3057
sg64
(lp3073
g57
(g58
g59
NtRp3074
(dp3075
g62
(dp3076
g70
I3
ssg71
g3070
sg64
(lp3077
g1574
asbasbasbag57
(g73
g59
NtRp3078
(dp3079
g62
(dp3080
sg71
g2885
sg64
(lp3081
g57
(g78
g59
NtRp3082
(dp3083
g62
(dp3084
g82
g83
ssg71
g3078
sg64
(lp3085
S'PATH_INFO'
p3086
asbag57
(g78
g59
NtRp3087
(dp3088
g62
(dp3089
g89
g90
ssg71
g3078
sg64
(lp3090
S':'
asbag57
(g78
g59
NtRp3091
(dp3092
g62
(dp3093
sg71
g3078
sg64
(lp3094
g57
(g58
g59
NtRp3095
(dp3096
g62
(dp3097
g70
I3
ssg71
g3091
sg64
(lp3098
g1638
asbasbasbag57
(g73
g59
NtRp3099
(dp3100
g62
(dp3101
sg71
g2885
sg64
(lp3102
g57
(g78
g59
NtRp3103
(dp3104
g62
(dp3105
g82
g83
ssg71
g3099
sg64
(lp3106
S'QUERY_STRING'
p3107
asbag57
(g78
g59
NtRp3108
(dp3109
g62
(dp3110
g89
g90
ssg71
g3099
sg64
(lp3111
S':'
asbag57
(g78
g59
NtRp3112
(dp3113
g62
(dp3114
sg71
g3099
sg64
(lp3115
g57
(g58
g59
NtRp3116
(dp3117
g62
(dp3118
g70
I3
ssg71
g3112
sg64
(lp3119
S''
asbasbasbag57
(g73
g59
NtRp3120
(dp3121
g62
(dp3122
sg71
g2885
sg64
(lp3123
g57
(g78
g59
NtRp3124
(dp3125
g62
(dp3126
g82
g83
ssg71
g3120
sg64
(lp3127
S'REMOTE_ADDR'
p3128
asbag57
(g78
g59
NtRp3129
(dp3130
g62
(dp3131
g89
g90
ssg71
g3120
sg64
(lp3132
S':'
asbag57
(g78
g59
NtRp3133
(dp3134
g62
(dp3135
sg71
g3120
sg64
(lp3136
g57
(g58
g59
NtRp3137
(dp3138
g62
(dp3139
g70
I3
ssg71
g3133
sg64
(lp3140
g212
asbasbasbag57
(g73
g59
NtRp3141
(dp3142
g62
(dp3143
sg71
g2885
sg64
(lp3144
g57
(g78
g59
NtRp3145
(dp3146
g62
(dp3147
g82
g83
ssg71
g3141
sg64
(lp3148
S'REMOTE_PORT'
p3149
asbag57
(g78
g59
NtRp3150
(dp3151
g62
(dp3152
g89
g90
ssg71
g3141
sg64
(lp3153
S':'
asbag57
(g78
g59
NtRp3154
(dp3155
g62
(dp3156
sg71
g3141
sg64
(lp3157
g57
(g58
g59
NtRp3158
(dp3159
g62
(dp3160
g70
I3
ssg71
g3154
sg64
(lp3161
g1702
asbasbasbag57
(g73
g59
NtRp3162
(dp3163
g62
(dp3164
sg71
g2885
sg64
(lp3165
g57
(g78
g59
NtRp3166
(dp3167
g62
(dp3168
g82
g83
ssg71
g3162
sg64
(lp3169
S'REQUEST_METHOD'
p3170
asbag57
(g78
g59
NtRp3171
(dp3172
g62
(dp3173
g89
g90
ssg71
g3162
sg64
(lp3174
S':'
asbag57
(g78
g59
NtRp3175
(dp3176
g62
(dp3177
sg71
g3162
sg64
(lp3178
g57
(g58
g59
NtRp3179
(dp3180
g62
(dp3181
g70
I3
ssg71
g3175
sg64
(lp3182
g1724
asbasbasbag57
(g73
g59
NtRp3183
(dp3184
g62
(dp3185
sg71
g2885
sg64
(lp3186
g57
(g78
g59
NtRp3187
(dp3188
g62
(dp3189
g82
g83
ssg71
g3183
sg64
(lp3190
S'REQUEST_URI'
p3191
asbag57
(g78
g59
NtRp3192
(dp3193
g62
(dp3194
g89
g90
ssg71
g3183
sg64
(lp3195
S':'
asbag57
(g78
g59
NtRp3196
(dp3197
g62
(dp3198
sg71
g3183
sg64
(lp3199
g57
(g58
g59
NtRp3200
(dp3201
g62
(dp3202
g70
I3
ssg71
g3196
sg64
(lp3203
g1638
asbasbasbag57
(g73
g59
NtRp3204
(dp3205
g62
(dp3206
sg71
g2885
sg64
(lp3207
g57
(g78
g59
NtRp3208
(dp3209
g62
(dp3210
g82
g83
ssg71
g3204
sg64
(lp3211
S'SCRIPT_NAME'
p3212
asbag57
(g78
g59
NtRp3213
(dp3214
g62
(dp3215
g89
g90
ssg71
g3204
sg64
(lp3216
S':'
asbag57
(g78
g59
NtRp3217
(dp3218
g62
(dp3219
sg71
g3204
sg64
(lp3220
g57
(g58
g59
NtRp3221
(dp3222
g62
(dp3223
g70
I3
ssg71
g3217
sg64
(lp3224
S''
asbasbasbag57
(g73
g59
NtRp3225
(dp3226
g62
(dp3227
sg71
g2885
sg64
(lp3228
g57
(g78
g59
NtRp3229
(dp3230
g62
(dp3231
g82
g83
ssg71
g3225
sg64
(lp3232
S'SERVER_NAME'
p3233
asbag57
(g78
g59
NtRp3234
(dp3235
g62
(dp3236
g89
g90
ssg71
g3225
sg64
(lp3237
S':'
asbag57
(g78
g59
NtRp3238
(dp3239
g62
(dp3240
sg71
g3225
sg64
(lp3241
g57
(g58
g59
NtRp3242
(dp3243
g62
(dp3244
g70
I3
ssg71
g3238
sg64
(lp3245
g1788
asbasbasbag57
(g73
g59
NtRp3246
(dp3247
g62
(dp3248
sg71
g2885
sg64
(lp3249
g57
(g78
g59
NtRp3250
(dp3251
g62
(dp3252
g82
g83
ssg71
g3246
sg64
(lp3253
S'SERVER_PORT'
p3254
asbag57
(g78
g59
NtRp3255
(dp3256
g62
(dp3257
g89
g90
ssg71
g3246
sg64
(lp3258
S':'
asbag57
(g78
g59
NtRp3259
(dp3260
g62
(dp3261
sg71
g3246
sg64
(lp3262
g57
(g58
g59
NtRp3263
(dp3264
g62
(dp3265
g70
I3
ssg71
g3259
sg64
(lp3266
g1810
asbasbasbag57
(g73
g59
NtRp3267
(dp3268
g62
(dp3269
sg71
g2885
sg64
(lp3270
g57
(g78
g59
NtRp3271
(dp3272
g62
(dp3273
g82
g83
ssg71
g3267
sg64
(lp3274
S'SERVER_PROTOCOL'
p3275
asbag57
(g78
g59
NtRp3276
(dp3277
g62
(dp3278
g89
g90
ssg71
g3267
sg64
(lp3279
S':'
asbag57
(g78
g59
NtRp3280
(dp3281
g62
(dp3282
sg71
g3267
sg64
(lp3283
g57
(g58
g59
NtRp3284
(dp3285
g62
(dp3286
g70
I3
ssg71
g3280
sg64
(lp3287
g1832
asbasbasbag57
(g73
g59
NtRp3288
(dp3289
g62
(dp3290
sg71
g2885
sg64
(lp3291
g57
(g78
g59
NtRp3292
(dp3293
g62
(dp3294
g82
g83
ssg71
g3288
sg64
(lp3295
S'SERVER_SOFTWARE'
p3296
asbag57
(g78
g59
NtRp3297
(dp3298
g62
(dp3299
g89
g90
ssg71
g3288
sg64
(lp3300
S':'
asbag57
(g78
g59
NtRp3301
(dp3302
g62
(dp3303
sg71
g3288
sg64
(lp3304
g57
(g58
g59
NtRp3305
(dp3306
g62
(dp3307
g70
I3
ssg71
g3301
sg64
(lp3308
g1854
asbasbasbag57
(g73
g59
NtRp3309
(dp3310
g62
(dp3311
sg71
g2885
sg64
(lp3312
g57
(g78
g59
NtRp3313
(dp3314
g62
(dp3315
g82
g83
ssg71
g3309
sg64
(lp3316
S'wsgi.errors'
p3317
asbag57
(g78
g59
NtRp3318
(dp3319
g62
(dp3320
g89
g90
ssg71
g3309
sg64
(lp3321
S':'
asbag57
(g78
g59
NtRp3322
(dp3323
g62
(dp3324
sg71
g3309
sg64
(lp3325
g57
(g58
g59
NtRp3326
(dp3327
g62
(dp3328
g70
I3
ssg71
g3322
sg64
(lp3329
S"<open file '<stderr>', mode 'w' at 0xb72ca0d0>"
p3330
asbasbasbag57
(g73
g59
NtRp3331
(dp3332
g62
(dp3333
sg71
g2885
sg64
(lp3334
g57
(g78
g59
NtRp3335
(dp3336
g62
(dp3337
g82
g83
ssg71
g3331
sg64
(lp3338
S'wsgi.file_wrapper'
p3339
asbag57
(g78
g59
NtRp3340
(dp3341
g62
(dp3342
g89
g90
ssg71
g3331
sg64
(lp3343
S':'
asbag57
(g78
g59
NtRp3344
(dp3345
g62
(dp3346
sg71
g3331
sg64
(lp3347
g57
(g58
g59
NtRp3348
(dp3349
g62
(dp3350
g70
I3
ssg71
g3344
sg64
(lp3351
S'<class wsgiref.util.FileWrapper at 0xa00e02c>'
p3352
asbasbasbag57
(g73
g59
NtRp3353
(dp3354
g62
(dp3355
sg71
g2885
sg64
(lp3356
g57
(g78
g59
NtRp3357
(dp3358
g62
(dp3359
g82
g83
ssg71
g3353
sg64
(lp3360
S'wsgi.input'
p3361
asbag57
(g78
g59
NtRp3362
(dp3363
g62
(dp3364
g89
g90
ssg71
g3353
sg64
(lp3365
S':'
asbag57
(g78
g59
NtRp3366
(dp3367
g62
(dp3368
sg71
g3353
sg64
(lp3369
g57
(g58
g59
NtRp3370
(dp3371
g62
(dp3372
g70
I3
ssg71
g3366
sg64
(lp3373
S'<cStringIO.StringO object at 0xa081240>'
p3374
asbasbasbag57
(g73
g59
NtRp3375
(dp3376
g62
(dp3377
sg71
g2885
sg64
(lp3378
g57
(g78
g59
NtRp3379
(dp3380
g62
(dp3381
g82
g83
ssg71
g3375
sg64
(lp3382
S'wsgi.multiprocess'
p3383
asbag57
(g78
g59
NtRp3384
(dp3385
g62
(dp3386
g89
g90
ssg71
g3375
sg64
(lp3387
S':'
asbag57
(g78
g59
NtRp3388
(dp3389
g62
(dp3390
sg71
g3375
sg64
(lp3391
g57
(g58
g59
NtRp3392
(dp3393
g62
(dp3394
g70
I3
ssg71
g3388
sg64
(lp3395
g100
asbasbasbag57
(g73
g59
NtRp3396
(dp3397
g62
(dp3398
sg71
g2885
sg64
(lp3399
g57
(g78
g59
NtRp3400
(dp3401
g62
(dp3402
g82
g83
ssg71
g3396
sg64
(lp3403
S'wsgi.multithread'
p3404
asbag57
(g78
g59
NtRp3405
(dp3406
g62
(dp3407
g89
g90
ssg71
g3396
sg64
(lp3408
S':'
asbag57
(g78
g59
NtRp3409
(dp3410
g62
(dp3411
sg71
g3396
sg64
(lp3412
g57
(g58
g59
NtRp3413
(dp3414
g62
(dp3415
g70
I3
ssg71
g3409
sg64
(lp3416
g2093
asbasbasbag57
(g73
g59
NtRp3417
(dp3418
g62
(dp3419
sg71
g2885
sg64
(lp3420
g57
(g78
g59
NtRp3421
(dp3422
g62
(dp3423
g82
g83
ssg71
g3417
sg64
(lp3424
S'wsgi.run_once'
p3425
asbag57
(g78
g59
NtRp3426
(dp3427
g62
(dp3428
g89
g90
ssg71
g3417
sg64
(lp3429
S':'
asbag57
(g78
g59
NtRp3430
(dp3431
g62
(dp3432
sg71
g3417
sg64
(lp3433
g57
(g58
g59
NtRp3434
(dp3435
g62
(dp3436
g70
I3
ssg71
g3430
sg64
(lp3437
g100
asbasbasbag57
(g73
g59
NtRp3438
(dp3439
g62
(dp3440
sg71
g2885
sg64
(lp3441
g57
(g78
g59
NtRp3442
(dp3443
g62
(dp3444
g82
g83
ssg71
g3438
sg64
(lp3445
S'wsgi.url_scheme'
p3446
asbag57
(g78
g59
NtRp3447
(dp3448
g62
(dp3449
g89
g90
ssg71
g3438
sg64
(lp3450
S':'
asbag57
(g78
g59
NtRp3451
(dp3452
g62
(dp3453
sg71
g3438
sg64
(lp3454
g57
(g58
g59
NtRp3455
(dp3456
g62
(dp3457
g70
I3
ssg71
g3451
sg64
(lp3458
g2136
asbasbasbag57
(g73
g59
NtRp3459
(dp3460
g62
(dp3461
sg71
g2885
sg64
(lp3462
g57
(g78
g59
NtRp3463
(dp3464
g62
(dp3465
g82
g83
ssg71
g3459
sg64
(lp3466
S'wsgi.version'
p3467
asbag57
(g78
g59
NtRp3468
(dp3469
g62
(dp3470
g89
g90
ssg71
g3459
sg64
(lp3471
S':'
asbag57
(g78
g59
NtRp3472
(dp3473
g62
(dp3474
sg71
g3459
sg64
(lp3475
g57
(g58
g59
NtRp3476
(dp3477
g62
(dp3478
g70
I3
ssg71
g3472
sg64
(lp3479
S'1'
asbasbasbasbasbasbasbasbasbasbasbasbasbsS'frames'
p3480
(lp3481
(dp3482
S'file'
p3483
S'/home/emp2web/webcast/web2py/gluon/restricted.py'
p3484
sS'dump'
p3485
(dp3486
S'environment'
p3487
S"{'A': <class 'gluon.html.A'>, 'Auth': <class 'gluon.tools.Auth'>, 'B': <class 'gluon.html.B'>, 'BEAUTIFY': <class 'gluon.html.BEAUTIFY'>, 'BODY': <class 'gluon.html.BODY'>, 'BR': <class 'gluon.html.BR'>, 'BUTTON': <class 'gluon.html.BUTTON'>, 'CAT': <class 'gluon.html.CAT'>, 'CENTER': <class 'gluon.html.CENTER'>, 'CLEANUP': <class 'gluon.validators.CLEANUP'>, ...}"
p3488
sS'ccode'
p3489
S'<code object <module> at 0xae473608, file "/home.../proyectos/controllers/configuracion.py", line 3>'
p3490
ssS'lnum'
p3491
I209
sS'lines'
p3492
(dp3493
I204
S'    try:'
p3494
sI205
S'        if type(code) == types.CodeType:'
p3495
sI206
S'            ccode = code'
p3496
sI207
S'        else:'
p3497
sI208
S'            ccode = compile2(code,layer)'
p3498
sI209
S'        exec ccode in environment'
p3499
sI210
S'    except HTTP:'
p3500
sI211
S'        raise'
p3501
sI212
S'    except RestrictedError:'
p3502
sI213
S'        # do not encapsulate (obfuscate) the original RestrictedError'
p3503
ssS'call'
p3504
S"(code='# coding: utf8\\n# intente algo como\\ndef index(): ...ls()\\n\\nresponse._vars=response._caller(proyectos)\\n', environment={'A': <class 'gluon.html.A'>, 'Auth': <class 'gluon.tools.Auth'>, 'B': <class 'gluon.html.B'>, 'BEAUTIFY': <class 'gluon.html.BEAUTIFY'>, 'BODY': <class 'gluon.html.BODY'>, 'BR': <class 'gluon.html.BR'>, 'BUTTON': <class 'gluon.html.BUTTON'>, 'CAT': <class 'gluon.html.CAT'>, 'CENTER': <class 'gluon.html.CENTER'>, 'CLEANUP': <class 'gluon.validators.CLEANUP'>, ...}, layer='/home/emp2web/webcast/web2py/applications/proyectos/controllers/configuracion.py')"
p3505
sS'func'
p3506
S'restricted'
p3507
sa(dp3508
g3483
S'/home/emp2web/webcast/web2py/applications/proyectos/controllers/configuracion.py'
p3509
sg3485
(dp3510
sg3491
I26
sg3492
(dp3511
I15
S'    return locals()'
p3512
sI16
S''
sI17
S''
sI18
S'def clientes():'
p3513
sI19
S'    formulario=SQLFORM.smartgrid(db.clientes)'
p3514
sI20
S'    return locals()'
p3515
sI21
S''
sI22
S'def proyectos():'
p3516
sI23
S'    formulario=SQLFORM.smartgrid(db.proyectos)'
p3517
sI24
S'    return locals()'
p3518
ssg3504
S'()'
p3519
sg3506
S'<module>'
p3520
sa(dp3521
g3483
S'/home/emp2web/webcast/web2py/gluon/globals.py'
p3522
sg3485
(dp3523
S'self'
p3524
S'undefined'
p3525
sS'f'
S'<function proyectos>'
p3526
ssg3491
I185
sg3492
(dp3527
I180
S'        self.menu = []             # used by the default view layout'
p3528
sI181
S'        self.files = []            # used by web2py_ajax.html'
p3529
sI182
S'        self.generic_patterns = [] # patterns to allow generic views'
p3530
sI183
S"        self.delimiters = ('{{','}}')"
p3531
sI184
S'        self._vars = None'
p3532
sI185
S'        self._caller = lambda f: f()'
p3533
sI186
S'        self._view_environment = None'
p3534
sI187
S'        self._custom_commit = None'
p3535
sI188
S'        self._custom_rollback = None'
p3536
sI189
S''
ssg3504
S'(f=<function proyectos>)'
p3537
sg3506
S'<lambda>'
p3538
sa(dp3539
g3483
S'/home/emp2web/webcast/web2py/applications/proyectos/controllers/configuracion.py'
p3540
sg3485
(dp3541
S'global db'
p3542
S'<DAL sqlite://storage.sqlite>'
p3543
sS'global SQLFORM'
p3544
S"<class 'gluon.sqlhtml.SQLFORM'>"
p3545
sS'SQLFORM.smartgrid'
p3546
S'<function smartgrid>'
p3547
sS'db.proyectos'
p3548
g3525
sS'formulario'
p3549
g3525
ssg3491
I23
sg3492
(dp3550
I15
S'    return locals()'
p3551
sI16
S''
sI17
S''
sI18
S'def clientes():'
p3552
sI19
S'    formulario=SQLFORM.smartgrid(db.clientes)'
p3553
sI20
S'    return locals()'
p3554
sI21
S''
sI22
S'def proyectos():'
p3555
sI23
S'    formulario=SQLFORM.smartgrid(db.proyectos)'
p3556
sI24
S'    return locals()'
p3557
ssg3504
S'()'
p3558
sg3506
S'proyectos'
p3559
sa(dp3560
g3483
S'/home/emp2web/webcast/web2py/gluon/dal.py'
p3561
sg3485
(dp3562
S'self'
p3563
S'<DAL sqlite://storage.sqlite>'
p3564
sS'global ogetattr'
p3565
S"<slot wrapper '__getattribute__' of 'object' objects>"
p3566
sS'key'
p3567
S"'proyectos'"
p3568
ssg3491
I7113
sg3492
(dp3569
I7108
S'    def __getattr__(self, key):'
p3570
sI7109
S"        if ogetattr(self,'_lazy_tables') and \\"
p3571
sI7110
S"                key in ogetattr(self,'_LAZY_TABLES'):"
p3572
sI7111
S'            tablename, fields, args = self._LAZY_TABLES.pop(key)'
p3573
sI7112
S'            return self.lazy_define_table(tablename,*fields,**args)'
p3574
sI7113
S'        return ogetattr(self, key)'
p3575
sI7114
S''
sI7115
S'    def __setitem__(self, key, value):'
p3576
sI7116
S'        osetattr(self, str(key), value)'
p3577
sI7117
S''
ssg3504
S"(self=<DAL sqlite://storage.sqlite>, key='proyectos')"
p3578
sg3506
S'__getattr__'
p3579
sasS'pyver'
p3580
S'Python 2.7.3: /usr/bin/python2.7'
p3581
sS'session'
p3582
g57
(g58
g59
NtRp3583
(dp3584
g62
(dp3585
sg64
(lp3586
g57
(g66
g59
NtRp3587
(dp3588
g62
(dp3589
g70
I5
ssg71
Nsg64
(lp3590
g57
(g73
g59
NtRp3591
(dp3592
g62
(dp3593
sg71
g3587
sg64
(lp3594
g57
(g78
g59
NtRp3595
(dp3596
g62
(dp3597
g82
g83
ssg71
g3591
sg64
(lp3598
S'auth'
p3599
asbag57
(g78
g59
NtRp3600
(dp3601
g62
(dp3602
g89
g90
ssg71
g3591
sg64
(lp3603
S':'
asbag57
(g78
g59
NtRp3604
(dp3605
g62
(dp3606
sg71
g3591
sg64
(lp3607
g57
(g58
g59
NtRp3608
(dp3609
g62
(dp3610
g70
I5
ssg71
g3604
sg64
(lp3611
g57
(g66
g59
NtRp3612
(dp3613
g62
(dp3614
g70
I4
ssg71
Nsg64
(lp3615
g57
(g73
g59
NtRp3616
(dp3617
g62
(dp3618
sg71
g3612
sg64
(lp3619
g57
(g78
g59
NtRp3620
(dp3621
g62
(dp3622
g82
g83
ssg71
g3616
sg64
(lp3623
S'expiration'
p3624
asbag57
(g78
g59
NtRp3625
(dp3626
g62
(dp3627
g89
g90
ssg71
g3616
sg64
(lp3628
S':'
asbag57
(g78
g59
NtRp3629
(dp3630
g62
(dp3631
sg71
g3616
sg64
(lp3632
g57
(g58
g59
NtRp3633
(dp3634
g62
(dp3635
g70
I4
ssg71
g3629
sg64
(lp3636
S'3600'
p3637
asbasbasbag57
(g73
g59
NtRp3638
(dp3639
g62
(dp3640
sg71
g3612
sg64
(lp3641
g57
(g78
g59
NtRp3642
(dp3643
g62
(dp3644
g82
g83
ssg71
g3638
sg64
(lp3645
S'hmac_key'
p3646
asbag57
(g78
g59
NtRp3647
(dp3648
g62
(dp3649
g89
g90
ssg71
g3638
sg64
(lp3650
S':'
asbag57
(g78
g59
NtRp3651
(dp3652
g62
(dp3653
sg71
g3638
sg64
(lp3654
g57
(g58
g59
NtRp3655
(dp3656
g62
(dp3657
g70
I4
ssg71
g3651
sg64
(lp3658
S'a1b7daa5-f368-4d8f-8d36-0f21f873a393'
p3659
asbasbasbag57
(g73
g59
NtRp3660
(dp3661
g62
(dp3662
sg71
g3612
sg64
(lp3663
g57
(g78
g59
NtRp3664
(dp3665
g62
(dp3666
g82
g83
ssg71
g3660
sg64
(lp3667
S'last_visit'
p3668
asbag57
(g78
g59
NtRp3669
(dp3670
g62
(dp3671
g89
g90
ssg71
g3660
sg64
(lp3672
S':'
asbag57
(g78
g59
NtRp3673
(dp3674
g62
(dp3675
sg71
g3660
sg64
(lp3676
g57
(g58
g59
NtRp3677
(dp3678
g62
(dp3679
g70
I4
ssg71
g3673
sg64
(lp3680
S'datetime.datetime(2012, 9, 6, 16, 23, 8, 406552)'
p3681
asbasbasbag57
(g73
g59
NtRp3682
(dp3683
g62
(dp3684
sg71
g3612
sg64
(lp3685
g57
(g78
g59
NtRp3686
(dp3687
g62
(dp3688
g82
g83
ssg71
g3682
sg64
(lp3689
S'user'
p3690
asbag57
(g78
g59
NtRp3691
(dp3692
g62
(dp3693
g89
g90
ssg71
g3682
sg64
(lp3694
S':'
asbag57
(g78
g59
NtRp3695
(dp3696
g62
(dp3697
sg71
g3682
sg64
(lp3698
g57
(g58
g59
NtRp3699
(dp3700
g62
(dp3701
g70
I4
ssg71
g3695
sg64
(lp3702
g57
(g66
g59
NtRp3703
(dp3704
g62
(dp3705
g70
I3
ssg71
Nsg64
(lp3706
g57
(g73
g59
NtRp3707
(dp3708
g62
(dp3709
sg71
g3703
sg64
(lp3710
g57
(g78
g59
NtRp3711
(dp3712
g62
(dp3713
g82
g83
ssg71
g3707
sg64
(lp3714
S'email'
p3715
asbag57
(g78
g59
NtRp3716
(dp3717
g62
(dp3718
g89
g90
ssg71
g3707
sg64
(lp3719
S':'
asbag57
(g78
g59
NtRp3720
(dp3721
g62
(dp3722
sg71
g3707
sg64
(lp3723
g57
(g58
g59
NtRp3724
(dp3725
g62
(dp3726
g70
I3
ssg71
g3720
sg64
(lp3727
S'admin@admin.com'
p3728
asbasbasbag57
(g73
g59
NtRp3729
(dp3730
g62
(dp3731
sg71
g3703
sg64
(lp3732
g57
(g78
g59
NtRp3733
(dp3734
g62
(dp3735
g82
g83
ssg71
g3729
sg64
(lp3736
S'first_name'
p3737
asbag57
(g78
g59
NtRp3738
(dp3739
g62
(dp3740
g89
g90
ssg71
g3729
sg64
(lp3741
S':'
asbag57
(g78
g59
NtRp3742
(dp3743
g62
(dp3744
sg71
g3729
sg64
(lp3745
g57
(g58
g59
NtRp3746
(dp3747
g62
(dp3748
g70
I3
ssg71
g3742
sg64
(lp3749
S'admin'
p3750
asbasbasbag57
(g73
g59
NtRp3751
(dp3752
g62
(dp3753
sg71
g3703
sg64
(lp3754
g57
(g78
g59
NtRp3755
(dp3756
g62
(dp3757
g82
g83
ssg71
g3751
sg64
(lp3758
S'id'
p3759
asbag57
(g78
g59
NtRp3760
(dp3761
g62
(dp3762
g89
g90
ssg71
g3751
sg64
(lp3763
S':'
asbag57
(g78
g59
NtRp3764
(dp3765
g62
(dp3766
sg71
g3751
sg64
(lp3767
g57
(g58
g59
NtRp3768
(dp3769
g62
(dp3770
g70
I3
ssg71
g3764
sg64
(lp3771
S'1'
asbasbasbag57
(g73
g59
NtRp3772
(dp3773
g62
(dp3774
sg71
g3703
sg64
(lp3775
g57
(g78
g59
NtRp3776
(dp3777
g62
(dp3778
g82
g83
ssg71
g3772
sg64
(lp3779
S'last_name'
p3780
asbag57
(g78
g59
NtRp3781
(dp3782
g62
(dp3783
g89
g90
ssg71
g3772
sg64
(lp3784
S':'
asbag57
(g78
g59
NtRp3785
(dp3786
g62
(dp3787
sg71
g3772
sg64
(lp3788
g57
(g58
g59
NtRp3789
(dp3790
g62
(dp3791
g70
I3
ssg71
g3785
sg64
(lp3792
S'admin'
p3793
asbasbasbag57
(g73
g59
NtRp3794
(dp3795
g62
(dp3796
sg71
g3703
sg64
(lp3797
g57
(g78
g59
NtRp3798
(dp3799
g62
(dp3800
g82
g83
ssg71
g3794
sg64
(lp3801
S'password'
p3802
asbag57
(g78
g59
NtRp3803
(dp3804
g62
(dp3805
g89
g90
ssg71
g3794
sg64
(lp3806
S':'
asbag57
(g78
g59
NtRp3807
(dp3808
g62
(dp3809
sg71
g3794
sg64
(lp3810
g57
(g58
g59
NtRp3811
(dp3812
g62
(dp3813
g70
I3
ssg71
g3807
sg64
(lp3814
S'pbkdf2(1000,20,sha512)$95a5aa734dea8806$5f5d0f6e189f5049fb01daf061404b5257968886'
p3815
asbasbasbag57
(g73
g59
NtRp3816
(dp3817
g62
(dp3818
sg71
g3703
sg64
(lp3819
g57
(g78
g59
NtRp3820
(dp3821
g62
(dp3822
g82
g83
ssg71
g3816
sg64
(lp3823
S'registration_id'
p3824
asbag57
(g78
g59
NtRp3825
(dp3826
g62
(dp3827
g89
g90
ssg71
g3816
sg64
(lp3828
S':'
asbag57
(g78
g59
NtRp3829
(dp3830
g62
(dp3831
sg71
g3816
sg64
(lp3832
g57
(g58
g59
NtRp3833
(dp3834
g62
(dp3835
g70
I3
ssg71
g3829
sg64
(lp3836
S''
asbasbasbag57
(g73
g59
NtRp3837
(dp3838
g62
(dp3839
sg71
g3703
sg64
(lp3840
g57
(g78
g59
NtRp3841
(dp3842
g62
(dp3843
g82
g83
ssg71
g3837
sg64
(lp3844
S'registration_key'
p3845
asbag57
(g78
g59
NtRp3846
(dp3847
g62
(dp3848
g89
g90
ssg71
g3837
sg64
(lp3849
S':'
asbag57
(g78
g59
NtRp3850
(dp3851
g62
(dp3852
sg71
g3837
sg64
(lp3853
g57
(g58
g59
NtRp3854
(dp3855
g62
(dp3856
g70
I3
ssg71
g3850
sg64
(lp3857
S''
asbasbasbag57
(g73
g59
NtRp3858
(dp3859
g62
(dp3860
sg71
g3703
sg64
(lp3861
g57
(g78
g59
NtRp3862
(dp3863
g62
(dp3864
g82
g83
ssg71
g3858
sg64
(lp3865
S'reset_password_key'
p3866
asbag57
(g78
g59
NtRp3867
(dp3868
g62
(dp3869
g89
g90
ssg71
g3858
sg64
(lp3870
S':'
asbag57
(g78
g59
NtRp3871
(dp3872
g62
(dp3873
sg71
g3858
sg64
(lp3874
g57
(g58
g59
NtRp3875
(dp3876
g62
(dp3877
g70
I3
ssg71
g3871
sg64
(lp3878
S''
asbasbasbag57
(g73
g59
NtRp3879
(dp3880
g62
(dp3881
sg71
g3703
sg64
(lp3882
g57
(g78
g59
NtRp3883
(dp3884
g62
(dp3885
g82
g83
ssg71
g3879
sg64
(lp3886
S'username'
p3887
asbag57
(g78
g59
NtRp3888
(dp3889
g62
(dp3890
g89
g90
ssg71
g3879
sg64
(lp3891
S':'
asbag57
(g78
g59
NtRp3892
(dp3893
g62
(dp3894
sg71
g3879
sg64
(lp3895
g57
(g58
g59
NtRp3896
(dp3897
g62
(dp3898
g70
I3
ssg71
g3892
sg64
(lp3899
S'admin'
p3900
asbasbasbasbasbasbasbag57
(g73
g59
NtRp3901
(dp3902
g62
(dp3903
sg71
g3612
sg64
(lp3904
g57
(g78
g59
NtRp3905
(dp3906
g62
(dp3907
g82
g83
ssg71
g3901
sg64
(lp3908
S'user_groups'
p3909
asbag57
(g78
g59
NtRp3910
(dp3911
g62
(dp3912
g89
g90
ssg71
g3901
sg64
(lp3913
S':'
asbag57
(g78
g59
NtRp3914
(dp3915
g62
(dp3916
sg71
g3901
sg64
(lp3917
g57
(g58
g59
NtRp3918
(dp3919
g62
(dp3920
g70
I4
ssg71
g3914
sg64
(lp3921
g57
(g66
g59
NtRp3922
(dp3923
g62
(dp3924
g70
I3
ssg71
Nsg64
(lp3925
g57
(g73
g59
NtRp3926
(dp3927
g62
(dp3928
sg71
g3922
sg64
(lp3929
g57
(g78
g59
NtRp3930
(dp3931
g62
(dp3932
g82
g83
ssg71
g3926
sg64
(lp3933
S'1'
asbag57
(g78
g59
NtRp3934
(dp3935
g62
(dp3936
g89
g90
ssg71
g3926
sg64
(lp3937
S':'
asbag57
(g78
g59
NtRp3938
(dp3939
g62
(dp3940
sg71
g3926
sg64
(lp3941
g57
(g58
g59
NtRp3942
(dp3943
g62
(dp3944
g70
I3
ssg71
g3938
sg64
(lp3945
S'user_1'
p3946
asbasbasbasbasbasbasbasbasbasbasbag57
(g73
g59
NtRp3947
(dp3948
g62
(dp3949
sg71
g3587
sg64
(lp3950
g57
(g78
g59
NtRp3951
(dp3952
g62
(dp3953
g82
g83
ssg71
g3947
sg64
(lp3954
S'flash'
p3955
asbag57
(g78
g59
NtRp3956
(dp3957
g62
(dp3958
g89
g90
ssg71
g3947
sg64
(lp3959
S':'
asbag57
(g78
g59
NtRp3960
(dp3961
g62
(dp3962
sg71
g3947
sg64
(lp3963
g57
(g58
g59
NtRp3964
(dp3965
g62
(dp3966
g70
I5
ssg71
g3960
sg64
(lp3967
S'None'
p3968
asbasbasbasbasbsS'etype'
p3969
S"<type 'exceptions.AttributeError'>"
p3970
sS'date'
p3971
S'Thu Sep  6 16:28:51 2012'
p3972
sS'response'
p3973
g57
(g58
g59
NtRp3974
(dp3975
g62
(dp3976
sg64
(lp3977
g57
(g66
g59
NtRp3978
(dp3979
g62
(dp3980
g70
I5
ssg71
Nsg64
(lp3981
g57
(g73
g59
NtRp3982
(dp3983
g62
(dp3984
sg71
g3978
sg64
(lp3985
g57
(g78
g59
NtRp3986
(dp3987
g62
(dp3988
g82
g83
ssg71
g3982
sg64
(lp3989
g155
asbag57
(g78
g59
NtRp3990
(dp3991
g62
(dp3992
g89
g90
ssg71
g3982
sg64
(lp3993
S':'
asbag57
(g78
g59
NtRp3994
(dp3995
g62
(dp3996
sg71
g3982
sg64
(lp3997
g57
(g58
g59
NtRp3998
(dp3999
g62
(dp4000
g70
I5
ssg71
g3994
sg64
(lp4001
S'<cStringIO.StringO object at 0xb3fa3760>'
p4002
asbasbasbag57
(g73
g59
NtRp4003
(dp4004
g62
(dp4005
sg71
g3978
sg64
(lp4006
g57
(g78
g59
NtRp4007
(dp4008
g62
(dp4009
g82
g83
ssg71
g4003
sg64
(lp4010
g243
asbag57
(g78
g59
NtRp4011
(dp4012
g62
(dp4013
g89
g90
ssg71
g4003
sg64
(lp4014
S':'
asbag57
(g78
g59
NtRp4015
(dp4016
g62
(dp4017
sg71
g4003
sg64
(lp4018
g57
(g58
g59
NtRp4019
(dp4020
g62
(dp4021
g70
I5
ssg71
g4015
sg64
(lp4022
g57
(g66
g59
NtRp4023
(dp4024
g62
(dp4025
g70
I4
ssg71
Nsg64
(lp4026
g57
(g73
g59
NtRp4027
(dp4028
g62
(dp4029
sg71
g4023
sg64
(lp4030
g57
(g78
g59
NtRp4031
(dp4032
g62
(dp4033
g82
g83
ssg71
g4027
sg64
(lp4034
S'session_id_proyectos'
p4035
asbag57
(g78
g59
NtRp4036
(dp4037
g62
(dp4038
g89
g90
ssg71
g4027
sg64
(lp4039
S':'
asbag57
(g78
g59
NtRp4040
(dp4041
g62
(dp4042
sg71
g4027
sg64
(lp4043
g57
(g58
g59
NtRp4044
(dp4045
g62
(dp4046
g70
I4
ssg71
g4040
sg64
(lp4047
g660
ag57
(g66
g59
NtRp4048
(dp4049
g62
(dp4050
g70
I3
ssg71
Nsg64
(lp4051
g57
(g73
g59
NtRp4052
(dp4053
g62
(dp4054
sg71
g4048
sg64
(lp4055
g57
(g78
g59
NtRp4056
(dp4057
g62
(dp4058
g82
g83
ssg71
g4052
sg64
(lp4059
g293
asbag57
(g78
g59
NtRp4060
(dp4061
g62
(dp4062
g89
g90
ssg71
g4052
sg64
(lp4063
S':'
asbag57
(g78
g59
NtRp4064
(dp4065
g62
(dp4066
sg71
g4052
sg64
(lp4067
g57
(g58
g59
NtRp4068
(dp4069
g62
(dp4070
g70
I3
ssg71
g4064
sg64
(lp4071
S''
asbasbasbag57
(g73
g59
NtRp4072
(dp4073
g62
(dp4074
sg71
g4048
sg64
(lp4075
g57
(g78
g59
NtRp4076
(dp4077
g62
(dp4078
g82
g83
ssg71
g4072
sg64
(lp4079
g314
asbag57
(g78
g59
NtRp4080
(dp4081
g62
(dp4082
g89
g90
ssg71
g4072
sg64
(lp4083
S':'
asbag57
(g78
g59
NtRp4084
(dp4085
g62
(dp4086
sg71
g4072
sg64
(lp4087
g57
(g58
g59
NtRp4088
(dp4089
g62
(dp4090
g70
I3
ssg71
g4084
sg64
(lp4091
S''
asbasbasbag57
(g73
g59
NtRp4092
(dp4093
g62
(dp4094
sg71
g4048
sg64
(lp4095
g57
(g78
g59
NtRp4096
(dp4097
g62
(dp4098
g82
g83
ssg71
g4092
sg64
(lp4099
g335
asbag57
(g78
g59
NtRp4100
(dp4101
g62
(dp4102
g89
g90
ssg71
g4092
sg64
(lp4103
S':'
asbag57
(g78
g59
NtRp4104
(dp4105
g62
(dp4106
sg71
g4092
sg64
(lp4107
g57
(g58
g59
NtRp4108
(dp4109
g62
(dp4110
g70
I3
ssg71
g4104
sg64
(lp4111
S''
asbasbasbag57
(g73
g59
NtRp4112
(dp4113
g62
(dp4114
sg71
g4048
sg64
(lp4115
g57
(g78
g59
NtRp4116
(dp4117
g62
(dp4118
g82
g83
ssg71
g4112
sg64
(lp4119
g356
asbag57
(g78
g59
NtRp4120
(dp4121
g62
(dp4122
g89
g90
ssg71
g4112
sg64
(lp4123
S':'
asbag57
(g78
g59
NtRp4124
(dp4125
g62
(dp4126
sg71
g4112
sg64
(lp4127
g57
(g58
g59
NtRp4128
(dp4129
g62
(dp4130
g70
I3
ssg71
g4124
sg64
(lp4131
S''
asbasbasbag57
(g73
g59
NtRp4132
(dp4133
g62
(dp4134
sg71
g4048
sg64
(lp4135
g57
(g78
g59
NtRp4136
(dp4137
g62
(dp4138
g82
g83
ssg71
g4132
sg64
(lp4139
g377
asbag57
(g78
g59
NtRp4140
(dp4141
g62
(dp4142
g89
g90
ssg71
g4132
sg64
(lp4143
S':'
asbag57
(g78
g59
NtRp4144
(dp4145
g62
(dp4146
sg71
g4132
sg64
(lp4147
g57
(g58
g59
NtRp4148
(dp4149
g62
(dp4150
g70
I3
ssg71
g4144
sg64
(lp4151
S''
asbasbasbag57
(g73
g59
NtRp4152
(dp4153
g62
(dp4154
sg71
g4048
sg64
(lp4155
g57
(g78
g59
NtRp4156
(dp4157
g62
(dp4158
g82
g83
ssg71
g4152
sg64
(lp4159
g398
asbag57
(g78
g59
NtRp4160
(dp4161
g62
(dp4162
g89
g90
ssg71
g4152
sg64
(lp4163
S':'
asbag57
(g78
g59
NtRp4164
(dp4165
g62
(dp4166
sg71
g4152
sg64
(lp4167
g57
(g58
g59
NtRp4168
(dp4169
g62
(dp4170
g70
I3
ssg71
g4164
sg64
(lp4171
S'/'
asbasbasbag57
(g73
g59
NtRp4172
(dp4173
g62
(dp4174
sg71
g4048
sg64
(lp4175
g57
(g78
g59
NtRp4176
(dp4177
g62
(dp4178
g82
g83
ssg71
g4172
sg64
(lp4179
g419
asbag57
(g78
g59
NtRp4180
(dp4181
g62
(dp4182
g89
g90
ssg71
g4172
sg64
(lp4183
S':'
asbag57
(g78
g59
NtRp4184
(dp4185
g62
(dp4186
sg71
g4172
sg64
(lp4187
g57
(g58
g59
NtRp4188
(dp4189
g62
(dp4190
g70
I3
ssg71
g4184
sg64
(lp4191
S''
asbasbasbag57
(g73
g59
NtRp4192
(dp4193
g62
(dp4194
sg71
g4048
sg64
(lp4195
g57
(g78
g59
NtRp4196
(dp4197
g62
(dp4198
g82
g83
ssg71
g4192
sg64
(lp4199
g440
asbag57
(g78
g59
NtRp4200
(dp4201
g62
(dp4202
g89
g90
ssg71
g4192
sg64
(lp4203
S':'
asbag57
(g78
g59
NtRp4204
(dp4205
g62
(dp4206
sg71
g4192
sg64
(lp4207
g57
(g58
g59
NtRp4208
(dp4209
g62
(dp4210
g70
I3
ssg71
g4204
sg64
(lp4211
S''
asbasbasbasbasbasbasbasbasbasbasbag57
(g73
g59
NtRp4212
(dp4213
g62
(dp4214
sg71
g3978
sg64
(lp4215
g57
(g78
g59
NtRp4216
(dp4217
g62
(dp4218
g82
g83
ssg71
g4212
sg64
(lp4219
S'delimiters'
p4220
asbag57
(g78
g59
NtRp4221
(dp4222
g62
(dp4223
g89
g90
ssg71
g4212
sg64
(lp4224
S':'
asbag57
(g78
g59
NtRp4225
(dp4226
g62
(dp4227
sg71
g4212
sg64
(lp4228
g57
(g58
g59
NtRp4229
(dp4230
g62
(dp4231
g70
I5
ssg71
g4225
sg64
(lp4232
g57
(g66
g59
NtRp4233
(dp4234
g62
(dp4235
g70
I4
ssg71
Nsg64
(lp4236
g57
(g73
g59
NtRp4237
(dp4238
g62
(dp4239
sg71
g4233
sg64
(lp4240
g57
(g78
g59
NtRp4241
(dp4242
g62
(dp4243
sg71
g4237
sg64
(lp4244
g57
(g58
g59
NtRp4245
(dp4246
g62
(dp4247
g70
I4
ssg71
g4241
sg64
(lp4248
S'{{'
p4249
asbasbasbag57
(g73
g59
NtRp4250
(dp4251
g62
(dp4252
sg71
g4233
sg64
(lp4253
g57
(g78
g59
NtRp4254
(dp4255
g62
(dp4256
sg71
g4250
sg64
(lp4257
g57
(g58
g59
NtRp4258
(dp4259
g62
(dp4260
g70
I4
ssg71
g4254
sg64
(lp4261
S'}}'
p4262
asbasbasbasbasbasbasbag57
(g73
g59
NtRp4263
(dp4264
g62
(dp4265
sg71
g3978
sg64
(lp4266
g57
(g78
g59
NtRp4267
(dp4268
g62
(dp4269
g82
g83
ssg71
g4263
sg64
(lp4270
S'files'
p4271
asbag57
(g78
g59
NtRp4272
(dp4273
g62
(dp4274
g89
g90
ssg71
g4263
sg64
(lp4275
S':'
asbag57
(g78
g59
NtRp4276
(dp4277
g62
(dp4278
sg71
g4263
sg64
(lp4279
g57
(g58
g59
NtRp4280
(dp4281
g62
(dp4282
g70
I5
ssg71
g4276
sg64
(lp4283
g57
(g66
g59
NtRp4284
(dp4285
g62
(dp4286
g70
I4
ssg71
Nsg64
(lp4287
sbasbasbasbag57
(g73
g59
NtRp4288
(dp4289
g62
(dp4290
sg71
g3978
sg64
(lp4291
g57
(g78
g59
NtRp4292
(dp4293
g62
(dp4294
g82
g83
ssg71
g4288
sg64
(lp4295
S'flash'
p4296
asbag57
(g78
g59
NtRp4297
(dp4298
g62
(dp4299
g89
g90
ssg71
g4288
sg64
(lp4300
S':'
asbag57
(g78
g59
NtRp4301
(dp4302
g62
(dp4303
sg71
g4288
sg64
(lp4304
g57
(g58
g59
NtRp4305
(dp4306
g62
(dp4307
g70
I5
ssg71
g4301
sg64
(lp4308
S''
asbasbasbag57
(g73
g59
NtRp4309
(dp4310
g62
(dp4311
sg71
g3978
sg64
(lp4312
g57
(g78
g59
NtRp4313
(dp4314
g62
(dp4315
g82
g83
ssg71
g4309
sg64
(lp4316
S'generic_patterns'
p4317
asbag57
(g78
g59
NtRp4318
(dp4319
g62
(dp4320
g89
g90
ssg71
g4309
sg64
(lp4321
S':'
asbag57
(g78
g59
NtRp4322
(dp4323
g62
(dp4324
sg71
g4309
sg64
(lp4325
g57
(g58
g59
NtRp4326
(dp4327
g62
(dp4328
g70
I5
ssg71
g4322
sg64
(lp4329
g57
(g66
g59
NtRp4330
(dp4331
g62
(dp4332
g70
I4
ssg71
Nsg64
(lp4333
g57
(g73
g59
NtRp4334
(dp4335
g62
(dp4336
sg71
g4330
sg64
(lp4337
g57
(g78
g59
NtRp4338
(dp4339
g62
(dp4340
sg71
g4334
sg64
(lp4341
g57
(g58
g59
NtRp4342
(dp4343
g62
(dp4344
g70
I4
ssg71
g4338
sg64
(lp4345
S'*'
asbasbasbasbasbasbasbag57
(g73
g59
NtRp4346
(dp4347
g62
(dp4348
sg71
g3978
sg64
(lp4349
g57
(g78
g59
NtRp4350
(dp4351
g62
(dp4352
g82
g83
ssg71
g4346
sg64
(lp4353
S'google_analytics_id'
p4354
asbag57
(g78
g59
NtRp4355
(dp4356
g62
(dp4357
g89
g90
ssg71
g4346
sg64
(lp4358
S':'
asbag57
(g78
g59
NtRp4359
(dp4360
g62
(dp4361
sg71
g4346
sg64
(lp4362
g57
(g58
g59
NtRp4363
(dp4364
g62
(dp4365
g70
I5
ssg71
g4359
sg64
(lp4366
S'None'
p4367
asbasbasbag57
(g73
g59
NtRp4368
(dp4369
g62
(dp4370
sg71
g3978
sg64
(lp4371
g57
(g78
g59
NtRp4372
(dp4373
g62
(dp4374
g82
g83
ssg71
g4368
sg64
(lp4375
S'headers'
p4376
asbag57
(g78
g59
NtRp4377
(dp4378
g62
(dp4379
g89
g90
ssg71
g4368
sg64
(lp4380
S':'
asbag57
(g78
g59
NtRp4381
(dp4382
g62
(dp4383
sg71
g4368
sg64
(lp4384
g57
(g58
g59
NtRp4385
(dp4386
g62
(dp4387
g70
I5
ssg71
g4381
sg64
(lp4388
g57
(g66
g59
NtRp4389
(dp4390
g62
(dp4391
g70
I4
ssg71
Nsg64
(lp4392
g57
(g73
g59
NtRp4393
(dp4394
g62
(dp4395
sg71
g4389
sg64
(lp4396
g57
(g78
g59
NtRp4397
(dp4398
g62
(dp4399
g82
g83
ssg71
g4393
sg64
(lp4400
S'Cache-Control'
p4401
asbag57
(g78
g59
NtRp4402
(dp4403
g62
(dp4404
g89
g90
ssg71
g4393
sg64
(lp4405
S':'
asbag57
(g78
g59
NtRp4406
(dp4407
g62
(dp4408
sg71
g4393
sg64
(lp4409
g57
(g58
g59
NtRp4410
(dp4411
g62
(dp4412
g70
I4
ssg71
g4406
sg64
(lp4413
S'no-store, no-cache, must-revalidate, post-check=0, pre-check=0'
p4414
asbasbasbag57
(g73
g59
NtRp4415
(dp4416
g62
(dp4417
sg71
g4389
sg64
(lp4418
g57
(g78
g59
NtRp4419
(dp4420
g62
(dp4421
g82
g83
ssg71
g4415
sg64
(lp4422
S'Content-Type'
p4423
asbag57
(g78
g59
NtRp4424
(dp4425
g62
(dp4426
g89
g90
ssg71
g4415
sg64
(lp4427
S':'
asbag57
(g78
g59
NtRp4428
(dp4429
g62
(dp4430
sg71
g4415
sg64
(lp4431
g57
(g58
g59
NtRp4432
(dp4433
g62
(dp4434
g70
I4
ssg71
g4428
sg64
(lp4435
S'text/html; charset=utf-8'
p4436
asbasbasbag57
(g73
g59
NtRp4437
(dp4438
g62
(dp4439
sg71
g4389
sg64
(lp4440
g57
(g78
g59
NtRp4441
(dp4442
g62
(dp4443
g82
g83
ssg71
g4437
sg64
(lp4444
S'Expires'
p4445
asbag57
(g78
g59
NtRp4446
(dp4447
g62
(dp4448
g89
g90
ssg71
g4437
sg64
(lp4449
S':'
asbag57
(g78
g59
NtRp4450
(dp4451
g62
(dp4452
sg71
g4437
sg64
(lp4453
g57
(g58
g59
NtRp4454
(dp4455
g62
(dp4456
g70
I4
ssg71
g4450
sg64
(lp4457
S'Thu, 06 Sep 2012 21:28:51 GMT'
p4458
asbasbasbag57
(g73
g59
NtRp4459
(dp4460
g62
(dp4461
sg71
g4389
sg64
(lp4462
g57
(g78
g59
NtRp4463
(dp4464
g62
(dp4465
g82
g83
ssg71
g4459
sg64
(lp4466
S'Pragma'
p4467
asbag57
(g78
g59
NtRp4468
(dp4469
g62
(dp4470
g89
g90
ssg71
g4459
sg64
(lp4471
S':'
asbag57
(g78
g59
NtRp4472
(dp4473
g62
(dp4474
sg71
g4459
sg64
(lp4475
g57
(g58
g59
NtRp4476
(dp4477
g62
(dp4478
g70
I4
ssg71
g4472
sg64
(lp4479
S'no-cache'
p4480
asbasbasbag57
(g73
g59
NtRp4481
(dp4482
g62
(dp4483
sg71
g4389
sg64
(lp4484
g57
(g78
g59
NtRp4485
(dp4486
g62
(dp4487
g82
g83
ssg71
g4481
sg64
(lp4488
S'X-Powered-By'
p4489
asbag57
(g78
g59
NtRp4490
(dp4491
g62
(dp4492
g89
g90
ssg71
g4481
sg64
(lp4493
S':'
asbag57
(g78
g59
NtRp4494
(dp4495
g62
(dp4496
sg71
g4481
sg64
(lp4497
g57
(g58
g59
NtRp4498
(dp4499
g62
(dp4500
g70
I4
ssg71
g4494
sg64
(lp4501
S'web2py'
p4502
asbasbasbasbasbasbasbag57
(g73
g59
NtRp4503
(dp4504
g62
(dp4505
sg71
g3978
sg64
(lp4506
g57
(g78
g59
NtRp4507
(dp4508
g62
(dp4509
g82
g83
ssg71
g4503
sg64
(lp4510
S'menu'
p4511
asbag57
(g78
g59
NtRp4512
(dp4513
g62
(dp4514
g89
g90
ssg71
g4503
sg64
(lp4515
S':'
asbag57
(g78
g59
NtRp4516
(dp4517
g62
(dp4518
sg71
g4503
sg64
(lp4519
g57
(g58
g59
NtRp4520
(dp4521
g62
(dp4522
g70
I5
ssg71
g4516
sg64
(lp4523
g57
(g66
g59
NtRp4524
(dp4525
g62
(dp4526
g70
I4
ssg71
Nsg64
(lp4527
g57
(g73
g59
NtRp4528
(dp4529
g62
(dp4530
sg71
g4524
sg64
(lp4531
g57
(g78
g59
NtRp4532
(dp4533
g62
(dp4534
sg71
g4528
sg64
(lp4535
g57
(g58
g59
NtRp4536
(dp4537
g62
(dp4538
g70
I4
ssg71
g4532
sg64
(lp4539
g57
(g66
g59
NtRp4540
(dp4541
g62
(dp4542
g70
I3
ssg71
Nsg64
(lp4543
g57
(g73
g59
NtRp4544
(dp4545
g62
(dp4546
sg71
g4540
sg64
(lp4547
g57
(g78
g59
NtRp4548
(dp4549
g62
(dp4550
sg71
g4544
sg64
(lp4551
g57
(g58
g59
NtRp4552
(dp4553
g62
(dp4554
g70
I3
ssg71
g4548
sg64
(lp4555
cgluon.languages
lazyT_unpickle
p4556
(S's\x04\x00\x00\x00Home'
tRp4557
asbasbasbag57
(g73
g59
NtRp4558
(dp4559
g62
(dp4560
sg71
g4540
sg64
(lp4561
g57
(g78
g59
NtRp4562
(dp4563
g62
(dp4564
sg71
g4558
sg64
(lp4565
g57
(g58
g59
NtRp4566
(dp4567
g62
(dp4568
g70
I3
ssg71
g4562
sg64
(lp4569
g100
asbasbasbag57
(g73
g59
NtRp4570
(dp4571
g62
(dp4572
sg71
g4540
sg64
(lp4573
g57
(g78
g59
NtRp4574
(dp4575
g62
(dp4576
sg71
g4570
sg64
(lp4577
g57
(g58
g59
NtRp4578
(dp4579
g62
(dp4580
g70
I3
ssg71
g4574
sg64
(lp4581
S'/proyectos/default/index'
p4582
asbasbasbag57
(g73
g59
NtRp4583
(dp4584
g62
(dp4585
sg71
g4540
sg64
(lp4586
g57
(g78
g59
NtRp4587
(dp4588
g62
(dp4589
sg71
g4583
sg64
(lp4590
g57
(g58
g59
NtRp4591
(dp4592
g62
(dp4593
g70
I3
ssg71
g4587
sg64
(lp4594
g57
(g66
g59
NtRp4595
(dp4596
g62
(dp4597
g70
I2
ssg71
Nsg64
(lp4598
sbasbasbasbasbasbasbasbag57
(g73
g59
NtRp4599
(dp4600
g62
(dp4601
sg71
g4524
sg64
(lp4602
g57
(g78
g59
NtRp4603
(dp4604
g62
(dp4605
sg71
g4599
sg64
(lp4606
g57
(g58
g59
NtRp4607
(dp4608
g62
(dp4609
g70
I4
ssg71
g4603
sg64
(lp4610
g57
(g66
g59
NtRp4611
(dp4612
g62
(dp4613
g70
I3
ssg71
Nsg64
(lp4614
g57
(g73
g59
NtRp4615
(dp4616
g62
(dp4617
sg71
g4611
sg64
(lp4618
g57
(g78
g59
NtRp4619
(dp4620
g62
(dp4621
sg71
g4615
sg64
(lp4622
g57
(g58
g59
NtRp4623
(dp4624
g62
(dp4625
g70
I3
ssg71
g4619
sg64
(lp4626
g4556
(S's\x06\x00\x00\x00Grupos'
tRp4627
asbasbasbag57
(g73
g59
NtRp4628
(dp4629
g62
(dp4630
sg71
g4611
sg64
(lp4631
g57
(g78
g59
NtRp4632
(dp4633
g62
(dp4634
sg71
g4628
sg64
(lp4635
g57
(g58
g59
NtRp4636
(dp4637
g62
(dp4638
g70
I3
ssg71
g4632
sg64
(lp4639
g100
asbasbasbag57
(g73
g59
NtRp4640
(dp4641
g62
(dp4642
sg71
g4611
sg64
(lp4643
g57
(g78
g59
NtRp4644
(dp4645
g62
(dp4646
sg71
g4640
sg64
(lp4647
g57
(g58
g59
NtRp4648
(dp4649
g62
(dp4650
g70
I3
ssg71
g4644
sg64
(lp4651
S'/proyectos/configuracion/grupos'
p4652
asbasbasbag57
(g73
g59
NtRp4653
(dp4654
g62
(dp4655
sg71
g4611
sg64
(lp4656
g57
(g78
g59
NtRp4657
(dp4658
g62
(dp4659
sg71
g4653
sg64
(lp4660
g57
(g58
g59
NtRp4661
(dp4662
g62
(dp4663
g70
I3
ssg71
g4657
sg64
(lp4664
g57
(g66
g59
NtRp4665
(dp4666
g62
(dp4667
g70
I2
ssg71
Nsg64
(lp4668
sbasbasbasbasbasbasbasbag57
(g73
g59
NtRp4669
(dp4670
g62
(dp4671
sg71
g4524
sg64
(lp4672
g57
(g78
g59
NtRp4673
(dp4674
g62
(dp4675
sg71
g4669
sg64
(lp4676
g57
(g58
g59
NtRp4677
(dp4678
g62
(dp4679
g70
I4
ssg71
g4673
sg64
(lp4680
g57
(g66
g59
NtRp4681
(dp4682
g62
(dp4683
g70
I3
ssg71
Nsg64
(lp4684
g57
(g73
g59
NtRp4685
(dp4686
g62
(dp4687
sg71
g4681
sg64
(lp4688
g57
(g78
g59
NtRp4689
(dp4690
g62
(dp4691
sg71
g4685
sg64
(lp4692
g57
(g58
g59
NtRp4693
(dp4694
g62
(dp4695
g70
I3
ssg71
g4689
sg64
(lp4696
g4556
(S's\x07\x00\x00\x00Estados'
tRp4697
asbasbasbag57
(g73
g59
NtRp4698
(dp4699
g62
(dp4700
sg71
g4681
sg64
(lp4701
g57
(g78
g59
NtRp4702
(dp4703
g62
(dp4704
sg71
g4698
sg64
(lp4705
g57
(g58
g59
NtRp4706
(dp4707
g62
(dp4708
g70
I3
ssg71
g4702
sg64
(lp4709
g100
asbasbasbag57
(g73
g59
NtRp4710
(dp4711
g62
(dp4712
sg71
g4681
sg64
(lp4713
g57
(g78
g59
NtRp4714
(dp4715
g62
(dp4716
sg71
g4710
sg64
(lp4717
g57
(g58
g59
NtRp4718
(dp4719
g62
(dp4720
g70
I3
ssg71
g4714
sg64
(lp4721
S'/proyectos/configuracion/estados'
p4722
asbasbasbag57
(g73
g59
NtRp4723
(dp4724
g62
(dp4725
sg71
g4681
sg64
(lp4726
g57
(g78
g59
NtRp4727
(dp4728
g62
(dp4729
sg71
g4723
sg64
(lp4730
g57
(g58
g59
NtRp4731
(dp4732
g62
(dp4733
g70
I3
ssg71
g4727
sg64
(lp4734
g57
(g66
g59
NtRp4735
(dp4736
g62
(dp4737
g70
I2
ssg71
Nsg64
(lp4738
sbasbasbasbasbasbasbasbag57
(g73
g59
NtRp4739
(dp4740
g62
(dp4741
sg71
g4524
sg64
(lp4742
g57
(g78
g59
NtRp4743
(dp4744
g62
(dp4745
sg71
g4739
sg64
(lp4746
g57
(g58
g59
NtRp4747
(dp4748
g62
(dp4749
g70
I4
ssg71
g4743
sg64
(lp4750
g57
(g66
g59
NtRp4751
(dp4752
g62
(dp4753
g70
I3
ssg71
Nsg64
(lp4754
g57
(g73
g59
NtRp4755
(dp4756
g62
(dp4757
sg71
g4751
sg64
(lp4758
g57
(g78
g59
NtRp4759
(dp4760
g62
(dp4761
sg71
g4755
sg64
(lp4762
g57
(g58
g59
NtRp4763
(dp4764
g62
(dp4765
g70
I3
ssg71
g4759
sg64
(lp4766
g4556
(S's\x05\x00\x00\x00Tipos'
tRp4767
asbasbasbag57
(g73
g59
NtRp4768
(dp4769
g62
(dp4770
sg71
g4751
sg64
(lp4771
g57
(g78
g59
NtRp4772
(dp4773
g62
(dp4774
sg71
g4768
sg64
(lp4775
g57
(g58
g59
NtRp4776
(dp4777
g62
(dp4778
g70
I3
ssg71
g4772
sg64
(lp4779
g100
asbasbasbag57
(g73
g59
NtRp4780
(dp4781
g62
(dp4782
sg71
g4751
sg64
(lp4783
g57
(g78
g59
NtRp4784
(dp4785
g62
(dp4786
sg71
g4780
sg64
(lp4787
g57
(g58
g59
NtRp4788
(dp4789
g62
(dp4790
g70
I3
ssg71
g4784
sg64
(lp4791
S'/proyectos/configuracion/tipos'
p4792
asbasbasbag57
(g73
g59
NtRp4793
(dp4794
g62
(dp4795
sg71
g4751
sg64
(lp4796
g57
(g78
g59
NtRp4797
(dp4798
g62
(dp4799
sg71
g4793
sg64
(lp4800
g57
(g58
g59
NtRp4801
(dp4802
g62
(dp4803
g70
I3
ssg71
g4797
sg64
(lp4804
g57
(g66
g59
NtRp4805
(dp4806
g62
(dp4807
g70
I2
ssg71
Nsg64
(lp4808
sbasbasbasbasbasbasbasbag57
(g73
g59
NtRp4809
(dp4810
g62
(dp4811
sg71
g4524
sg64
(lp4812
g57
(g78
g59
NtRp4813
(dp4814
g62
(dp4815
sg71
g4809
sg64
(lp4816
g57
(g58
g59
NtRp4817
(dp4818
g62
(dp4819
g70
I4
ssg71
g4813
sg64
(lp4820
g57
(g66
g59
NtRp4821
(dp4822
g62
(dp4823
g70
I3
ssg71
Nsg64
(lp4824
g57
(g73
g59
NtRp4825
(dp4826
g62
(dp4827
sg71
g4821
sg64
(lp4828
g57
(g78
g59
NtRp4829
(dp4830
g62
(dp4831
sg71
g4825
sg64
(lp4832
g57
(g58
g59
NtRp4833
(dp4834
g62
(dp4835
g70
I3
ssg71
g4829
sg64
(lp4836
g4556
(S's\x08\x00\x00\x00Clientes'
tRp4837
asbasbasbag57
(g73
g59
NtRp4838
(dp4839
g62
(dp4840
sg71
g4821
sg64
(lp4841
g57
(g78
g59
NtRp4842
(dp4843
g62
(dp4844
sg71
g4838
sg64
(lp4845
g57
(g58
g59
NtRp4846
(dp4847
g62
(dp4848
g70
I3
ssg71
g4842
sg64
(lp4849
g100
asbasbasbag57
(g73
g59
NtRp4850
(dp4851
g62
(dp4852
sg71
g4821
sg64
(lp4853
g57
(g78
g59
NtRp4854
(dp4855
g62
(dp4856
sg71
g4850
sg64
(lp4857
g57
(g58
g59
NtRp4858
(dp4859
g62
(dp4860
g70
I3
ssg71
g4854
sg64
(lp4861
S'/proyectos/configuracion/clientes'
p4862
asbasbasbag57
(g73
g59
NtRp4863
(dp4864
g62
(dp4865
sg71
g4821
sg64
(lp4866
g57
(g78
g59
NtRp4867
(dp4868
g62
(dp4869
sg71
g4863
sg64
(lp4870
g57
(g58
g59
NtRp4871
(dp4872
g62
(dp4873
g70
I3
ssg71
g4867
sg64
(lp4874
g57
(g66
g59
NtRp4875
(dp4876
g62
(dp4877
g70
I2
ssg71
Nsg64
(lp4878
sbasbasbasbasbasbasbasbag57
(g73
g59
NtRp4879
(dp4880
g62
(dp4881
sg71
g4524
sg64
(lp4882
g57
(g78
g59
NtRp4883
(dp4884
g62
(dp4885
sg71
g4879
sg64
(lp4886
g57
(g58
g59
NtRp4887
(dp4888
g62
(dp4889
g70
I4
ssg71
g4883
sg64
(lp4890
g57
(g66
g59
NtRp4891
(dp4892
g62
(dp4893
g70
I3
ssg71
Nsg64
(lp4894
g57
(g73
g59
NtRp4895
(dp4896
g62
(dp4897
sg71
g4891
sg64
(lp4898
g57
(g78
g59
NtRp4899
(dp4900
g62
(dp4901
sg71
g4895
sg64
(lp4902
g57
(g58
g59
NtRp4903
(dp4904
g62
(dp4905
g70
I3
ssg71
g4899
sg64
(lp4906
g4556
(S's\t\x00\x00\x00proyectos'
tRp4907
asbasbasbag57
(g73
g59
NtRp4908
(dp4909
g62
(dp4910
sg71
g4891
sg64
(lp4911
g57
(g78
g59
NtRp4912
(dp4913
g62
(dp4914
sg71
g4908
sg64
(lp4915
g57
(g58
g59
NtRp4916
(dp4917
g62
(dp4918
g70
I3
ssg71
g4912
sg64
(lp4919
g100
asbasbasbag57
(g73
g59
NtRp4920
(dp4921
g62
(dp4922
sg71
g4891
sg64
(lp4923
g57
(g78
g59
NtRp4924
(dp4925
g62
(dp4926
sg71
g4920
sg64
(lp4927
g57
(g58
g59
NtRp4928
(dp4929
g62
(dp4930
g70
I3
ssg71
g4924
sg64
(lp4931
S'/proyectos/configuracion/proyectos'
p4932
asbasbasbag57
(g73
g59
NtRp4933
(dp4934
g62
(dp4935
sg71
g4891
sg64
(lp4936
g57
(g78
g59
NtRp4937
(dp4938
g62
(dp4939
sg71
g4933
sg64
(lp4940
g57
(g58
g59
NtRp4941
(dp4942
g62
(dp4943
g70
I3
ssg71
g4937
sg64
(lp4944
g57
(g66
g59
NtRp4945
(dp4946
g62
(dp4947
g70
I2
ssg71
Nsg64
(lp4948
sbasbasbasbasbasbasbasbag57
(g73
g59
NtRp4949
(dp4950
g62
(dp4951
sg71
g4524
sg64
(lp4952
g57
(g78
g59
NtRp4953
(dp4954
g62
(dp4955
sg71
g4949
sg64
(lp4956
g57
(g58
g59
NtRp4957
(dp4958
g62
(dp4959
g70
I4
ssg71
g4953
sg64
(lp4960
g57
(g66
g59
NtRp4961
(dp4962
g62
(dp4963
g70
I3
ssg71
Nsg64
(lp4964
g57
(g73
g59
NtRp4965
(dp4966
g62
(dp4967
sg71
g4961
sg64
(lp4968
g57
(g78
g59
NtRp4969
(dp4970
g62
(dp4971
sg71
g4965
sg64
(lp4972
g57
(g58
g59
NtRp4973
(dp4974
g62
(dp4975
g70
I3
ssg71
g4969
sg64
(lp4976
g4556
(S's\x06\x00\x00\x00Tareas'
tRp4977
asbasbasbag57
(g73
g59
NtRp4978
(dp4979
g62
(dp4980
sg71
g4961
sg64
(lp4981
g57
(g78
g59
NtRp4982
(dp4983
g62
(dp4984
sg71
g4978
sg64
(lp4985
g57
(g58
g59
NtRp4986
(dp4987
g62
(dp4988
g70
I3
ssg71
g4982
sg64
(lp4989
g100
asbasbasbag57
(g73
g59
NtRp4990
(dp4991
g62
(dp4992
sg71
g4961
sg64
(lp4993
g57
(g78
g59
NtRp4994
(dp4995
g62
(dp4996
sg71
g4990
sg64
(lp4997
g57
(g58
g59
NtRp4998
(dp4999
g62
(dp5000
g70
I3
ssg71
g4994
sg64
(lp5001
S'/proyectos/configuracion/tareas'
p5002
asbasbasbag57
(g73
g59
NtRp5003
(dp5004
g62
(dp5005
sg71
g4961
sg64
(lp5006
g57
(g78
g59
NtRp5007
(dp5008
g62
(dp5009
sg71
g5003
sg64
(lp5010
g57
(g58
g59
NtRp5011
(dp5012
g62
(dp5013
g70
I3
ssg71
g5007
sg64
(lp5014
g57
(g66
g59
NtRp5015
(dp5016
g62
(dp5017
g70
I2
ssg71
Nsg64
(lp5018
sbasbasbasbasbasbasbasbag57
(g73
g59
NtRp5019
(dp5020
g62
(dp5021
sg71
g4524
sg64
(lp5022
g57
(g78
g59
NtRp5023
(dp5024
g62
(dp5025
sg71
g5019
sg64
(lp5026
g57
(g58
g59
NtRp5027
(dp5028
g62
(dp5029
g70
I4
ssg71
g5023
sg64
(lp5030
g57
(g66
g59
NtRp5031
(dp5032
g62
(dp5033
g70
I3
ssg71
Nsg64
(lp5034
g57
(g73
g59
NtRp5035
(dp5036
g62
(dp5037
sg71
g5031
sg64
(lp5038
g57
(g78
g59
NtRp5039
(dp5040
g62
(dp5041
sg71
g5035
sg64
(lp5042
g57
(g58
g59
NtRp5043
(dp5044
g62
(dp5045
g70
I3
ssg71
g5039
sg64
(lp5046
g57
(cgluon.html
SPAN
p5047
g59
NtRp5048
(dp5049
g62
(dp5050
g82
S'color:yellow'
p5051
ssg71
Nsg64
(lp5052
g4502
asbasbasbasbag57
(g73
g59
NtRp5053
(dp5054
g62
(dp5055
sg71
g5031
sg64
(lp5056
g57
(g78
g59
NtRp5057
(dp5058
g62
(dp5059
sg71
g5053
sg64
(lp5060
g57
(g58
g59
NtRp5061
(dp5062
g62
(dp5063
g70
I3
ssg71
g5057
sg64
(lp5064
g100
asbasbasbag57
(g73
g59
NtRp5065
(dp5066
g62
(dp5067
sg71
g5031
sg64
(lp5068
g57
(g78
g59
NtRp5069
(dp5070
g62
(dp5071
sg71
g5065
sg64
(lp5072
g57
(g58
g59
NtRp5073
(dp5074
g62
(dp5075
g70
I3
ssg71
g5069
sg64
(lp5076
S'http://web2py.com'
p5077
asbasbasbag57
(g73
g59
NtRp5078
(dp5079
g62
(dp5080
sg71
g5031
sg64
(lp5081
g57
(g78
g59
NtRp5082
(dp5083
g62
(dp5084
sg71
g5078
sg64
(lp5085
g57
(g58
g59
NtRp5086
(dp5087
g62
(dp5088
g70
I3
ssg71
g5082
sg64
(lp5089
g57
(g66
g59
NtRp5090
(dp5091
g62
(dp5092
g70
I2
ssg71
Nsg64
(lp5093
g57
(g73
g59
NtRp5094
(dp5095
g62
(dp5096
sg71
g5090
sg64
(lp5097
g57
(g78
g59
NtRp5098
(dp5099
g62
(dp5100
sg71
g5094
sg64
(lp5101
g57
(g58
g59
NtRp5102
(dp5103
g62
(dp5104
g70
I2
ssg71
g5098
sg64
(lp5105
g57
(g66
g59
NtRp5106
(dp5107
g62
(dp5108
g70
I1
ssg71
Nsg64
(lp5109
g57
(g73
g59
NtRp5110
(dp5111
g62
(dp5112
sg71
g5106
sg64
(lp5113
g57
(g78
g59
NtRp5114
(dp5115
g62
(dp5116
sg71
g5110
sg64
(lp5117
g57
(g58
g59
NtRp5118
(dp5119
g62
(dp5120
g70
I1
ssg71
g5114
sg64
(lp5121
g4556
(S's\x08\x00\x00\x00My Sites'
tRp5122
asbasbasbag57
(g73
g59
NtRp5123
(dp5124
g62
(dp5125
sg71
g5106
sg64
(lp5126
g57
(g78
g59
NtRp5127
(dp5128
g62
(dp5129
sg71
g5123
sg64
(lp5130
g57
(g58
g59
NtRp5131
(dp5132
g62
(dp5133
g70
I1
ssg71
g5127
sg64
(lp5134
I00
asbasbasbag57
(g73
g59
NtRp5135
(dp5136
g62
(dp5137
sg71
g5106
sg64
(lp5138
g57
(g78
g59
NtRp5139
(dp5140
g62
(dp5141
sg71
g5135
sg64
(lp5142
g57
(g58
g59
NtRp5143
(dp5144
g62
(dp5145
g70
I1
ssg71
g5139
sg64
(lp5146
S'/admin/default/site'
p5147
asbasbasbasbasbasbasbag57
(g73
g59
NtRp5148
(dp5149
g62
(dp5150
sg71
g5090
sg64
(lp5151
g57
(g78
g59
NtRp5152
(dp5153
g62
(dp5154
sg71
g5148
sg64
(lp5155
g57
(g58
g59
NtRp5156
(dp5157
g62
(dp5158
g70
I2
ssg71
g5152
sg64
(lp5159
g57
(g66
g59
NtRp5160
(dp5161
g62
(dp5162
g70
I1
ssg71
Nsg64
(lp5163
g57
(g73
g59
NtRp5164
(dp5165
g62
(dp5166
sg71
g5160
sg64
(lp5167
g57
(g78
g59
NtRp5168
(dp5169
g62
(dp5170
sg71
g5164
sg64
(lp5171
g57
(g58
g59
NtRp5172
(dp5173
g62
(dp5174
g70
I1
ssg71
g5168
sg64
(lp5175
g4556
(S's\x08\x00\x00\x00This App'
tRp5176
asbasbasbag57
(g73
g59
NtRp5177
(dp5178
g62
(dp5179
sg71
g5160
sg64
(lp5180
g57
(g78
g59
NtRp5181
(dp5182
g62
(dp5183
sg71
g5177
sg64
(lp5184
g57
(g58
g59
NtRp5185
(dp5186
g62
(dp5187
g70
I1
ssg71
g5181
sg64
(lp5188
I00
asbasbasbag57
(g73
g59
NtRp5189
(dp5190
g62
(dp5191
sg71
g5160
sg64
(lp5192
g57
(g78
g59
NtRp5193
(dp5194
g62
(dp5195
sg71
g5189
sg64
(lp5196
g57
(g58
g59
NtRp5197
(dp5198
g62
(dp5199
g70
I1
ssg71
g5193
sg64
(lp5200
S'/admin/default/design/proyectos'
p5201
asbasbasbag57
(g73
g59
NtRp5202
(dp5203
g62
(dp5204
sg71
g5160
sg64
(lp5205
g57
(g78
g59
NtRp5206
(dp5207
g62
(dp5208
sg71
g5202
sg64
(lp5209
g57
(g58
g59
NtRp5210
(dp5211
g62
(dp5212
g70
I1
ssg71
g5206
sg64
(lp5213
(lp5214
(g4556
(S's\x0b\x00\x00\x00Controlador'
tRp5215
I00
S'/admin/default/edit/proyectos/controllers/configuracion.py'
tp5216
a(g4556
(S's\x05\x00\x00\x00Vista'
tRp5217
I00
S'/admin/default/edit/proyectos/views/configuracion/proyectos.html'
tp5218
a(g4556
(S's\x12\x00\x00\x00Dise\xc3\xb1o de p\xc3\xa1gina'
tRp5219
I00
S'/admin/default/edit/proyectos/views/layout.html'
tp5220
a(g4556
(S's\x0e\x00\x00\x00Hoja de estilo'
tRp5221
I00
S'/admin/default/edit/proyectos/static/css/web2py.css'
tp5222
a(g4556
(S's\x0b\x00\x00\x00Modelo "db"'
tRp5223
I00
S'/admin/default/edit/proyectos/models/db.py'
tp5224
a(g4556
(S's\r\x00\x00\x00Modelo "menu"'
tRp5225
I00
S'/admin/default/edit/proyectos/models/menu.py'
tp5226
a(g4556
(S's\r\x00\x00\x00base de datos'
tRp5227
I00
S'/proyectos/appadmin/index'
tp5228
a(g4556
(S's\x06\x00\x00\x00Errors'
tRp5229
I00
S'/admin/default/errors/proyectos'
tp5230
a(g4556
(S's\t\x00\x00\x00Acerca de'
tRp5231
I00
S'/admin/default/about/proyectos'
tp5232
aasbasbasbasbasbasbasbag57
(g73
g59
NtRp5233
(dp5234
g62
(dp5235
sg71
g5090
sg64
(lp5236
g57
(g78
g59
NtRp5237
(dp5238
g62
(dp5239
sg71
g5233
sg64
(lp5240
g57
(g58
g59
NtRp5241
(dp5242
g62
(dp5243
g70
I2
ssg71
g5237
sg64
(lp5244
g57
(g66
g59
NtRp5245
(dp5246
g62
(dp5247
g70
I1
ssg71
Nsg64
(lp5248
g57
(g73
g59
NtRp5249
(dp5250
g62
(dp5251
sg71
g5245
sg64
(lp5252
g57
(g78
g59
NtRp5253
(dp5254
g62
(dp5255
sg71
g5249
sg64
(lp5256
g57
(g58
g59
NtRp5257
(dp5258
g62
(dp5259
g70
I1
ssg71
g5253
sg64
(lp5260
S'web2py.com'
p5261
asbasbasbag57
(g73
g59
NtRp5262
(dp5263
g62
(dp5264
sg71
g5245
sg64
(lp5265
g57
(g78
g59
NtRp5266
(dp5267
g62
(dp5268
sg71
g5262
sg64
(lp5269
g57
(g58
g59
NtRp5270
(dp5271
g62
(dp5272
g70
I1
ssg71
g5266
sg64
(lp5273
I00
asbasbasbag57
(g73
g59
NtRp5274
(dp5275
g62
(dp5276
sg71
g5245
sg64
(lp5277
g57
(g78
g59
NtRp5278
(dp5279
g62
(dp5280
sg71
g5274
sg64
(lp5281
g57
(g58
g59
NtRp5282
(dp5283
g62
(dp5284
g70
I1
ssg71
g5278
sg64
(lp5285
S'http://www.web2py.com'
p5286
asbasbasbag57
(g73
g59
NtRp5287
(dp5288
g62
(dp5289
sg71
g5245
sg64
(lp5290
g57
(g78
g59
NtRp5291
(dp5292
g62
(dp5293
sg71
g5287
sg64
(lp5294
g57
(g58
g59
NtRp5295
(dp5296
g62
(dp5297
g70
I1
ssg71
g5291
sg64
(lp5298
(lp5299
(g4556
(S's\x08\x00\x00\x00Download'
tRp5300
I00
S'http://www.web2py.com/examples/default/download'
p5301
tp5302
a(g4556
(S's\x07\x00\x00\x00Support'
tRp5303
I00
S'http://www.web2py.com/examples/default/support'
p5304
tp5305
a(g4556
(S's\x04\x00\x00\x00Demo'
tRp5306
I00
S'http://web2py.com/demo_admin'
p5307
tp5308
a(g4556
(S's\x0e\x00\x00\x00Quick Examples'
tRp5309
I00
S'http://web2py.com/examples/default/examples'
p5310
tp5311
a(g4556
(S's\x03\x00\x00\x00FAQ'
tRp5312
I00
S'http://web2py.com/AlterEgo'
p5313
tp5314
a(g4556
(S's\x06\x00\x00\x00Videos'
tRp5315
I00
S'http://www.web2py.com/examples/default/videos/'
p5316
tp5317
a(g4556
(S's\x11\x00\x00\x00Free Applications'
tRp5318
I00
S'http://web2py.com/appliances'
p5319
tp5320
a(g4556
(S's\x07\x00\x00\x00Plugins'
tRp5321
I00
S'http://web2py.com/plugins'
p5322
tp5323
a(g4556
(S's\x07\x00\x00\x00Layouts'
tRp5324
I00
S'http://web2py.com/layouts'
p5325
tp5326
a(g4556
(S's\x07\x00\x00\x00Recipes'
tRp5327
I00
S'http://web2pyslices.com/'
p5328
tp5329
a(g4556
(S's\x08\x00\x00\x00Semantic'
tRp5330
I00
S'http://web2py.com/semantic'
p5331
tp5332
aasbasbasbasbasbasbasbag57
(g73
g59
NtRp5333
(dp5334
g62
(dp5335
sg71
g5090
sg64
(lp5336
g57
(g78
g59
NtRp5337
(dp5338
g62
(dp5339
sg71
g5333
sg64
(lp5340
g57
(g58
g59
NtRp5341
(dp5342
g62
(dp5343
g70
I2
ssg71
g5337
sg64
(lp5344
g57
(g66
g59
NtRp5345
(dp5346
g62
(dp5347
g70
I1
ssg71
Nsg64
(lp5348
g57
(g73
g59
NtRp5349
(dp5350
g62
(dp5351
sg71
g5345
sg64
(lp5352
g57
(g78
g59
NtRp5353
(dp5354
g62
(dp5355
sg71
g5349
sg64
(lp5356
g57
(g58
g59
NtRp5357
(dp5358
g62
(dp5359
g70
I1
ssg71
g5353
sg64
(lp5360
g4556
(S's\x0e\x00\x00\x00Documentaci\xc3\xb3n'
tRp5361
asbasbasbag57
(g73
g59
NtRp5362
(dp5363
g62
(dp5364
sg71
g5345
sg64
(lp5365
g57
(g78
g59
NtRp5366
(dp5367
g62
(dp5368
sg71
g5362
sg64
(lp5369
g57
(g58
g59
NtRp5370
(dp5371
g62
(dp5372
g70
I1
ssg71
g5366
sg64
(lp5373
I00
asbasbasbag57
(g73
g59
NtRp5374
(dp5375
g62
(dp5376
sg71
g5345
sg64
(lp5377
g57
(g78
g59
NtRp5378
(dp5379
g62
(dp5380
sg71
g5374
sg64
(lp5381
g57
(g58
g59
NtRp5382
(dp5383
g62
(dp5384
g70
I1
ssg71
g5378
sg64
(lp5385
S'http://www.web2py.com/book'
p5386
asbasbasbag57
(g73
g59
NtRp5387
(dp5388
g62
(dp5389
sg71
g5345
sg64
(lp5390
g57
(g78
g59
NtRp5391
(dp5392
g62
(dp5393
sg71
g5387
sg64
(lp5394
g57
(g58
g59
NtRp5395
(dp5396
g62
(dp5397
g70
I1
ssg71
g5391
sg64
(lp5398
(lp5399
(g4556
(S's\x07\x00\x00\x00Preface'
tRp5400
I00
S'http://www.web2py.com/book/default/chapter/00'
p5401
tp5402
a(g4556
(S's\x0c\x00\x00\x00Introduction'
tRp5403
I00
S'http://www.web2py.com/book/default/chapter/01'
p5404
tp5405
a(g4556
(S's\x06\x00\x00\x00Python'
tRp5406
I00
S'http://www.web2py.com/book/default/chapter/02'
p5407
tp5408
a(g4556
(S's\x08\x00\x00\x00Overview'
tRp5409
I00
S'http://www.web2py.com/book/default/chapter/03'
p5410
tp5411
a(g4556
(S's\x08\x00\x00\x00The Core'
tRp5412
I00
S'http://www.web2py.com/book/default/chapter/04'
p5413
tp5414
a(g4556
(S's\t\x00\x00\x00The Views'
tRp5415
I00
S'http://www.web2py.com/book/default/chapter/05'
p5416
tp5417
a(g4556
(S's\r\x00\x00\x00base de datos'
tRp5418
I00
S'http://www.web2py.com/book/default/chapter/06'
p5419
tp5420
a(g4556
(S's\x14\x00\x00\x00Forms and Validators'
tRp5421
I00
S'http://www.web2py.com/book/default/chapter/07'
p5422
tp5423
a(g4556
(S's\r\x00\x00\x00Email and SMS'
tRp5424
I00
S'http://www.web2py.com/book/default/chapter/08'
p5425
tp5426
a(g4556
(S's\x0e\x00\x00\x00Access Control'
tRp5427
I00
S'http://www.web2py.com/book/default/chapter/09'
p5428
tp5429
a(g4556
(S's\x08\x00\x00\x00Services'
tRp5430
I00
S'http://www.web2py.com/book/default/chapter/10'
p5431
tp5432
a(g4556
(S's\x0c\x00\x00\x00Ajax Recipes'
tRp5433
I00
S'http://www.web2py.com/book/default/chapter/11'
p5434
tp5435
a(g4556
(S's\x16\x00\x00\x00Components and Plugins'
tRp5436
I00
S'http://www.web2py.com/book/default/chapter/12'
p5437
tp5438
a(g4556
(S's\x12\x00\x00\x00Deployment Recipes'
tRp5439
I00
S'http://www.web2py.com/book/default/chapter/13'
p5440
tp5441
a(g4556
(S's\r\x00\x00\x00Other Recipes'
tRp5442
I00
S'http://www.web2py.com/book/default/chapter/14'
p5443
tp5444
a(g4556
(S's\r\x00\x00\x00Buy this book'
tRp5445
I00
S'http://stores.lulu.com/web2py'
p5446
tp5447
aasbasbasbasbasbasbasbag57
(g73
g59
NtRp5448
(dp5449
g62
(dp5450
sg71
g5090
sg64
(lp5451
g57
(g78
g59
NtRp5452
(dp5453
g62
(dp5454
sg71
g5448
sg64
(lp5455
g57
(g58
g59
NtRp5456
(dp5457
g62
(dp5458
g70
I2
ssg71
g5452
sg64
(lp5459
g57
(g66
g59
NtRp5460
(dp5461
g62
(dp5462
g70
I1
ssg71
Nsg64
(lp5463
g57
(g73
g59
NtRp5464
(dp5465
g62
(dp5466
sg71
g5460
sg64
(lp5467
g57
(g78
g59
NtRp5468
(dp5469
g62
(dp5470
sg71
g5464
sg64
(lp5471
g57
(g58
g59
NtRp5472
(dp5473
g62
(dp5474
g70
I1
ssg71
g5468
sg64
(lp5475
g4556
(S's\t\x00\x00\x00Community'
tRp5476
asbasbasbag57
(g73
g59
NtRp5477
(dp5478
g62
(dp5479
sg71
g5460
sg64
(lp5480
g57
(g78
g59
NtRp5481
(dp5482
g62
(dp5483
sg71
g5477
sg64
(lp5484
g57
(g58
g59
NtRp5485
(dp5486
g62
(dp5487
g70
I1
ssg71
g5481
sg64
(lp5488
I00
asbasbasbag57
(g73
g59
NtRp5489
(dp5490
g62
(dp5491
sg71
g5460
sg64
(lp5492
g57
(g78
g59
NtRp5493
(dp5494
g62
(dp5495
sg71
g5489
sg64
(lp5496
g57
(g58
g59
NtRp5497
(dp5498
g62
(dp5499
g70
I1
ssg71
g5493
sg64
(lp5500
Nasbasbasbag57
(g73
g59
NtRp5501
(dp5502
g62
(dp5503
sg71
g5460
sg64
(lp5504
g57
(g78
g59
NtRp5505
(dp5506
g62
(dp5507
sg71
g5501
sg64
(lp5508
g57
(g58
g59
NtRp5509
(dp5510
g62
(dp5511
g70
I1
ssg71
g5505
sg64
(lp5512
(lp5513
(g4556
(S's\x06\x00\x00\x00Groups'
tRp5514
I00
S'http://www.web2py.com/examples/default/usergroups'
p5515
tp5516
a(g4556
(S's\x07\x00\x00\x00Twitter'
tRp5517
I00
S'http://twitter.com/web2py'
p5518
tp5519
a(g4556
(S's\t\x00\x00\x00Live Chat'
tRp5520
I00
S'http://webchat.freenode.net/?channels=web2py'
p5521
tp5522
aasbasbasbasbasbasbasbag57
(g73
g59
NtRp5523
(dp5524
g62
(dp5525
sg71
g5090
sg64
(lp5526
g57
(g78
g59
NtRp5527
(dp5528
g62
(dp5529
sg71
g5523
sg64
(lp5530
g57
(g58
g59
NtRp5531
(dp5532
g62
(dp5533
g70
I2
ssg71
g5527
sg64
(lp5534
g57
(g66
g59
NtRp5535
(dp5536
g62
(dp5537
g70
I1
ssg71
Nsg64
(lp5538
g57
(g73
g59
NtRp5539
(dp5540
g62
(dp5541
sg71
g5535
sg64
(lp5542
g57
(g78
g59
NtRp5543
(dp5544
g62
(dp5545
sg71
g5539
sg64
(lp5546
g57
(g58
g59
NtRp5547
(dp5548
g62
(dp5549
g70
I1
ssg71
g5543
sg64
(lp5550
g4556
(S's\x07\x00\x00\x00Plugins'
tRp5551
asbasbasbag57
(g73
g59
NtRp5552
(dp5553
g62
(dp5554
sg71
g5535
sg64
(lp5555
g57
(g78
g59
NtRp5556
(dp5557
g62
(dp5558
sg71
g5552
sg64
(lp5559
g57
(g58
g59
NtRp5560
(dp5561
g62
(dp5562
g70
I1
ssg71
g5556
sg64
(lp5563
I00
asbasbasbag57
(g73
g59
NtRp5564
(dp5565
g62
(dp5566
sg71
g5535
sg64
(lp5567
g57
(g78
g59
NtRp5568
(dp5569
g62
(dp5570
sg71
g5564
sg64
(lp5571
g57
(g58
g59
NtRp5572
(dp5573
g62
(dp5574
g70
I1
ssg71
g5568
sg64
(lp5575
Nasbasbasbag57
(g73
g59
NtRp5576
(dp5577
g62
(dp5578
sg71
g5535
sg64
(lp5579
g57
(g78
g59
NtRp5580
(dp5581
g62
(dp5582
sg71
g5576
sg64
(lp5583
g57
(g58
g59
NtRp5584
(dp5585
g62
(dp5586
g70
I1
ssg71
g5580
sg64
(lp5587
(lp5588
(S'plugin_wiki'
p5589
I00
S'http://web2py.com/examples/default/download'
p5590
tp5591
a(g4556
(S's\r\x00\x00\x00Other Plugins'
tRp5592
I00
g5322
tp5593
a(g4556
(S's\x0e\x00\x00\x00Layout Plugins'
tRp5594
I00
g5325
tp5595
aasbasbasbasbasbasbasbasbasbasbasbasbasbasbasbasbasbasbasbag57
(g73
g59
NtRp5596
(dp5597
g62
(dp5598
sg71
g3978
sg64
(lp5599
g57
(g78
g59
NtRp5600
(dp5601
g62
(dp5602
g82
g83
ssg71
g5596
sg64
(lp5603
S'meta'
p5604
asbag57
(g78
g59
NtRp5605
(dp5606
g62
(dp5607
g89
g90
ssg71
g5596
sg64
(lp5608
S':'
asbag57
(g78
g59
NtRp5609
(dp5610
g62
(dp5611
sg71
g5596
sg64
(lp5612
g57
(g58
g59
NtRp5613
(dp5614
g62
(dp5615
g70
I5
ssg71
g5609
sg64
(lp5616
g57
(g66
g59
NtRp5617
(dp5618
g62
(dp5619
g70
I4
ssg71
Nsg64
(lp5620
g57
(g73
g59
NtRp5621
(dp5622
g62
(dp5623
sg71
g5617
sg64
(lp5624
g57
(g78
g59
NtRp5625
(dp5626
g62
(dp5627
g82
g83
ssg71
g5621
sg64
(lp5628
S'author'
p5629
asbag57
(g78
g59
NtRp5630
(dp5631
g62
(dp5632
g89
g90
ssg71
g5621
sg64
(lp5633
S':'
asbag57
(g78
g59
NtRp5634
(dp5635
g62
(dp5636
sg71
g5621
sg64
(lp5637
g57
(g58
g59
NtRp5638
(dp5639
g62
(dp5640
g70
I4
ssg71
g5634
sg64
(lp5641
S'Your Name <you@example.com>'
p5642
asbasbasbag57
(g73
g59
NtRp5643
(dp5644
g62
(dp5645
sg71
g5617
sg64
(lp5646
g57
(g78
g59
NtRp5647
(dp5648
g62
(dp5649
g82
g83
ssg71
g5643
sg64
(lp5650
S'description'
p5651
asbag57
(g78
g59
NtRp5652
(dp5653
g62
(dp5654
g89
g90
ssg71
g5643
sg64
(lp5655
S':'
asbag57
(g78
g59
NtRp5656
(dp5657
g62
(dp5658
sg71
g5643
sg64
(lp5659
g57
(g58
g59
NtRp5660
(dp5661
g62
(dp5662
g70
I4
ssg71
g5656
sg64
(lp5663
S'a cool new app'
p5664
asbasbasbag57
(g73
g59
NtRp5665
(dp5666
g62
(dp5667
sg71
g5617
sg64
(lp5668
g57
(g78
g59
NtRp5669
(dp5670
g62
(dp5671
g82
g83
ssg71
g5665
sg64
(lp5672
S'generator'
p5673
asbag57
(g78
g59
NtRp5674
(dp5675
g62
(dp5676
g89
g90
ssg71
g5665
sg64
(lp5677
S':'
asbag57
(g78
g59
NtRp5678
(dp5679
g62
(dp5680
sg71
g5665
sg64
(lp5681
g57
(g58
g59
NtRp5682
(dp5683
g62
(dp5684
g70
I4
ssg71
g5678
sg64
(lp5685
S'Web2py Web Framework'
p5686
asbasbasbag57
(g73
g59
NtRp5687
(dp5688
g62
(dp5689
sg71
g5617
sg64
(lp5690
g57
(g78
g59
NtRp5691
(dp5692
g62
(dp5693
g82
g83
ssg71
g5687
sg64
(lp5694
S'keywords'
p5695
asbag57
(g78
g59
NtRp5696
(dp5697
g62
(dp5698
g89
g90
ssg71
g5687
sg64
(lp5699
S':'
asbag57
(g78
g59
NtRp5700
(dp5701
g62
(dp5702
sg71
g5687
sg64
(lp5703
g57
(g58
g59
NtRp5704
(dp5705
g62
(dp5706
g70
I4
ssg71
g5700
sg64
(lp5707
S'web2py, python, framework'
p5708
asbasbasbasbasbasbasbag57
(g73
g59
NtRp5709
(dp5710
g62
(dp5711
sg71
g3978
sg64
(lp5712
g57
(g78
g59
NtRp5713
(dp5714
g62
(dp5715
g82
g83
ssg71
g5709
sg64
(lp5716
S'postprocessing'
p5717
asbag57
(g78
g59
NtRp5718
(dp5719
g62
(dp5720
g89
g90
ssg71
g5709
sg64
(lp5721
S':'
asbag57
(g78
g59
NtRp5722
(dp5723
g62
(dp5724
sg71
g5709
sg64
(lp5725
g57
(g58
g59
NtRp5726
(dp5727
g62
(dp5728
g70
I5
ssg71
g5722
sg64
(lp5729
g57
(g66
g59
NtRp5730
(dp5731
g62
(dp5732
g70
I4
ssg71
Nsg64
(lp5733
sbasbasbasbag57
(g73
g59
NtRp5734
(dp5735
g62
(dp5736
sg71
g3978
sg64
(lp5737
g57
(g78
g59
NtRp5738
(dp5739
g62
(dp5740
g82
g83
ssg71
g5734
sg64
(lp5741
S'session_file'
p5742
asbag57
(g78
g59
NtRp5743
(dp5744
g62
(dp5745
g89
g90
ssg71
g5734
sg64
(lp5746
S':'
asbag57
(g78
g59
NtRp5747
(dp5748
g62
(dp5749
sg71
g5734
sg64
(lp5750
g57
(g58
g59
NtRp5751
(dp5752
g62
(dp5753
g70
I5
ssg71
g5747
sg64
(lp5754
S"<open file '/home/emp2web/webcast/web2py/applications/proyectos/sessions/127.0.0.1-be82b3d9-4d64-4bfc-8d3a-c456e8044ba2', mode 'rb+' at 0xb496c3e8>"
p5755
asbasbasbag57
(g73
g59
NtRp5756
(dp5757
g62
(dp5758
sg71
g3978
sg64
(lp5759
g57
(g78
g59
NtRp5760
(dp5761
g62
(dp5762
g82
g83
ssg71
g5756
sg64
(lp5763
S'session_filename'
p5764
asbag57
(g78
g59
NtRp5765
(dp5766
g62
(dp5767
g89
g90
ssg71
g5756
sg64
(lp5768
S':'
asbag57
(g78
g59
NtRp5769
(dp5770
g62
(dp5771
sg71
g5756
sg64
(lp5772
g57
(g58
g59
NtRp5773
(dp5774
g62
(dp5775
g70
I5
ssg71
g5769
sg64
(lp5776
S'/home/emp2web/webcast/web2py/applications/proyectos/sessions/127.0.0.1-be82b3d9-4d64-4bfc-8d3a-c456e8044ba2'
p5777
asbasbasbag57
(g73
g59
NtRp5778
(dp5779
g62
(dp5780
sg71
g3978
sg64
(lp5781
g57
(g78
g59
NtRp5782
(dp5783
g62
(dp5784
g82
g83
ssg71
g5778
sg64
(lp5785
S'session_id'
p5786
asbag57
(g78
g59
NtRp5787
(dp5788
g62
(dp5789
g89
g90
ssg71
g5778
sg64
(lp5790
S':'
asbag57
(g78
g59
NtRp5791
(dp5792
g62
(dp5793
sg71
g5778
sg64
(lp5794
g57
(g58
g59
NtRp5795
(dp5796
g62
(dp5797
g70
I5
ssg71
g5791
sg64
(lp5798
g660
asbasbasbag57
(g73
g59
NtRp5799
(dp5800
g62
(dp5801
sg71
g3978
sg64
(lp5802
g57
(g78
g59
NtRp5803
(dp5804
g62
(dp5805
g82
g83
ssg71
g5799
sg64
(lp5806
S'session_id_name'
p5807
asbag57
(g78
g59
NtRp5808
(dp5809
g62
(dp5810
g89
g90
ssg71
g5799
sg64
(lp5811
S':'
asbag57
(g78
g59
NtRp5812
(dp5813
g62
(dp5814
sg71
g5799
sg64
(lp5815
g57
(g58
g59
NtRp5816
(dp5817
g62
(dp5818
g70
I5
ssg71
g5812
sg64
(lp5819
g4035
asbasbasbag57
(g73
g59
NtRp5820
(dp5821
g62
(dp5822
sg71
g3978
sg64
(lp5823
g57
(g78
g59
NtRp5824
(dp5825
g62
(dp5826
g82
g83
ssg71
g5820
sg64
(lp5827
S'session_locked'
p5828
asbag57
(g78
g59
NtRp5829
(dp5830
g62
(dp5831
g89
g90
ssg71
g5820
sg64
(lp5832
S':'
asbag57
(g78
g59
NtRp5833
(dp5834
g62
(dp5835
sg71
g5820
sg64
(lp5836
g57
(g58
g59
NtRp5837
(dp5838
g62
(dp5839
g70
I5
ssg71
g5833
sg64
(lp5840
g2093
asbasbasbag57
(g73
g59
NtRp5841
(dp5842
g62
(dp5843
sg71
g3978
sg64
(lp5844
g57
(g78
g59
NtRp5845
(dp5846
g62
(dp5847
g82
g83
ssg71
g5841
sg64
(lp5848
S'session_new'
p5849
asbag57
(g78
g59
NtRp5850
(dp5851
g62
(dp5852
g89
g90
ssg71
g5841
sg64
(lp5853
S':'
asbag57
(g78
g59
NtRp5854
(dp5855
g62
(dp5856
sg71
g5841
sg64
(lp5857
g57
(g58
g59
NtRp5858
(dp5859
g62
(dp5860
g70
I5
ssg71
g5854
sg64
(lp5861
g100
asbasbasbag57
(g73
g59
NtRp5862
(dp5863
g62
(dp5864
sg71
g3978
sg64
(lp5865
g57
(g78
g59
NtRp5866
(dp5867
g62
(dp5868
g82
g83
ssg71
g5862
sg64
(lp5869
S'status'
p5870
asbag57
(g78
g59
NtRp5871
(dp5872
g62
(dp5873
g89
g90
ssg71
g5862
sg64
(lp5874
S':'
asbag57
(g78
g59
NtRp5875
(dp5876
g62
(dp5877
sg71
g5862
sg64
(lp5878
g57
(g58
g59
NtRp5879
(dp5880
g62
(dp5881
g70
I5
ssg71
g5875
sg64
(lp5882
S'200'
p5883
asbasbasbag57
(g73
g59
NtRp5884
(dp5885
g62
(dp5886
sg71
g3978
sg64
(lp5887
g57
(g78
g59
NtRp5888
(dp5889
g62
(dp5890
g82
g83
ssg71
g5884
sg64
(lp5891
S'subtitle'
p5892
asbag57
(g78
g59
NtRp5893
(dp5894
g62
(dp5895
g89
g90
ssg71
g5884
sg64
(lp5896
S':'
asbag57
(g78
g59
NtRp5897
(dp5898
g62
(dp5899
sg71
g5884
sg64
(lp5900
g57
(g58
g59
NtRp5901
(dp5902
g62
(dp5903
g70
I5
ssg71
g5897
sg64
(lp5904
g4556
(S's\t\x00\x00\x00Adaptame!'
tRp5905
asbasbasbag57
(g73
g59
NtRp5906
(dp5907
g62
(dp5908
sg71
g3978
sg64
(lp5909
g57
(g78
g59
NtRp5910
(dp5911
g62
(dp5912
g82
g83
ssg71
g5906
sg64
(lp5913
S'title'
p5914
asbag57
(g78
g59
NtRp5915
(dp5916
g62
(dp5917
g89
g90
ssg71
g5906
sg64
(lp5918
S':'
asbag57
(g78
g59
NtRp5919
(dp5920
g62
(dp5921
sg71
g5906
sg64
(lp5922
g57
(g58
g59
NtRp5923
(dp5924
g62
(dp5925
g70
I5
ssg71
g5919
sg64
(lp5926
S'Proyectos'
p5927
asbasbasbag57
(g73
g59
NtRp5928
(dp5929
g62
(dp5930
sg71
g3978
sg64
(lp5931
g57
(g78
g59
NtRp5932
(dp5933
g62
(dp5934
g82
g83
ssg71
g5928
sg64
(lp5935
S'view'
p5936
asbag57
(g78
g59
NtRp5937
(dp5938
g62
(dp5939
g89
g90
ssg71
g5928
sg64
(lp5940
S':'
asbag57
(g78
g59
NtRp5941
(dp5942
g62
(dp5943
sg71
g5928
sg64
(lp5944
g57
(g58
g59
NtRp5945
(dp5946
g62
(dp5947
g70
I5
ssg71
g5941
sg64
(lp5948
S'configuracion/proyectos.html'
p5949
asbasbasbasbasbsS'locals'
p5950
(dp5951
S'self'
p5952
S'<DAL sqlite://storage.sqlite>'
p5953
sS'key'
p5954
S"'proyectos'"
p5955
sssS'traceback'
p5956
S'Traceback (most recent call last):\n  File "/home/emp2web/webcast/web2py/gluon/restricted.py", line 209, in restricted\n    exec ccode in environment\n  File "/home/emp2web/webcast/web2py/applications/proyectos/controllers/configuracion.py", line 26, in <module>\n  File "/home/emp2web/webcast/web2py/gluon/globals.py", line 185, in <lambda>\n    self._caller = lambda f: f()\n  File "/home/emp2web/webcast/web2py/applications/proyectos/controllers/configuracion.py", line 23, in proyectos\n    formulario=SQLFORM.smartgrid(db.proyectos)\n  File "/home/emp2web/webcast/web2py/gluon/dal.py", line 7113, in __getattr__\n    return ogetattr(self, key)\nAttributeError: \'DAL\' object has no attribute \'proyectos\'\n'
p5957
s.