(dp1
S'output'
p2
S"<type 'exceptions.NameError'> name 'sfsdfds' is not defined"
p3
sS'layer'
p4
S'/home/emp2web/webcast/web2py/applications/proyectos/models/db.py'
p5
sS'code'
p6
S"# -*- coding: utf-8 -*-\n\n#########################################################################\n## This scaffolding model makes your app work on Google App Engine too\n## File is released under public domain and you can use without limitations\n#########################################################################\n\n## if SSL/HTTPS is properly configured and you want all HTTP requests to\n## be redirected to HTTPS, uncomment the line below:\n# request.requires_https()\n\nif not request.env.web2py_runtime_gae:\n    ## if NOT running on Google App Engine use SQLite or other DB\n    db = DAL('sqlite://storage.sqlite')\nelse:\n    ## connect to Google BigTable (optional 'google:datastore://namespace')\n    db = DAL('google:datastore')\n    ## store sessions and tickets there\n    session.connect(request, response, db = db)\n    ## or store session in Memcache, Redis, etc.\n    ## from gluon.contrib.memdb import MEMDB\n    ## from google.appengine.api.memcache import Client\n    ## session.connect(request, response, db = MEMDB(Client()))\n\n## by default give a view/generic.extension to all actions from localhost\n## none otherwise. a pattern can be 'controller/function.extension'\nresponse.generic_patterns = ['*'] if request.is_local else []\n## (optional) optimize handling of static files\n# response.optimize_css = 'concat,minify,inline'\n# response.optimize_js = 'concat,minify,inline'\n\n#########################################################################\n## Here is sample code if you need for\n## - email capabilities\n## - authentication (registration, login, logout, ... )\n## - authorization (role based authorization)\n## - services (xml, csv, json, xmlrpc, jsonrpc, amf, rss)\n## - old style crud actions\n## (more options discussed in gluon/tools.py)\n#########################################################################\n\nfrom gluon.tools import Auth, Crud, Service, PluginManager, prettydate\nauth = Auth(db)\ncrud, service, plugins = Crud(db), Service(), PluginManager()\n\n## create all tables needed by auth if not custom tables\nauth.define_tables(username=True, signature=False)\n\nsfsdfds\n\n## configure email\nmail=auth.settings.mailer\nmail.settings.server = 'logging' or 'smtp.gmail.com:587'\nmail.settings.sender = 'you@gmail.com'\nmail.settings.login = 'username:password'\n\n## configure auth policy\nauth.settings.registration_requires_verification = False\nauth.settings.registration_requires_approval = False\nauth.settings.reset_password_requires_verification = True\n\n## if you need to use OpenID, Facebook, MySpace, Twitter, Linkedin, etc.\n## register with janrain.com, write your domain:api_key in private/janrain.key\nfrom gluon.contrib.login_methods.rpx_account import use_janrain\nuse_janrain(auth,filename='private/janrain.key')\n\n#########################################################################\n## Define your tables below (or better in another model file) for example\n##\n## >>> db.define_table('mytable',Field('myfield','string'))\n##\n## Fields can be 'string','text','password','integer','double','boolean'\n##       'date','time','datetime','blob','upload', 'reference TABLENAME'\n## There is an implicit 'id integer autoincrement' field\n## Consult manual for more options, validators, etc.\n##\n## More API examples for controllers:\n##\n## >>> db.mytable.insert(myfield='value')\n## >>> rows=db(db.mytable.myfield=='value').select(db.mytable.ALL)\n## >>> for row in rows: print row.id, row.myfield\n#########################################################################\n\n## after defining tables, uncomment below to enable auditing\n# auth.enable_record_versioning(db)\n"
p7
sS'snapshot'
p8
(dp9
S'exception'
p10
(dp11
S'__hash__'
p12
S"<method-wrapper '__hash__' of exceptions.NameError object>"
p13
sS'__setattr__'
p14
S"<method-wrapper '__setattr__' of exceptions.NameError object>"
p15
sS'__reduce_ex__'
p16
S'<built-in method __reduce_ex__ of exceptions.NameError object>'
p17
sS'__getslice__'
p18
S"<method-wrapper '__getslice__' of exceptions.NameError object>"
p19
sS'__getitem__'
p20
S"<method-wrapper '__getitem__' of exceptions.NameError object>"
p21
sS'__setstate__'
p22
S'<built-in method __setstate__ of exceptions.NameError object>'
p23
sS'__reduce__'
p24
S'<built-in method __reduce__ of exceptions.NameError object>'
p25
sS'__str__'
p26
S"<method-wrapper '__str__' of exceptions.NameError object>"
p27
sS'__format__'
p28
S'<built-in method __format__ of exceptions.NameError object>'
p29
sS'__getattribute__'
p30
S"<method-wrapper '__getattribute__' of exceptions.NameError object>"
p31
sS'__class__'
p32
S"<type 'exceptions.NameError'>"
p33
sS'__unicode__'
p34
S'<built-in method __unicode__ of exceptions.NameError object>'
p35
sS'__delattr__'
p36
S"<method-wrapper '__delattr__' of exceptions.NameError object>"
p37
sS'__subclasshook__'
p38
S'<built-in method __subclasshook__ of type object>'
p39
sS'__repr__'
p40
S"<method-wrapper '__repr__' of exceptions.NameError object>"
p41
sS'args'
p42
S'("name \'sfsdfds\' is not defined",)'
p43
sS'__dict__'
p44
S'{}'
p45
sS'__sizeof__'
p46
S'<built-in method __sizeof__ of exceptions.NameError object>'
p47
sS'__doc__'
p48
S"'Name not found globally.'"
p49
sS'__init__'
p50
S"<method-wrapper '__init__' of exceptions.NameError object>"
p51
sS'__new__'
p52
S'<built-in method __new__ of type object>'
p53
ssS'evalue'
p54
S"name 'sfsdfds' is not defined"
p55
sS'request'
p56
ccopy_reg
_reconstructor
p57
(cgluon.html
BEAUTIFY
p58
c__builtin__
object
p59
NtRp60
(dp61
S'attributes'
p62
(dp63
sS'components'
p64
(lp65
g57
(cgluon.html
TABLE
p66
g59
NtRp67
(dp68
g62
(dp69
S'level'
p70
I5
ssS'parent'
p71
Nsg64
(lp72
g57
(cgluon.html
TR
p73
g59
NtRp74
(dp75
g62
(dp76
sg71
g67
sg64
(lp77
g57
(cgluon.html
TD
p78
g59
NtRp79
(dp80
g62
(dp81
S'_style'
p82
S'font-weight:bold;vertical-align:top'
p83
ssg71
g74
sg64
(lp84
S'ajax'
p85
asbag57
(g78
g59
NtRp86
(dp87
g62
(dp88
S'_valign'
p89
S'top'
p90
ssg71
g74
sg64
(lp91
S':'
asbag57
(g78
g59
NtRp92
(dp93
g62
(dp94
sg71
g74
sg64
(lp95
g57
(g58
g59
NtRp96
(dp97
g62
(dp98
g70
I5
ssg71
g92
sg64
(lp99
S'True'
p100
asbasbasbag57
(g73
g59
NtRp101
(dp102
g62
(dp103
sg71
g67
sg64
(lp104
g57
(g78
g59
NtRp105
(dp106
g62
(dp107
g82
g83
ssg71
g101
sg64
(lp108
S'application'
p109
asbag57
(g78
g59
NtRp110
(dp111
g62
(dp112
g89
g90
ssg71
g101
sg64
(lp113
S':'
asbag57
(g78
g59
NtRp114
(dp115
g62
(dp116
sg71
g101
sg64
(lp117
g57
(g58
g59
NtRp118
(dp119
g62
(dp120
g70
I5
ssg71
g114
sg64
(lp121
S'proyectos'
p122
asbasbasbag57
(g73
g59
NtRp123
(dp124
g62
(dp125
sg71
g67
sg64
(lp126
g57
(g78
g59
NtRp127
(dp128
g62
(dp129
g82
g83
ssg71
g123
sg64
(lp130
g42
asbag57
(g78
g59
NtRp131
(dp132
g62
(dp133
g89
g90
ssg71
g123
sg64
(lp134
S':'
asbag57
(g78
g59
NtRp135
(dp136
g62
(dp137
sg71
g123
sg64
(lp138
g57
(g58
g59
NtRp139
(dp140
g62
(dp141
g70
I5
ssg71
g135
sg64
(lp142
g57
(g66
g59
NtRp143
(dp144
g62
(dp145
g70
I4
ssg71
Nsg64
(lp146
sbasbasbasbag57
(g73
g59
NtRp147
(dp148
g62
(dp149
sg71
g67
sg64
(lp150
g57
(g78
g59
NtRp151
(dp152
g62
(dp153
g82
g83
ssg71
g147
sg64
(lp154
S'body'
p155
asbag57
(g78
g59
NtRp156
(dp157
g62
(dp158
g89
g90
ssg71
g147
sg64
(lp159
S':'
asbag57
(g78
g59
NtRp160
(dp161
g62
(dp162
sg71
g147
sg64
(lp163
g57
(g58
g59
NtRp164
(dp165
g62
(dp166
g70
I5
ssg71
g160
sg64
(lp167
S"<open file '<fdopen>', mode 'w+b' at 0xae60a808>"
p168
asbasbasbag57
(g73
g59
NtRp169
(dp170
g62
(dp171
sg71
g67
sg64
(lp172
g57
(g78
g59
NtRp173
(dp174
g62
(dp175
g82
g83
ssg71
g169
sg64
(lp176
S'cid'
p177
asbag57
(g78
g59
NtRp178
(dp179
g62
(dp180
g89
g90
ssg71
g169
sg64
(lp181
S':'
asbag57
(g78
g59
NtRp182
(dp183
g62
(dp184
sg71
g169
sg64
(lp185
g57
(g58
g59
NtRp186
(dp187
g62
(dp188
g70
I5
ssg71
g182
sg64
(lp189
S'None'
p190
asbasbasbag57
(g73
g59
NtRp191
(dp192
g62
(dp193
sg71
g67
sg64
(lp194
g57
(g78
g59
NtRp195
(dp196
g62
(dp197
g82
g83
ssg71
g191
sg64
(lp198
S'client'
p199
asbag57
(g78
g59
NtRp200
(dp201
g62
(dp202
g89
g90
ssg71
g191
sg64
(lp203
S':'
asbag57
(g78
g59
NtRp204
(dp205
g62
(dp206
sg71
g191
sg64
(lp207
g57
(g58
g59
NtRp208
(dp209
g62
(dp210
g70
I5
ssg71
g204
sg64
(lp211
S'127.0.0.1'
p212
asbasbasbag57
(g73
g59
NtRp213
(dp214
g62
(dp215
sg71
g67
sg64
(lp216
g57
(g78
g59
NtRp217
(dp218
g62
(dp219
g82
g83
ssg71
g213
sg64
(lp220
S'controller'
p221
asbag57
(g78
g59
NtRp222
(dp223
g62
(dp224
g89
g90
ssg71
g213
sg64
(lp225
S':'
asbag57
(g78
g59
NtRp226
(dp227
g62
(dp228
sg71
g213
sg64
(lp229
g57
(g58
g59
NtRp230
(dp231
g62
(dp232
g70
I5
ssg71
g226
sg64
(lp233
S'default'
p234
asbasbasbag57
(g73
g59
NtRp235
(dp236
g62
(dp237
sg71
g67
sg64
(lp238
g57
(g78
g59
NtRp239
(dp240
g62
(dp241
g82
g83
ssg71
g235
sg64
(lp242
S'cookies'
p243
asbag57
(g78
g59
NtRp244
(dp245
g62
(dp246
g89
g90
ssg71
g235
sg64
(lp247
S':'
asbag57
(g78
g59
NtRp248
(dp249
g62
(dp250
sg71
g235
sg64
(lp251
g57
(g58
g59
NtRp252
(dp253
g62
(dp254
g70
I5
ssg71
g248
sg64
(lp255
g57
(g66
g59
NtRp256
(dp257
g62
(dp258
g70
I4
ssg71
Nsg64
(lp259
g57
(g73
g59
NtRp260
(dp261
g62
(dp262
sg71
g256
sg64
(lp263
g57
(g78
g59
NtRp264
(dp265
g62
(dp266
g82
g83
ssg71
g260
sg64
(lp267
S'CP.mode'
p268
asbag57
(g78
g59
NtRp269
(dp270
g62
(dp271
g89
g90
ssg71
g260
sg64
(lp272
S':'
asbag57
(g78
g59
NtRp273
(dp274
g62
(dp275
sg71
g260
sg64
(lp276
g57
(g58
g59
NtRp277
(dp278
g62
(dp279
g70
I4
ssg71
g273
sg64
(lp280
S'B'
ag57
(g66
g59
NtRp281
(dp282
g62
(dp283
g70
I3
ssg71
Nsg64
(lp284
g57
(g73
g59
NtRp285
(dp286
g62
(dp287
sg71
g281
sg64
(lp288
g57
(g78
g59
NtRp289
(dp290
g62
(dp291
g82
g83
ssg71
g285
sg64
(lp292
S'comment'
p293
asbag57
(g78
g59
NtRp294
(dp295
g62
(dp296
g89
g90
ssg71
g285
sg64
(lp297
S':'
asbag57
(g78
g59
NtRp298
(dp299
g62
(dp300
sg71
g285
sg64
(lp301
g57
(g58
g59
NtRp302
(dp303
g62
(dp304
g70
I3
ssg71
g298
sg64
(lp305
S''
asbasbasbag57
(g73
g59
NtRp306
(dp307
g62
(dp308
sg71
g281
sg64
(lp309
g57
(g78
g59
NtRp310
(dp311
g62
(dp312
g82
g83
ssg71
g306
sg64
(lp313
S'domain'
p314
asbag57
(g78
g59
NtRp315
(dp316
g62
(dp317
g89
g90
ssg71
g306
sg64
(lp318
S':'
asbag57
(g78
g59
NtRp319
(dp320
g62
(dp321
sg71
g306
sg64
(lp322
g57
(g58
g59
NtRp323
(dp324
g62
(dp325
g70
I3
ssg71
g319
sg64
(lp326
S''
asbasbasbag57
(g73
g59
NtRp327
(dp328
g62
(dp329
sg71
g281
sg64
(lp330
g57
(g78
g59
NtRp331
(dp332
g62
(dp333
g82
g83
ssg71
g327
sg64
(lp334
S'expires'
p335
asbag57
(g78
g59
NtRp336
(dp337
g62
(dp338
g89
g90
ssg71
g327
sg64
(lp339
S':'
asbag57
(g78
g59
NtRp340
(dp341
g62
(dp342
sg71
g327
sg64
(lp343
g57
(g58
g59
NtRp344
(dp345
g62
(dp346
g70
I3
ssg71
g340
sg64
(lp347
S''
asbasbasbag57
(g73
g59
NtRp348
(dp349
g62
(dp350
sg71
g281
sg64
(lp351
g57
(g78
g59
NtRp352
(dp353
g62
(dp354
g82
g83
ssg71
g348
sg64
(lp355
S'httponly'
p356
asbag57
(g78
g59
NtRp357
(dp358
g62
(dp359
g89
g90
ssg71
g348
sg64
(lp360
S':'
asbag57
(g78
g59
NtRp361
(dp362
g62
(dp363
sg71
g348
sg64
(lp364
g57
(g58
g59
NtRp365
(dp366
g62
(dp367
g70
I3
ssg71
g361
sg64
(lp368
S''
asbasbasbag57
(g73
g59
NtRp369
(dp370
g62
(dp371
sg71
g281
sg64
(lp372
g57
(g78
g59
NtRp373
(dp374
g62
(dp375
g82
g83
ssg71
g369
sg64
(lp376
S'max-age'
p377
asbag57
(g78
g59
NtRp378
(dp379
g62
(dp380
g89
g90
ssg71
g369
sg64
(lp381
S':'
asbag57
(g78
g59
NtRp382
(dp383
g62
(dp384
sg71
g369
sg64
(lp385
g57
(g58
g59
NtRp386
(dp387
g62
(dp388
g70
I3
ssg71
g382
sg64
(lp389
S''
asbasbasbag57
(g73
g59
NtRp390
(dp391
g62
(dp392
sg71
g281
sg64
(lp393
g57
(g78
g59
NtRp394
(dp395
g62
(dp396
g82
g83
ssg71
g390
sg64
(lp397
S'path'
p398
asbag57
(g78
g59
NtRp399
(dp400
g62
(dp401
g89
g90
ssg71
g390
sg64
(lp402
S':'
asbag57
(g78
g59
NtRp403
(dp404
g62
(dp405
sg71
g390
sg64
(lp406
g57
(g58
g59
NtRp407
(dp408
g62
(dp409
g70
I3
ssg71
g403
sg64
(lp410
S''
asbasbasbag57
(g73
g59
NtRp411
(dp412
g62
(dp413
sg71
g281
sg64
(lp414
g57
(g78
g59
NtRp415
(dp416
g62
(dp417
g82
g83
ssg71
g411
sg64
(lp418
S'secure'
p419
asbag57
(g78
g59
NtRp420
(dp421
g62
(dp422
g89
g90
ssg71
g411
sg64
(lp423
S':'
asbag57
(g78
g59
NtRp424
(dp425
g62
(dp426
sg71
g411
sg64
(lp427
g57
(g58
g59
NtRp428
(dp429
g62
(dp430
g70
I3
ssg71
g424
sg64
(lp431
S''
asbasbasbag57
(g73
g59
NtRp432
(dp433
g62
(dp434
sg71
g281
sg64
(lp435
g57
(g78
g59
NtRp436
(dp437
g62
(dp438
g82
g83
ssg71
g432
sg64
(lp439
S'version'
p440
asbag57
(g78
g59
NtRp441
(dp442
g62
(dp443
g89
g90
ssg71
g432
sg64
(lp444
S':'
asbag57
(g78
g59
NtRp445
(dp446
g62
(dp447
sg71
g432
sg64
(lp448
g57
(g58
g59
NtRp449
(dp450
g62
(dp451
g70
I3
ssg71
g445
sg64
(lp452
S''
asbasbasbasbasbasbasbag57
(g73
g59
NtRp453
(dp454
g62
(dp455
sg71
g256
sg64
(lp456
g57
(g78
g59
NtRp457
(dp458
g62
(dp459
g82
g83
ssg71
g453
sg64
(lp460
S'session_id_admin'
p461
asbag57
(g78
g59
NtRp462
(dp463
g62
(dp464
g89
g90
ssg71
g453
sg64
(lp465
S':'
asbag57
(g78
g59
NtRp466
(dp467
g62
(dp468
sg71
g453
sg64
(lp469
g57
(g58
g59
NtRp470
(dp471
g62
(dp472
g70
I4
ssg71
g466
sg64
(lp473
S'127.0.0.1-59d830b7-3426-4408-b007-2063f315657f'
p474
ag57
(g66
g59
NtRp475
(dp476
g62
(dp477
g70
I3
ssg71
Nsg64
(lp478
g57
(g73
g59
NtRp479
(dp480
g62
(dp481
sg71
g475
sg64
(lp482
g57
(g78
g59
NtRp483
(dp484
g62
(dp485
g82
g83
ssg71
g479
sg64
(lp486
g293
asbag57
(g78
g59
NtRp487
(dp488
g62
(dp489
g89
g90
ssg71
g479
sg64
(lp490
S':'
asbag57
(g78
g59
NtRp491
(dp492
g62
(dp493
sg71
g479
sg64
(lp494
g57
(g58
g59
NtRp495
(dp496
g62
(dp497
g70
I3
ssg71
g491
sg64
(lp498
S''
asbasbasbag57
(g73
g59
NtRp499
(dp500
g62
(dp501
sg71
g475
sg64
(lp502
g57
(g78
g59
NtRp503
(dp504
g62
(dp505
g82
g83
ssg71
g499
sg64
(lp506
g314
asbag57
(g78
g59
NtRp507
(dp508
g62
(dp509
g89
g90
ssg71
g499
sg64
(lp510
S':'
asbag57
(g78
g59
NtRp511
(dp512
g62
(dp513
sg71
g499
sg64
(lp514
g57
(g58
g59
NtRp515
(dp516
g62
(dp517
g70
I3
ssg71
g511
sg64
(lp518
S''
asbasbasbag57
(g73
g59
NtRp519
(dp520
g62
(dp521
sg71
g475
sg64
(lp522
g57
(g78
g59
NtRp523
(dp524
g62
(dp525
g82
g83
ssg71
g519
sg64
(lp526
g335
asbag57
(g78
g59
NtRp527
(dp528
g62
(dp529
g89
g90
ssg71
g519
sg64
(lp530
S':'
asbag57
(g78
g59
NtRp531
(dp532
g62
(dp533
sg71
g519
sg64
(lp534
g57
(g58
g59
NtRp535
(dp536
g62
(dp537
g70
I3
ssg71
g531
sg64
(lp538
S''
asbasbasbag57
(g73
g59
NtRp539
(dp540
g62
(dp541
sg71
g475
sg64
(lp542
g57
(g78
g59
NtRp543
(dp544
g62
(dp545
g82
g83
ssg71
g539
sg64
(lp546
g356
asbag57
(g78
g59
NtRp547
(dp548
g62
(dp549
g89
g90
ssg71
g539
sg64
(lp550
S':'
asbag57
(g78
g59
NtRp551
(dp552
g62
(dp553
sg71
g539
sg64
(lp554
g57
(g58
g59
NtRp555
(dp556
g62
(dp557
g70
I3
ssg71
g551
sg64
(lp558
S''
asbasbasbag57
(g73
g59
NtRp559
(dp560
g62
(dp561
sg71
g475
sg64
(lp562
g57
(g78
g59
NtRp563
(dp564
g62
(dp565
g82
g83
ssg71
g559
sg64
(lp566
g377
asbag57
(g78
g59
NtRp567
(dp568
g62
(dp569
g89
g90
ssg71
g559
sg64
(lp570
S':'
asbag57
(g78
g59
NtRp571
(dp572
g62
(dp573
sg71
g559
sg64
(lp574
g57
(g58
g59
NtRp575
(dp576
g62
(dp577
g70
I3
ssg71
g571
sg64
(lp578
S''
asbasbasbag57
(g73
g59
NtRp579
(dp580
g62
(dp581
sg71
g475
sg64
(lp582
g57
(g78
g59
NtRp583
(dp584
g62
(dp585
g82
g83
ssg71
g579
sg64
(lp586
g398
asbag57
(g78
g59
NtRp587
(dp588
g62
(dp589
g89
g90
ssg71
g579
sg64
(lp590
S':'
asbag57
(g78
g59
NtRp591
(dp592
g62
(dp593
sg71
g579
sg64
(lp594
g57
(g58
g59
NtRp595
(dp596
g62
(dp597
g70
I3
ssg71
g591
sg64
(lp598
S''
asbasbasbag57
(g73
g59
NtRp599
(dp600
g62
(dp601
sg71
g475
sg64
(lp602
g57
(g78
g59
NtRp603
(dp604
g62
(dp605
g82
g83
ssg71
g599
sg64
(lp606
g419
asbag57
(g78
g59
NtRp607
(dp608
g62
(dp609
g89
g90
ssg71
g599
sg64
(lp610
S':'
asbag57
(g78
g59
NtRp611
(dp612
g62
(dp613
sg71
g599
sg64
(lp614
g57
(g58
g59
NtRp615
(dp616
g62
(dp617
g70
I3
ssg71
g611
sg64
(lp618
S''
asbasbasbag57
(g73
g59
NtRp619
(dp620
g62
(dp621
sg71
g475
sg64
(lp622
g57
(g78
g59
NtRp623
(dp624
g62
(dp625
g82
g83
ssg71
g619
sg64
(lp626
g440
asbag57
(g78
g59
NtRp627
(dp628
g62
(dp629
g89
g90
ssg71
g619
sg64
(lp630
S':'
asbag57
(g78
g59
NtRp631
(dp632
g62
(dp633
sg71
g619
sg64
(lp634
g57
(g58
g59
NtRp635
(dp636
g62
(dp637
g70
I3
ssg71
g631
sg64
(lp638
S''
asbasbasbasbasbasbasbag57
(g73
g59
NtRp639
(dp640
g62
(dp641
sg71
g256
sg64
(lp642
g57
(g78
g59
NtRp643
(dp644
g62
(dp645
g82
g83
ssg71
g639
sg64
(lp646
S'session_id_proyectos'
p647
asbag57
(g78
g59
NtRp648
(dp649
g62
(dp650
g89
g90
ssg71
g639
sg64
(lp651
S':'
asbag57
(g78
g59
NtRp652
(dp653
g62
(dp654
sg71
g639
sg64
(lp655
g57
(g58
g59
NtRp656
(dp657
g62
(dp658
g70
I4
ssg71
g652
sg64
(lp659
S'127.0.0.1-be82b3d9-4d64-4bfc-8d3a-c456e8044ba2'
p660
ag57
(g66
g59
NtRp661
(dp662
g62
(dp663
g70
I3
ssg71
Nsg64
(lp664
g57
(g73
g59
NtRp665
(dp666
g62
(dp667
sg71
g661
sg64
(lp668
g57
(g78
g59
NtRp669
(dp670
g62
(dp671
g82
g83
ssg71
g665
sg64
(lp672
g293
asbag57
(g78
g59
NtRp673
(dp674
g62
(dp675
g89
g90
ssg71
g665
sg64
(lp676
S':'
asbag57
(g78
g59
NtRp677
(dp678
g62
(dp679
sg71
g665
sg64
(lp680
g57
(g58
g59
NtRp681
(dp682
g62
(dp683
g70
I3
ssg71
g677
sg64
(lp684
S''
asbasbasbag57
(g73
g59
NtRp685
(dp686
g62
(dp687
sg71
g661
sg64
(lp688
g57
(g78
g59
NtRp689
(dp690
g62
(dp691
g82
g83
ssg71
g685
sg64
(lp692
g314
asbag57
(g78
g59
NtRp693
(dp694
g62
(dp695
g89
g90
ssg71
g685
sg64
(lp696
S':'
asbag57
(g78
g59
NtRp697
(dp698
g62
(dp699
sg71
g685
sg64
(lp700
g57
(g58
g59
NtRp701
(dp702
g62
(dp703
g70
I3
ssg71
g697
sg64
(lp704
S''
asbasbasbag57
(g73
g59
NtRp705
(dp706
g62
(dp707
sg71
g661
sg64
(lp708
g57
(g78
g59
NtRp709
(dp710
g62
(dp711
g82
g83
ssg71
g705
sg64
(lp712
g335
asbag57
(g78
g59
NtRp713
(dp714
g62
(dp715
g89
g90
ssg71
g705
sg64
(lp716
S':'
asbag57
(g78
g59
NtRp717
(dp718
g62
(dp719
sg71
g705
sg64
(lp720
g57
(g58
g59
NtRp721
(dp722
g62
(dp723
g70
I3
ssg71
g717
sg64
(lp724
S''
asbasbasbag57
(g73
g59
NtRp725
(dp726
g62
(dp727
sg71
g661
sg64
(lp728
g57
(g78
g59
NtRp729
(dp730
g62
(dp731
g82
g83
ssg71
g725
sg64
(lp732
g356
asbag57
(g78
g59
NtRp733
(dp734
g62
(dp735
g89
g90
ssg71
g725
sg64
(lp736
S':'
asbag57
(g78
g59
NtRp737
(dp738
g62
(dp739
sg71
g725
sg64
(lp740
g57
(g58
g59
NtRp741
(dp742
g62
(dp743
g70
I3
ssg71
g737
sg64
(lp744
S''
asbasbasbag57
(g73
g59
NtRp745
(dp746
g62
(dp747
sg71
g661
sg64
(lp748
g57
(g78
g59
NtRp749
(dp750
g62
(dp751
g82
g83
ssg71
g745
sg64
(lp752
g377
asbag57
(g78
g59
NtRp753
(dp754
g62
(dp755
g89
g90
ssg71
g745
sg64
(lp756
S':'
asbag57
(g78
g59
NtRp757
(dp758
g62
(dp759
sg71
g745
sg64
(lp760
g57
(g58
g59
NtRp761
(dp762
g62
(dp763
g70
I3
ssg71
g757
sg64
(lp764
S''
asbasbasbag57
(g73
g59
NtRp765
(dp766
g62
(dp767
sg71
g661
sg64
(lp768
g57
(g78
g59
NtRp769
(dp770
g62
(dp771
g82
g83
ssg71
g765
sg64
(lp772
g398
asbag57
(g78
g59
NtRp773
(dp774
g62
(dp775
g89
g90
ssg71
g765
sg64
(lp776
S':'
asbag57
(g78
g59
NtRp777
(dp778
g62
(dp779
sg71
g765
sg64
(lp780
g57
(g58
g59
NtRp781
(dp782
g62
(dp783
g70
I3
ssg71
g777
sg64
(lp784
S''
asbasbasbag57
(g73
g59
NtRp785
(dp786
g62
(dp787
sg71
g661
sg64
(lp788
g57
(g78
g59
NtRp789
(dp790
g62
(dp791
g82
g83
ssg71
g785
sg64
(lp792
g419
asbag57
(g78
g59
NtRp793
(dp794
g62
(dp795
g89
g90
ssg71
g785
sg64
(lp796
S':'
asbag57
(g78
g59
NtRp797
(dp798
g62
(dp799
sg71
g785
sg64
(lp800
g57
(g58
g59
NtRp801
(dp802
g62
(dp803
g70
I3
ssg71
g797
sg64
(lp804
S''
asbasbasbag57
(g73
g59
NtRp805
(dp806
g62
(dp807
sg71
g661
sg64
(lp808
g57
(g78
g59
NtRp809
(dp810
g62
(dp811
g82
g83
ssg71
g805
sg64
(lp812
g440
asbag57
(g78
g59
NtRp813
(dp814
g62
(dp815
g89
g90
ssg71
g805
sg64
(lp816
S':'
asbag57
(g78
g59
NtRp817
(dp818
g62
(dp819
sg71
g805
sg64
(lp820
g57
(g58
g59
NtRp821
(dp822
g62
(dp823
g70
I3
ssg71
g817
sg64
(lp824
S''
asbasbasbasbasbasbasbag57
(g73
g59
NtRp825
(dp826
g62
(dp827
sg71
g256
sg64
(lp828
g57
(g78
g59
NtRp829
(dp830
g62
(dp831
g82
g83
ssg71
g825
sg64
(lp832
S'session_id_welcome'
p833
asbag57
(g78
g59
NtRp834
(dp835
g62
(dp836
g89
g90
ssg71
g825
sg64
(lp837
S':'
asbag57
(g78
g59
NtRp838
(dp839
g62
(dp840
sg71
g825
sg64
(lp841
g57
(g58
g59
NtRp842
(dp843
g62
(dp844
g70
I4
ssg71
g838
sg64
(lp845
S'127.0.0.1-c8e186f8-735f-483e-9656-57e94bd318d4'
p846
ag57
(g66
g59
NtRp847
(dp848
g62
(dp849
g70
I3
ssg71
Nsg64
(lp850
g57
(g73
g59
NtRp851
(dp852
g62
(dp853
sg71
g847
sg64
(lp854
g57
(g78
g59
NtRp855
(dp856
g62
(dp857
g82
g83
ssg71
g851
sg64
(lp858
g293
asbag57
(g78
g59
NtRp859
(dp860
g62
(dp861
g89
g90
ssg71
g851
sg64
(lp862
S':'
asbag57
(g78
g59
NtRp863
(dp864
g62
(dp865
sg71
g851
sg64
(lp866
g57
(g58
g59
NtRp867
(dp868
g62
(dp869
g70
I3
ssg71
g863
sg64
(lp870
S''
asbasbasbag57
(g73
g59
NtRp871
(dp872
g62
(dp873
sg71
g847
sg64
(lp874
g57
(g78
g59
NtRp875
(dp876
g62
(dp877
g82
g83
ssg71
g871
sg64
(lp878
g314
asbag57
(g78
g59
NtRp879
(dp880
g62
(dp881
g89
g90
ssg71
g871
sg64
(lp882
S':'
asbag57
(g78
g59
NtRp883
(dp884
g62
(dp885
sg71
g871
sg64
(lp886
g57
(g58
g59
NtRp887
(dp888
g62
(dp889
g70
I3
ssg71
g883
sg64
(lp890
S''
asbasbasbag57
(g73
g59
NtRp891
(dp892
g62
(dp893
sg71
g847
sg64
(lp894
g57
(g78
g59
NtRp895
(dp896
g62
(dp897
g82
g83
ssg71
g891
sg64
(lp898
g335
asbag57
(g78
g59
NtRp899
(dp900
g62
(dp901
g89
g90
ssg71
g891
sg64
(lp902
S':'
asbag57
(g78
g59
NtRp903
(dp904
g62
(dp905
sg71
g891
sg64
(lp906
g57
(g58
g59
NtRp907
(dp908
g62
(dp909
g70
I3
ssg71
g903
sg64
(lp910
S''
asbasbasbag57
(g73
g59
NtRp911
(dp912
g62
(dp913
sg71
g847
sg64
(lp914
g57
(g78
g59
NtRp915
(dp916
g62
(dp917
g82
g83
ssg71
g911
sg64
(lp918
g356
asbag57
(g78
g59
NtRp919
(dp920
g62
(dp921
g89
g90
ssg71
g911
sg64
(lp922
S':'
asbag57
(g78
g59
NtRp923
(dp924
g62
(dp925
sg71
g911
sg64
(lp926
g57
(g58
g59
NtRp927
(dp928
g62
(dp929
g70
I3
ssg71
g923
sg64
(lp930
S''
asbasbasbag57
(g73
g59
NtRp931
(dp932
g62
(dp933
sg71
g847
sg64
(lp934
g57
(g78
g59
NtRp935
(dp936
g62
(dp937
g82
g83
ssg71
g931
sg64
(lp938
g377
asbag57
(g78
g59
NtRp939
(dp940
g62
(dp941
g89
g90
ssg71
g931
sg64
(lp942
S':'
asbag57
(g78
g59
NtRp943
(dp944
g62
(dp945
sg71
g931
sg64
(lp946
g57
(g58
g59
NtRp947
(dp948
g62
(dp949
g70
I3
ssg71
g943
sg64
(lp950
S''
asbasbasbag57
(g73
g59
NtRp951
(dp952
g62
(dp953
sg71
g847
sg64
(lp954
g57
(g78
g59
NtRp955
(dp956
g62
(dp957
g82
g83
ssg71
g951
sg64
(lp958
g398
asbag57
(g78
g59
NtRp959
(dp960
g62
(dp961
g89
g90
ssg71
g951
sg64
(lp962
S':'
asbag57
(g78
g59
NtRp963
(dp964
g62
(dp965
sg71
g951
sg64
(lp966
g57
(g58
g59
NtRp967
(dp968
g62
(dp969
g70
I3
ssg71
g963
sg64
(lp970
S''
asbasbasbag57
(g73
g59
NtRp971
(dp972
g62
(dp973
sg71
g847
sg64
(lp974
g57
(g78
g59
NtRp975
(dp976
g62
(dp977
g82
g83
ssg71
g971
sg64
(lp978
g419
asbag57
(g78
g59
NtRp979
(dp980
g62
(dp981
g89
g90
ssg71
g971
sg64
(lp982
S':'
asbag57
(g78
g59
NtRp983
(dp984
g62
(dp985
sg71
g971
sg64
(lp986
g57
(g58
g59
NtRp987
(dp988
g62
(dp989
g70
I3
ssg71
g983
sg64
(lp990
S''
asbasbasbag57
(g73
g59
NtRp991
(dp992
g62
(dp993
sg71
g847
sg64
(lp994
g57
(g78
g59
NtRp995
(dp996
g62
(dp997
g82
g83
ssg71
g991
sg64
(lp998
g440
asbag57
(g78
g59
NtRp999
(dp1000
g62
(dp1001
g89
g90
ssg71
g991
sg64
(lp1002
S':'
asbag57
(g78
g59
NtRp1003
(dp1004
g62
(dp1005
sg71
g991
sg64
(lp1006
g57
(g58
g59
NtRp1007
(dp1008
g62
(dp1009
g70
I3
ssg71
g1003
sg64
(lp1010
S''
asbasbasbasbasbasbasbag57
(g73
g59
NtRp1011
(dp1012
g62
(dp1013
sg71
g256
sg64
(lp1014
g57
(g78
g59
NtRp1015
(dp1016
g62
(dp1017
g82
g83
ssg71
g1011
sg64
(lp1018
S'size'
p1019
asbag57
(g78
g59
NtRp1020
(dp1021
g62
(dp1022
g89
g90
ssg71
g1011
sg64
(lp1023
S':'
asbag57
(g78
g59
NtRp1024
(dp1025
g62
(dp1026
sg71
g1011
sg64
(lp1027
g57
(g58
g59
NtRp1028
(dp1029
g62
(dp1030
g70
I4
ssg71
g1024
sg64
(lp1031
S'4'
ag57
(g66
g59
NtRp1032
(dp1033
g62
(dp1034
g70
I3
ssg71
Nsg64
(lp1035
g57
(g73
g59
NtRp1036
(dp1037
g62
(dp1038
sg71
g1032
sg64
(lp1039
g57
(g78
g59
NtRp1040
(dp1041
g62
(dp1042
g82
g83
ssg71
g1036
sg64
(lp1043
g293
asbag57
(g78
g59
NtRp1044
(dp1045
g62
(dp1046
g89
g90
ssg71
g1036
sg64
(lp1047
S':'
asbag57
(g78
g59
NtRp1048
(dp1049
g62
(dp1050
sg71
g1036
sg64
(lp1051
g57
(g58
g59
NtRp1052
(dp1053
g62
(dp1054
g70
I3
ssg71
g1048
sg64
(lp1055
S''
asbasbasbag57
(g73
g59
NtRp1056
(dp1057
g62
(dp1058
sg71
g1032
sg64
(lp1059
g57
(g78
g59
NtRp1060
(dp1061
g62
(dp1062
g82
g83
ssg71
g1056
sg64
(lp1063
g314
asbag57
(g78
g59
NtRp1064
(dp1065
g62
(dp1066
g89
g90
ssg71
g1056
sg64
(lp1067
S':'
asbag57
(g78
g59
NtRp1068
(dp1069
g62
(dp1070
sg71
g1056
sg64
(lp1071
g57
(g58
g59
NtRp1072
(dp1073
g62
(dp1074
g70
I3
ssg71
g1068
sg64
(lp1075
S''
asbasbasbag57
(g73
g59
NtRp1076
(dp1077
g62
(dp1078
sg71
g1032
sg64
(lp1079
g57
(g78
g59
NtRp1080
(dp1081
g62
(dp1082
g82
g83
ssg71
g1076
sg64
(lp1083
g335
asbag57
(g78
g59
NtRp1084
(dp1085
g62
(dp1086
g89
g90
ssg71
g1076
sg64
(lp1087
S':'
asbag57
(g78
g59
NtRp1088
(dp1089
g62
(dp1090
sg71
g1076
sg64
(lp1091
g57
(g58
g59
NtRp1092
(dp1093
g62
(dp1094
g70
I3
ssg71
g1088
sg64
(lp1095
S''
asbasbasbag57
(g73
g59
NtRp1096
(dp1097
g62
(dp1098
sg71
g1032
sg64
(lp1099
g57
(g78
g59
NtRp1100
(dp1101
g62
(dp1102
g82
g83
ssg71
g1096
sg64
(lp1103
g356
asbag57
(g78
g59
NtRp1104
(dp1105
g62
(dp1106
g89
g90
ssg71
g1096
sg64
(lp1107
S':'
asbag57
(g78
g59
NtRp1108
(dp1109
g62
(dp1110
sg71
g1096
sg64
(lp1111
g57
(g58
g59
NtRp1112
(dp1113
g62
(dp1114
g70
I3
ssg71
g1108
sg64
(lp1115
S''
asbasbasbag57
(g73
g59
NtRp1116
(dp1117
g62
(dp1118
sg71
g1032
sg64
(lp1119
g57
(g78
g59
NtRp1120
(dp1121
g62
(dp1122
g82
g83
ssg71
g1116
sg64
(lp1123
g377
asbag57
(g78
g59
NtRp1124
(dp1125
g62
(dp1126
g89
g90
ssg71
g1116
sg64
(lp1127
S':'
asbag57
(g78
g59
NtRp1128
(dp1129
g62
(dp1130
sg71
g1116
sg64
(lp1131
g57
(g58
g59
NtRp1132
(dp1133
g62
(dp1134
g70
I3
ssg71
g1128
sg64
(lp1135
S''
asbasbasbag57
(g73
g59
NtRp1136
(dp1137
g62
(dp1138
sg71
g1032
sg64
(lp1139
g57
(g78
g59
NtRp1140
(dp1141
g62
(dp1142
g82
g83
ssg71
g1136
sg64
(lp1143
g398
asbag57
(g78
g59
NtRp1144
(dp1145
g62
(dp1146
g89
g90
ssg71
g1136
sg64
(lp1147
S':'
asbag57
(g78
g59
NtRp1148
(dp1149
g62
(dp1150
sg71
g1136
sg64
(lp1151
g57
(g58
g59
NtRp1152
(dp1153
g62
(dp1154
g70
I3
ssg71
g1148
sg64
(lp1155
S''
asbasbasbag57
(g73
g59
NtRp1156
(dp1157
g62
(dp1158
sg71
g1032
sg64
(lp1159
g57
(g78
g59
NtRp1160
(dp1161
g62
(dp1162
g82
g83
ssg71
g1156
sg64
(lp1163
g419
asbag57
(g78
g59
NtRp1164
(dp1165
g62
(dp1166
g89
g90
ssg71
g1156
sg64
(lp1167
S':'
asbag57
(g78
g59
NtRp1168
(dp1169
g62
(dp1170
sg71
g1156
sg64
(lp1171
g57
(g58
g59
NtRp1172
(dp1173
g62
(dp1174
g70
I3
ssg71
g1168
sg64
(lp1175
S''
asbasbasbag57
(g73
g59
NtRp1176
(dp1177
g62
(dp1178
sg71
g1032
sg64
(lp1179
g57
(g78
g59
NtRp1180
(dp1181
g62
(dp1182
g82
g83
ssg71
g1176
sg64
(lp1183
g440
asbag57
(g78
g59
NtRp1184
(dp1185
g62
(dp1186
g89
g90
ssg71
g1176
sg64
(lp1187
S':'
asbag57
(g78
g59
NtRp1188
(dp1189
g62
(dp1190
sg71
g1176
sg64
(lp1191
g57
(g58
g59
NtRp1192
(dp1193
g62
(dp1194
g70
I3
ssg71
g1188
sg64
(lp1195
S''
asbasbasbasbasbasbasbasbasbasbasbag57
(g73
g59
NtRp1196
(dp1197
g62
(dp1198
sg71
g67
sg64
(lp1199
g57
(g78
g59
NtRp1200
(dp1201
g62
(dp1202
g82
g83
ssg71
g1196
sg64
(lp1203
S'env'
p1204
asbag57
(g78
g59
NtRp1205
(dp1206
g62
(dp1207
g89
g90
ssg71
g1196
sg64
(lp1208
S':'
asbag57
(g78
g59
NtRp1209
(dp1210
g62
(dp1211
sg71
g1196
sg64
(lp1212
g57
(g58
g59
NtRp1213
(dp1214
g62
(dp1215
g70
I5
ssg71
g1209
sg64
(lp1216
g57
(g66
g59
NtRp1217
(dp1218
g62
(dp1219
g70
I4
ssg71
Nsg64
(lp1220
g57
(g73
g59
NtRp1221
(dp1222
g62
(dp1223
sg71
g1217
sg64
(lp1224
g57
(g78
g59
NtRp1225
(dp1226
g62
(dp1227
g82
g83
ssg71
g1221
sg64
(lp1228
S'app_folders'
p1229
asbag57
(g78
g59
NtRp1230
(dp1231
g62
(dp1232
g89
g90
ssg71
g1221
sg64
(lp1233
S':'
asbag57
(g78
g59
NtRp1234
(dp1235
g62
(dp1236
sg71
g1221
sg64
(lp1237
g57
(g58
g59
NtRp1238
(dp1239
g62
(dp1240
g70
I4
ssg71
g1234
sg64
(lp1241
S"set(['/home/emp2web/webcast/web2py/applications/examples/', '/home/emp2web/webcast/web2py/applications/welcome/', '/home/emp2web/webcast/web2py/applications/admin/', '/home/emp2web/webcast/web2py/applications/proyectos/'])"
p1242
asbasbasbag57
(g73
g59
NtRp1243
(dp1244
g62
(dp1245
sg71
g1217
sg64
(lp1246
g57
(g78
g59
NtRp1247
(dp1248
g62
(dp1249
g82
g83
ssg71
g1243
sg64
(lp1250
S'applications_parent'
p1251
asbag57
(g78
g59
NtRp1252
(dp1253
g62
(dp1254
g89
g90
ssg71
g1243
sg64
(lp1255
S':'
asbag57
(g78
g59
NtRp1256
(dp1257
g62
(dp1258
sg71
g1243
sg64
(lp1259
g57
(g58
g59
NtRp1260
(dp1261
g62
(dp1262
g70
I4
ssg71
g1256
sg64
(lp1263
S'/home/emp2web/webcast/web2py'
p1264
asbasbasbag57
(g73
g59
NtRp1265
(dp1266
g62
(dp1267
sg71
g1217
sg64
(lp1268
g57
(g78
g59
NtRp1269
(dp1270
g62
(dp1271
g82
g83
ssg71
g1265
sg64
(lp1272
S'cmd_args'
p1273
asbag57
(g78
g59
NtRp1274
(dp1275
g62
(dp1276
g89
g90
ssg71
g1265
sg64
(lp1277
S':'
asbag57
(g78
g59
NtRp1278
(dp1279
g62
(dp1280
sg71
g1265
sg64
(lp1281
g57
(g58
g59
NtRp1282
(dp1283
g62
(dp1284
g70
I4
ssg71
g1278
sg64
(lp1285
g57
(g66
g59
NtRp1286
(dp1287
g62
(dp1288
g70
I3
ssg71
Nsg64
(lp1289
sbasbasbasbag57
(g73
g59
NtRp1290
(dp1291
g62
(dp1292
sg71
g1217
sg64
(lp1293
g57
(g78
g59
NtRp1294
(dp1295
g62
(dp1296
g82
g83
ssg71
g1290
sg64
(lp1297
S'cmd_options'
p1298
asbag57
(g78
g59
NtRp1299
(dp1300
g62
(dp1301
g89
g90
ssg71
g1290
sg64
(lp1302
S':'
asbag57
(g78
g59
NtRp1303
(dp1304
g62
(dp1305
sg71
g1290
sg64
(lp1306
g57
(g58
g59
NtRp1307
(dp1308
g62
(dp1309
g70
I4
ssg71
g1303
sg64
(lp1310
S"<Values at 0xa03ad8c: {'verbose': False, 'ip': '127.0.0.1', 'with_scheduler': False, 'ips': ['127.0.1.1'], 'shutdown_timeout': 5, 'taskbar': False, 'port': 8000, 'maxthreads': None, 'softcron': False, 'server_name': 'emp2web-300E4A-300E5A-300E7A-3430EA-3530EA', 'bpython': False, 'nogui': False, 'nocron': False, 'extcron': False, 'run_system_tests': False, 'test': None, 'folder': '/home/emp2web/webcast/web2py', 'config': '', 'import_models': False, 'winservice': '', 'shell': None, 'run': '', 'log_filename': 'httpserver.log', 'debuglevel': 30, 'args': [''], 'socket_timeout': 5, 'ssl_ca_certificate': None, 'scheduler': None, 'profiler_filename': None, 'ssl_private_key': '', 'scheduler_groups': None, 'password': 'web2py', 'request_queue_size': 5, 'ssl_certificate': '', 'cronjob': False, 'numthreads': None, 'quiet': False, 'interfaces': None, 'minthreads': None, 'timeout': 10, 'plain': False, 'nobanner': False, 'pid_filename': 'httpserver.pid'}>"
p1311
asbasbasbag57
(g73
g59
NtRp1312
(dp1313
g62
(dp1314
sg71
g1217
sg64
(lp1315
g57
(g78
g59
NtRp1316
(dp1317
g62
(dp1318
g82
g83
ssg71
g1312
sg64
(lp1319
S'content_length'
p1320
asbag57
(g78
g59
NtRp1321
(dp1322
g62
(dp1323
g89
g90
ssg71
g1312
sg64
(lp1324
S':'
asbag57
(g78
g59
NtRp1325
(dp1326
g62
(dp1327
sg71
g1312
sg64
(lp1328
g57
(g58
g59
NtRp1329
(dp1330
g62
(dp1331
g70
I4
ssg71
g1325
sg64
(lp1332
S'0'
asbasbasbag57
(g73
g59
NtRp1333
(dp1334
g62
(dp1335
sg71
g1217
sg64
(lp1336
g57
(g78
g59
NtRp1337
(dp1338
g62
(dp1339
g82
g83
ssg71
g1333
sg64
(lp1340
S'db_sessions'
p1341
asbag57
(g78
g59
NtRp1342
(dp1343
g62
(dp1344
g89
g90
ssg71
g1333
sg64
(lp1345
S':'
asbag57
(g78
g59
NtRp1346
(dp1347
g62
(dp1348
sg71
g1333
sg64
(lp1349
g57
(g58
g59
NtRp1350
(dp1351
g62
(dp1352
g70
I4
ssg71
g1346
sg64
(lp1353
S'set([])'
p1354
asbasbasbag57
(g73
g59
NtRp1355
(dp1356
g62
(dp1357
sg71
g1217
sg64
(lp1358
g57
(g78
g59
NtRp1359
(dp1360
g62
(dp1361
g82
g83
ssg71
g1355
sg64
(lp1362
S'debugging'
p1363
asbag57
(g78
g59
NtRp1364
(dp1365
g62
(dp1366
g89
g90
ssg71
g1355
sg64
(lp1367
S':'
asbag57
(g78
g59
NtRp1368
(dp1369
g62
(dp1370
sg71
g1355
sg64
(lp1371
g57
(g58
g59
NtRp1372
(dp1373
g62
(dp1374
g70
I4
ssg71
g1368
sg64
(lp1375
S'False'
p1376
asbasbasbag57
(g73
g59
NtRp1377
(dp1378
g62
(dp1379
sg71
g1217
sg64
(lp1380
g57
(g78
g59
NtRp1381
(dp1382
g62
(dp1383
g82
g83
ssg71
g1377
sg64
(lp1384
S'gluon_parent'
p1385
asbag57
(g78
g59
NtRp1386
(dp1387
g62
(dp1388
g89
g90
ssg71
g1377
sg64
(lp1389
S':'
asbag57
(g78
g59
NtRp1390
(dp1391
g62
(dp1392
sg71
g1377
sg64
(lp1393
g57
(g58
g59
NtRp1394
(dp1395
g62
(dp1396
g70
I4
ssg71
g1390
sg64
(lp1397
S'/home/emp2web/webcast/web2py'
p1398
asbasbasbag57
(g73
g59
NtRp1399
(dp1400
g62
(dp1401
sg71
g1217
sg64
(lp1402
g57
(g78
g59
NtRp1403
(dp1404
g62
(dp1405
g82
g83
ssg71
g1399
sg64
(lp1406
S'http_accept'
p1407
asbag57
(g78
g59
NtRp1408
(dp1409
g62
(dp1410
g89
g90
ssg71
g1399
sg64
(lp1411
S':'
asbag57
(g78
g59
NtRp1412
(dp1413
g62
(dp1414
sg71
g1399
sg64
(lp1415
g57
(g58
g59
NtRp1416
(dp1417
g62
(dp1418
g70
I4
ssg71
g1412
sg64
(lp1419
S'*/*'
p1420
asbasbasbag57
(g73
g59
NtRp1421
(dp1422
g62
(dp1423
sg71
g1217
sg64
(lp1424
g57
(g78
g59
NtRp1425
(dp1426
g62
(dp1427
g82
g83
ssg71
g1421
sg64
(lp1428
S'http_accept_charset'
p1429
asbag57
(g78
g59
NtRp1430
(dp1431
g62
(dp1432
g89
g90
ssg71
g1421
sg64
(lp1433
S':'
asbag57
(g78
g59
NtRp1434
(dp1435
g62
(dp1436
sg71
g1421
sg64
(lp1437
g57
(g58
g59
NtRp1438
(dp1439
g62
(dp1440
g70
I4
ssg71
g1434
sg64
(lp1441
S'ISO-8859-1,utf-8;q=0.7,*;q=0.3'
p1442
asbasbasbag57
(g73
g59
NtRp1443
(dp1444
g62
(dp1445
sg71
g1217
sg64
(lp1446
g57
(g78
g59
NtRp1447
(dp1448
g62
(dp1449
g82
g83
ssg71
g1443
sg64
(lp1450
S'http_accept_encoding'
p1451
asbag57
(g78
g59
NtRp1452
(dp1453
g62
(dp1454
g89
g90
ssg71
g1443
sg64
(lp1455
S':'
asbag57
(g78
g59
NtRp1456
(dp1457
g62
(dp1458
sg71
g1443
sg64
(lp1459
g57
(g58
g59
NtRp1460
(dp1461
g62
(dp1462
g70
I4
ssg71
g1456
sg64
(lp1463
S'gzip,deflate,sdch'
p1464
asbasbasbag57
(g73
g59
NtRp1465
(dp1466
g62
(dp1467
sg71
g1217
sg64
(lp1468
g57
(g78
g59
NtRp1469
(dp1470
g62
(dp1471
g82
g83
ssg71
g1465
sg64
(lp1472
S'http_accept_language'
p1473
asbag57
(g78
g59
NtRp1474
(dp1475
g62
(dp1476
g89
g90
ssg71
g1465
sg64
(lp1477
S':'
asbag57
(g78
g59
NtRp1478
(dp1479
g62
(dp1480
sg71
g1465
sg64
(lp1481
g57
(g58
g59
NtRp1482
(dp1483
g62
(dp1484
g70
I4
ssg71
g1478
sg64
(lp1485
S'es-ES,es;q=0.8'
p1486
asbasbasbag57
(g73
g59
NtRp1487
(dp1488
g62
(dp1489
sg71
g1217
sg64
(lp1490
g57
(g78
g59
NtRp1491
(dp1492
g62
(dp1493
g82
g83
ssg71
g1487
sg64
(lp1494
S'http_connection'
p1495
asbag57
(g78
g59
NtRp1496
(dp1497
g62
(dp1498
g89
g90
ssg71
g1487
sg64
(lp1499
S':'
asbag57
(g78
g59
NtRp1500
(dp1501
g62
(dp1502
sg71
g1487
sg64
(lp1503
g57
(g58
g59
NtRp1504
(dp1505
g62
(dp1506
g70
I4
ssg71
g1500
sg64
(lp1507
S'keep-alive'
p1508
asbasbasbag57
(g73
g59
NtRp1509
(dp1510
g62
(dp1511
sg71
g1217
sg64
(lp1512
g57
(g78
g59
NtRp1513
(dp1514
g62
(dp1515
g82
g83
ssg71
g1509
sg64
(lp1516
S'http_content_length'
p1517
asbag57
(g78
g59
NtRp1518
(dp1519
g62
(dp1520
g89
g90
ssg71
g1509
sg64
(lp1521
S':'
asbag57
(g78
g59
NtRp1522
(dp1523
g62
(dp1524
sg71
g1509
sg64
(lp1525
g57
(g58
g59
NtRp1526
(dp1527
g62
(dp1528
g70
I4
ssg71
g1522
sg64
(lp1529
S'0'
asbasbasbag57
(g73
g59
NtRp1530
(dp1531
g62
(dp1532
sg71
g1217
sg64
(lp1533
g57
(g78
g59
NtRp1534
(dp1535
g62
(dp1536
g82
g83
ssg71
g1530
sg64
(lp1537
S'http_cookie'
p1538
asbag57
(g78
g59
NtRp1539
(dp1540
g62
(dp1541
g89
g90
ssg71
g1530
sg64
(lp1542
S':'
asbag57
(g78
g59
NtRp1543
(dp1544
g62
(dp1545
sg71
g1530
sg64
(lp1546
g57
(g58
g59
NtRp1547
(dp1548
g62
(dp1549
g70
I4
ssg71
g1543
sg64
(lp1550
S'size=4; CP.mode=B; session_id_welcome=127.0.0.1-c8e186f8-735f-483e-9656-57e94bd318d4; session_id_proyectos=127.0.0.1-be82b3d9-4d64-4bfc-8d3a-c456e8044ba2; session_id_admin=127.0.0.1-59d830b7-3426-4408-b007-2063f315657f'
p1551
asbasbasbag57
(g73
g59
NtRp1552
(dp1553
g62
(dp1554
sg71
g1217
sg64
(lp1555
g57
(g78
g59
NtRp1556
(dp1557
g62
(dp1558
g82
g83
ssg71
g1552
sg64
(lp1559
S'http_host'
p1560
asbag57
(g78
g59
NtRp1561
(dp1562
g62
(dp1563
g89
g90
ssg71
g1552
sg64
(lp1564
S':'
asbag57
(g78
g59
NtRp1565
(dp1566
g62
(dp1567
sg71
g1552
sg64
(lp1568
g57
(g58
g59
NtRp1569
(dp1570
g62
(dp1571
g70
I4
ssg71
g1565
sg64
(lp1572
S'localhost:8000'
p1573
asbasbasbag57
(g73
g59
NtRp1574
(dp1575
g62
(dp1576
sg71
g1217
sg64
(lp1577
g57
(g78
g59
NtRp1578
(dp1579
g62
(dp1580
g82
g83
ssg71
g1574
sg64
(lp1581
S'http_origin'
p1582
asbag57
(g78
g59
NtRp1583
(dp1584
g62
(dp1585
g89
g90
ssg71
g1574
sg64
(lp1586
S':'
asbag57
(g78
g59
NtRp1587
(dp1588
g62
(dp1589
sg71
g1574
sg64
(lp1590
g57
(g58
g59
NtRp1591
(dp1592
g62
(dp1593
g70
I4
ssg71
g1587
sg64
(lp1594
S'http://localhost:8000'
p1595
asbasbasbag57
(g73
g59
NtRp1596
(dp1597
g62
(dp1598
sg71
g1217
sg64
(lp1599
g57
(g78
g59
NtRp1600
(dp1601
g62
(dp1602
g82
g83
ssg71
g1596
sg64
(lp1603
S'http_referer'
p1604
asbag57
(g78
g59
NtRp1605
(dp1606
g62
(dp1607
g89
g90
ssg71
g1596
sg64
(lp1608
S':'
asbag57
(g78
g59
NtRp1609
(dp1610
g62
(dp1611
sg71
g1596
sg64
(lp1612
g57
(g58
g59
NtRp1613
(dp1614
g62
(dp1615
g70
I4
ssg71
g1609
sg64
(lp1616
S'http://localhost:8000/admin/default/test/proyectos'
p1617
asbasbasbag57
(g73
g59
NtRp1618
(dp1619
g62
(dp1620
sg71
g1217
sg64
(lp1621
g57
(g78
g59
NtRp1622
(dp1623
g62
(dp1624
g82
g83
ssg71
g1618
sg64
(lp1625
S'http_user_agent'
p1626
asbag57
(g78
g59
NtRp1627
(dp1628
g62
(dp1629
g89
g90
ssg71
g1618
sg64
(lp1630
S':'
asbag57
(g78
g59
NtRp1631
(dp1632
g62
(dp1633
sg71
g1618
sg64
(lp1634
g57
(g58
g59
NtRp1635
(dp1636
g62
(dp1637
g70
I4
ssg71
g1631
sg64
(lp1638
S'Mozilla/5.0 (X11; Linux i686) AppleWebKit/535.19 (KHTML, like Gecko) Ubuntu/12.04 Chromium/18.0.1025.151 Chrome/18.0.1025.151 Safari/535.19'
p1639
asbasbasbag57
(g73
g59
NtRp1640
(dp1641
g62
(dp1642
sg71
g1217
sg64
(lp1643
g57
(g78
g59
NtRp1644
(dp1645
g62
(dp1646
g82
g83
ssg71
g1640
sg64
(lp1647
S'http_x_requested_with'
p1648
asbag57
(g78
g59
NtRp1649
(dp1650
g62
(dp1651
g89
g90
ssg71
g1640
sg64
(lp1652
S':'
asbag57
(g78
g59
NtRp1653
(dp1654
g62
(dp1655
sg71
g1640
sg64
(lp1656
g57
(g58
g59
NtRp1657
(dp1658
g62
(dp1659
g70
I4
ssg71
g1653
sg64
(lp1660
S'XMLHttpRequest'
p1661
asbasbasbag57
(g73
g59
NtRp1662
(dp1663
g62
(dp1664
sg71
g1217
sg64
(lp1665
g57
(g78
g59
NtRp1666
(dp1667
g62
(dp1668
g82
g83
ssg71
g1662
sg64
(lp1669
S'is_jython'
p1670
asbag57
(g78
g59
NtRp1671
(dp1672
g62
(dp1673
g89
g90
ssg71
g1662
sg64
(lp1674
S':'
asbag57
(g78
g59
NtRp1675
(dp1676
g62
(dp1677
sg71
g1662
sg64
(lp1678
g57
(g58
g59
NtRp1679
(dp1680
g62
(dp1681
g70
I4
ssg71
g1675
sg64
(lp1682
g1376
asbasbasbag57
(g73
g59
NtRp1683
(dp1684
g62
(dp1685
sg71
g1217
sg64
(lp1686
g57
(g78
g59
NtRp1687
(dp1688
g62
(dp1689
g82
g83
ssg71
g1683
sg64
(lp1690
S'is_pypy'
p1691
asbag57
(g78
g59
NtRp1692
(dp1693
g62
(dp1694
g89
g90
ssg71
g1683
sg64
(lp1695
S':'
asbag57
(g78
g59
NtRp1696
(dp1697
g62
(dp1698
sg71
g1683
sg64
(lp1699
g57
(g58
g59
NtRp1700
(dp1701
g62
(dp1702
g70
I4
ssg71
g1696
sg64
(lp1703
g1376
asbasbasbag57
(g73
g59
NtRp1704
(dp1705
g62
(dp1706
sg71
g1217
sg64
(lp1707
g57
(g78
g59
NtRp1708
(dp1709
g62
(dp1710
g82
g83
ssg71
g1704
sg64
(lp1711
S'path_info'
p1712
asbag57
(g78
g59
NtRp1713
(dp1714
g62
(dp1715
g89
g90
ssg71
g1704
sg64
(lp1716
S':'
asbag57
(g78
g59
NtRp1717
(dp1718
g62
(dp1719
sg71
g1704
sg64
(lp1720
g57
(g58
g59
NtRp1721
(dp1722
g62
(dp1723
g70
I4
ssg71
g1717
sg64
(lp1724
S'/proyectos/default/_TEST'
p1725
asbasbasbag57
(g73
g59
NtRp1726
(dp1727
g62
(dp1728
sg71
g1217
sg64
(lp1729
g57
(g78
g59
NtRp1730
(dp1731
g62
(dp1732
g82
g83
ssg71
g1726
sg64
(lp1733
S'query_string'
p1734
asbag57
(g78
g59
NtRp1735
(dp1736
g62
(dp1737
g89
g90
ssg71
g1726
sg64
(lp1738
S':'
asbag57
(g78
g59
NtRp1739
(dp1740
g62
(dp1741
sg71
g1726
sg64
(lp1742
g57
(g58
g59
NtRp1743
(dp1744
g62
(dp1745
g70
I4
ssg71
g1739
sg64
(lp1746
S''
asbasbasbag57
(g73
g59
NtRp1747
(dp1748
g62
(dp1749
sg71
g1217
sg64
(lp1750
g57
(g78
g59
NtRp1751
(dp1752
g62
(dp1753
g82
g83
ssg71
g1747
sg64
(lp1754
S'remote_addr'
p1755
asbag57
(g78
g59
NtRp1756
(dp1757
g62
(dp1758
g89
g90
ssg71
g1747
sg64
(lp1759
S':'
asbag57
(g78
g59
NtRp1760
(dp1761
g62
(dp1762
sg71
g1747
sg64
(lp1763
g57
(g58
g59
NtRp1764
(dp1765
g62
(dp1766
g70
I4
ssg71
g1760
sg64
(lp1767
g212
asbasbasbag57
(g73
g59
NtRp1768
(dp1769
g62
(dp1770
sg71
g1217
sg64
(lp1771
g57
(g78
g59
NtRp1772
(dp1773
g62
(dp1774
g82
g83
ssg71
g1768
sg64
(lp1775
S'remote_port'
p1776
asbag57
(g78
g59
NtRp1777
(dp1778
g62
(dp1779
g89
g90
ssg71
g1768
sg64
(lp1780
S':'
asbag57
(g78
g59
NtRp1781
(dp1782
g62
(dp1783
sg71
g1768
sg64
(lp1784
g57
(g58
g59
NtRp1785
(dp1786
g62
(dp1787
g70
I4
ssg71
g1781
sg64
(lp1788
S'36473'
p1789
asbasbasbag57
(g73
g59
NtRp1790
(dp1791
g62
(dp1792
sg71
g1217
sg64
(lp1793
g57
(g78
g59
NtRp1794
(dp1795
g62
(dp1796
g82
g83
ssg71
g1790
sg64
(lp1797
S'request_method'
p1798
asbag57
(g78
g59
NtRp1799
(dp1800
g62
(dp1801
g89
g90
ssg71
g1790
sg64
(lp1802
S':'
asbag57
(g78
g59
NtRp1803
(dp1804
g62
(dp1805
sg71
g1790
sg64
(lp1806
g57
(g58
g59
NtRp1807
(dp1808
g62
(dp1809
g70
I4
ssg71
g1803
sg64
(lp1810
S'POST'
p1811
asbasbasbag57
(g73
g59
NtRp1812
(dp1813
g62
(dp1814
sg71
g1217
sg64
(lp1815
g57
(g78
g59
NtRp1816
(dp1817
g62
(dp1818
g82
g83
ssg71
g1812
sg64
(lp1819
S'request_uri'
p1820
asbag57
(g78
g59
NtRp1821
(dp1822
g62
(dp1823
g89
g90
ssg71
g1812
sg64
(lp1824
S':'
asbag57
(g78
g59
NtRp1825
(dp1826
g62
(dp1827
sg71
g1812
sg64
(lp1828
g57
(g58
g59
NtRp1829
(dp1830
g62
(dp1831
g70
I4
ssg71
g1825
sg64
(lp1832
g1725
asbasbasbag57
(g73
g59
NtRp1833
(dp1834
g62
(dp1835
sg71
g1217
sg64
(lp1836
g57
(g78
g59
NtRp1837
(dp1838
g62
(dp1839
g82
g83
ssg71
g1833
sg64
(lp1840
S'script_name'
p1841
asbag57
(g78
g59
NtRp1842
(dp1843
g62
(dp1844
g89
g90
ssg71
g1833
sg64
(lp1845
S':'
asbag57
(g78
g59
NtRp1846
(dp1847
g62
(dp1848
sg71
g1833
sg64
(lp1849
g57
(g58
g59
NtRp1850
(dp1851
g62
(dp1852
g70
I4
ssg71
g1846
sg64
(lp1853
S''
asbasbasbag57
(g73
g59
NtRp1854
(dp1855
g62
(dp1856
sg71
g1217
sg64
(lp1857
g57
(g78
g59
NtRp1858
(dp1859
g62
(dp1860
g82
g83
ssg71
g1854
sg64
(lp1861
S'server_name'
p1862
asbag57
(g78
g59
NtRp1863
(dp1864
g62
(dp1865
g89
g90
ssg71
g1854
sg64
(lp1866
S':'
asbag57
(g78
g59
NtRp1867
(dp1868
g62
(dp1869
sg71
g1854
sg64
(lp1870
g57
(g58
g59
NtRp1871
(dp1872
g62
(dp1873
g70
I4
ssg71
g1867
sg64
(lp1874
S'emp2web-300E4A-300E5A-300E7A-3430EA-3530EA'
p1875
asbasbasbag57
(g73
g59
NtRp1876
(dp1877
g62
(dp1878
sg71
g1217
sg64
(lp1879
g57
(g78
g59
NtRp1880
(dp1881
g62
(dp1882
g82
g83
ssg71
g1876
sg64
(lp1883
S'server_port'
p1884
asbag57
(g78
g59
NtRp1885
(dp1886
g62
(dp1887
g89
g90
ssg71
g1876
sg64
(lp1888
S':'
asbag57
(g78
g59
NtRp1889
(dp1890
g62
(dp1891
sg71
g1876
sg64
(lp1892
g57
(g58
g59
NtRp1893
(dp1894
g62
(dp1895
g70
I4
ssg71
g1889
sg64
(lp1896
S'8000'
p1897
asbasbasbag57
(g73
g59
NtRp1898
(dp1899
g62
(dp1900
sg71
g1217
sg64
(lp1901
g57
(g78
g59
NtRp1902
(dp1903
g62
(dp1904
g82
g83
ssg71
g1898
sg64
(lp1905
S'server_protocol'
p1906
asbag57
(g78
g59
NtRp1907
(dp1908
g62
(dp1909
g89
g90
ssg71
g1898
sg64
(lp1910
S':'
asbag57
(g78
g59
NtRp1911
(dp1912
g62
(dp1913
sg71
g1898
sg64
(lp1914
g57
(g58
g59
NtRp1915
(dp1916
g62
(dp1917
g70
I4
ssg71
g1911
sg64
(lp1918
S'HTTP/1.1'
p1919
asbasbasbag57
(g73
g59
NtRp1920
(dp1921
g62
(dp1922
sg71
g1217
sg64
(lp1923
g57
(g78
g59
NtRp1924
(dp1925
g62
(dp1926
g82
g83
ssg71
g1920
sg64
(lp1927
S'server_software'
p1928
asbag57
(g78
g59
NtRp1929
(dp1930
g62
(dp1931
g89
g90
ssg71
g1920
sg64
(lp1932
S':'
asbag57
(g78
g59
NtRp1933
(dp1934
g62
(dp1935
sg71
g1920
sg64
(lp1936
g57
(g58
g59
NtRp1937
(dp1938
g62
(dp1939
g70
I4
ssg71
g1933
sg64
(lp1940
S'Rocket 1.2.4'
p1941
asbasbasbag57
(g73
g59
NtRp1942
(dp1943
g62
(dp1944
sg71
g1217
sg64
(lp1945
g57
(g78
g59
NtRp1946
(dp1947
g62
(dp1948
g82
g83
ssg71
g1942
sg64
(lp1949
S'web2py_crontype'
p1950
asbag57
(g78
g59
NtRp1951
(dp1952
g62
(dp1953
g89
g90
ssg71
g1942
sg64
(lp1954
S':'
asbag57
(g78
g59
NtRp1955
(dp1956
g62
(dp1957
sg71
g1942
sg64
(lp1958
g57
(g58
g59
NtRp1959
(dp1960
g62
(dp1961
g70
I4
ssg71
g1955
sg64
(lp1962
S'hard'
p1963
asbasbasbag57
(g73
g59
NtRp1964
(dp1965
g62
(dp1966
sg71
g1217
sg64
(lp1967
g57
(g78
g59
NtRp1968
(dp1969
g62
(dp1970
g82
g83
ssg71
g1964
sg64
(lp1971
S'web2py_path'
p1972
asbag57
(g78
g59
NtRp1973
(dp1974
g62
(dp1975
g89
g90
ssg71
g1964
sg64
(lp1976
S':'
asbag57
(g78
g59
NtRp1977
(dp1978
g62
(dp1979
sg71
g1964
sg64
(lp1980
g57
(g58
g59
NtRp1981
(dp1982
g62
(dp1983
g70
I4
ssg71
g1977
sg64
(lp1984
g1264
asbasbasbag57
(g73
g59
NtRp1985
(dp1986
g62
(dp1987
sg71
g1217
sg64
(lp1988
g57
(g78
g59
NtRp1989
(dp1990
g62
(dp1991
g82
g83
ssg71
g1985
sg64
(lp1992
S'web2py_version'
p1993
asbag57
(g78
g59
NtRp1994
(dp1995
g62
(dp1996
g89
g90
ssg71
g1985
sg64
(lp1997
S':'
asbag57
(g78
g59
NtRp1998
(dp1999
g62
(dp2000
sg71
g1985
sg64
(lp2001
g57
(g58
g59
NtRp2002
(dp2003
g62
(dp2004
g70
I4
ssg71
g1998
sg64
(lp2005
g57
(g66
g59
NtRp2006
(dp2007
g62
(dp2008
g70
I3
ssg71
Nsg64
(lp2009
g57
(g73
g59
NtRp2010
(dp2011
g62
(dp2012
sg71
g2006
sg64
(lp2013
g57
(g78
g59
NtRp2014
(dp2015
g62
(dp2016
sg71
g2010
sg64
(lp2017
g57
(g58
g59
NtRp2018
(dp2019
g62
(dp2020
g70
I3
ssg71
g2014
sg64
(lp2021
S'2'
asbasbasbag57
(g73
g59
NtRp2022
(dp2023
g62
(dp2024
sg71
g2006
sg64
(lp2025
g57
(g78
g59
NtRp2026
(dp2027
g62
(dp2028
sg71
g2022
sg64
(lp2029
g57
(g58
g59
NtRp2030
(dp2031
g62
(dp2032
g70
I3
ssg71
g2026
sg64
(lp2033
S'0'
asbasbasbag57
(g73
g59
NtRp2034
(dp2035
g62
(dp2036
sg71
g2006
sg64
(lp2037
g57
(g78
g59
NtRp2038
(dp2039
g62
(dp2040
sg71
g2034
sg64
(lp2041
g57
(g58
g59
NtRp2042
(dp2043
g62
(dp2044
g70
I3
ssg71
g2038
sg64
(lp2045
S'6'
asbasbasbag57
(g73
g59
NtRp2046
(dp2047
g62
(dp2048
sg71
g2006
sg64
(lp2049
g57
(g78
g59
NtRp2050
(dp2051
g62
(dp2052
sg71
g2046
sg64
(lp2053
g57
(g58
g59
NtRp2054
(dp2055
g62
(dp2056
g70
I3
ssg71
g2050
sg64
(lp2057
S'datetime.datetime(2012, 9, 2, 4, 44, 23)'
p2058
asbasbasbag57
(g73
g59
NtRp2059
(dp2060
g62
(dp2061
sg71
g2006
sg64
(lp2062
g57
(g78
g59
NtRp2063
(dp2064
g62
(dp2065
sg71
g2059
sg64
(lp2066
g57
(g58
g59
NtRp2067
(dp2068
g62
(dp2069
g70
I3
ssg71
g2063
sg64
(lp2070
S'stable'
p2071
asbasbasbasbasbasbasbag57
(g73
g59
NtRp2072
(dp2073
g62
(dp2074
sg71
g1217
sg64
(lp2075
g57
(g78
g59
NtRp2076
(dp2077
g62
(dp2078
g82
g83
ssg71
g2072
sg64
(lp2079
S'wsgi_errors'
p2080
asbag57
(g78
g59
NtRp2081
(dp2082
g62
(dp2083
g89
g90
ssg71
g2072
sg64
(lp2084
S':'
asbag57
(g78
g59
NtRp2085
(dp2086
g62
(dp2087
sg71
g2072
sg64
(lp2088
g57
(g58
g59
NtRp2089
(dp2090
g62
(dp2091
g70
I4
ssg71
g2085
sg64
(lp2092
S"<open file '<stderr>', mode 'w' at 0xb72ca0d0>"
p2093
asbasbasbag57
(g73
g59
NtRp2094
(dp2095
g62
(dp2096
sg71
g1217
sg64
(lp2097
g57
(g78
g59
NtRp2098
(dp2099
g62
(dp2100
g82
g83
ssg71
g2094
sg64
(lp2101
S'wsgi_file_wrapper'
p2102
asbag57
(g78
g59
NtRp2103
(dp2104
g62
(dp2105
g89
g90
ssg71
g2094
sg64
(lp2106
S':'
asbag57
(g78
g59
NtRp2107
(dp2108
g62
(dp2109
sg71
g2094
sg64
(lp2110
g57
(g58
g59
NtRp2111
(dp2112
g62
(dp2113
g70
I4
ssg71
g2107
sg64
(lp2114
S'<class wsgiref.util.FileWrapper at 0xa00e02c>'
p2115
asbasbasbag57
(g73
g59
NtRp2116
(dp2117
g62
(dp2118
sg71
g1217
sg64
(lp2119
g57
(g78
g59
NtRp2120
(dp2121
g62
(dp2122
g82
g83
ssg71
g2116
sg64
(lp2123
S'wsgi_input'
p2124
asbag57
(g78
g59
NtRp2125
(dp2126
g62
(dp2127
g89
g90
ssg71
g2116
sg64
(lp2128
S':'
asbag57
(g78
g59
NtRp2129
(dp2130
g62
(dp2131
sg71
g2116
sg64
(lp2132
g57
(g58
g59
NtRp2133
(dp2134
g62
(dp2135
g70
I4
ssg71
g2129
sg64
(lp2136
S'<socket._fileobject object at 0xa171eac>'
p2137
asbasbasbag57
(g73
g59
NtRp2138
(dp2139
g62
(dp2140
sg71
g1217
sg64
(lp2141
g57
(g78
g59
NtRp2142
(dp2143
g62
(dp2144
g82
g83
ssg71
g2138
sg64
(lp2145
S'wsgi_multiprocess'
p2146
asbag57
(g78
g59
NtRp2147
(dp2148
g62
(dp2149
g89
g90
ssg71
g2138
sg64
(lp2150
S':'
asbag57
(g78
g59
NtRp2151
(dp2152
g62
(dp2153
sg71
g2138
sg64
(lp2154
g57
(g58
g59
NtRp2155
(dp2156
g62
(dp2157
g70
I4
ssg71
g2151
sg64
(lp2158
g1376
asbasbasbag57
(g73
g59
NtRp2159
(dp2160
g62
(dp2161
sg71
g1217
sg64
(lp2162
g57
(g78
g59
NtRp2163
(dp2164
g62
(dp2165
g82
g83
ssg71
g2159
sg64
(lp2166
S'wsgi_multithread'
p2167
asbag57
(g78
g59
NtRp2168
(dp2169
g62
(dp2170
g89
g90
ssg71
g2159
sg64
(lp2171
S':'
asbag57
(g78
g59
NtRp2172
(dp2173
g62
(dp2174
sg71
g2159
sg64
(lp2175
g57
(g58
g59
NtRp2176
(dp2177
g62
(dp2178
g70
I4
ssg71
g2172
sg64
(lp2179
g100
asbasbasbag57
(g73
g59
NtRp2180
(dp2181
g62
(dp2182
sg71
g1217
sg64
(lp2183
g57
(g78
g59
NtRp2184
(dp2185
g62
(dp2186
g82
g83
ssg71
g2180
sg64
(lp2187
S'wsgi_run_once'
p2188
asbag57
(g78
g59
NtRp2189
(dp2190
g62
(dp2191
g89
g90
ssg71
g2180
sg64
(lp2192
S':'
asbag57
(g78
g59
NtRp2193
(dp2194
g62
(dp2195
sg71
g2180
sg64
(lp2196
g57
(g58
g59
NtRp2197
(dp2198
g62
(dp2199
g70
I4
ssg71
g2193
sg64
(lp2200
g1376
asbasbasbag57
(g73
g59
NtRp2201
(dp2202
g62
(dp2203
sg71
g1217
sg64
(lp2204
g57
(g78
g59
NtRp2205
(dp2206
g62
(dp2207
g82
g83
ssg71
g2201
sg64
(lp2208
S'wsgi_url_scheme'
p2209
asbag57
(g78
g59
NtRp2210
(dp2211
g62
(dp2212
g89
g90
ssg71
g2201
sg64
(lp2213
S':'
asbag57
(g78
g59
NtRp2214
(dp2215
g62
(dp2216
sg71
g2201
sg64
(lp2217
g57
(g58
g59
NtRp2218
(dp2219
g62
(dp2220
g70
I4
ssg71
g2214
sg64
(lp2221
S'http'
p2222
asbasbasbag57
(g73
g59
NtRp2223
(dp2224
g62
(dp2225
sg71
g1217
sg64
(lp2226
g57
(g78
g59
NtRp2227
(dp2228
g62
(dp2229
g82
g83
ssg71
g2223
sg64
(lp2230
S'wsgi_version'
p2231
asbag57
(g78
g59
NtRp2232
(dp2233
g62
(dp2234
g89
g90
ssg71
g2223
sg64
(lp2235
S':'
asbag57
(g78
g59
NtRp2236
(dp2237
g62
(dp2238
sg71
g2223
sg64
(lp2239
g57
(g58
g59
NtRp2240
(dp2241
g62
(dp2242
g70
I4
ssg71
g2236
sg64
(lp2243
g57
(g66
g59
NtRp2244
(dp2245
g62
(dp2246
g70
I3
ssg71
Nsg64
(lp2247
g57
(g73
g59
NtRp2248
(dp2249
g62
(dp2250
sg71
g2244
sg64
(lp2251
g57
(g78
g59
NtRp2252
(dp2253
g62
(dp2254
sg71
g2248
sg64
(lp2255
g57
(g58
g59
NtRp2256
(dp2257
g62
(dp2258
g70
I3
ssg71
g2252
sg64
(lp2259
S'1'
asbasbasbag57
(g73
g59
NtRp2260
(dp2261
g62
(dp2262
sg71
g2244
sg64
(lp2263
g57
(g78
g59
NtRp2264
(dp2265
g62
(dp2266
sg71
g2260
sg64
(lp2267
g57
(g58
g59
NtRp2268
(dp2269
g62
(dp2270
g70
I3
ssg71
g2264
sg64
(lp2271
S'0'
asbasbasbasbasbasbasbasbasbasbasbag57
(g73
g59
NtRp2272
(dp2273
g62
(dp2274
sg71
g67
sg64
(lp2275
g57
(g78
g59
NtRp2276
(dp2277
g62
(dp2278
g82
g83
ssg71
g2272
sg64
(lp2279
S'extension'
p2280
asbag57
(g78
g59
NtRp2281
(dp2282
g62
(dp2283
g89
g90
ssg71
g2272
sg64
(lp2284
S':'
asbag57
(g78
g59
NtRp2285
(dp2286
g62
(dp2287
sg71
g2272
sg64
(lp2288
g57
(g58
g59
NtRp2289
(dp2290
g62
(dp2291
g70
I5
ssg71
g2285
sg64
(lp2292
S'html'
p2293
asbasbasbag57
(g73
g59
NtRp2294
(dp2295
g62
(dp2296
sg71
g67
sg64
(lp2297
g57
(g78
g59
NtRp2298
(dp2299
g62
(dp2300
g82
g83
ssg71
g2294
sg64
(lp2301
S'folder'
p2302
asbag57
(g78
g59
NtRp2303
(dp2304
g62
(dp2305
g89
g90
ssg71
g2294
sg64
(lp2306
S':'
asbag57
(g78
g59
NtRp2307
(dp2308
g62
(dp2309
sg71
g2294
sg64
(lp2310
g57
(g58
g59
NtRp2311
(dp2312
g62
(dp2313
g70
I5
ssg71
g2307
sg64
(lp2314
S'/home/emp2web/webcast/web2py/applications/proyectos/'
p2315
asbasbasbag57
(g73
g59
NtRp2316
(dp2317
g62
(dp2318
sg71
g67
sg64
(lp2319
g57
(g78
g59
NtRp2320
(dp2321
g62
(dp2322
g82
g83
ssg71
g2316
sg64
(lp2323
S'function'
p2324
asbag57
(g78
g59
NtRp2325
(dp2326
g62
(dp2327
g89
g90
ssg71
g2316
sg64
(lp2328
S':'
asbag57
(g78
g59
NtRp2329
(dp2330
g62
(dp2331
sg71
g2316
sg64
(lp2332
g57
(g58
g59
NtRp2333
(dp2334
g62
(dp2335
g70
I5
ssg71
g2329
sg64
(lp2336
S'_TEST'
p2337
asbasbasbag57
(g73
g59
NtRp2338
(dp2339
g62
(dp2340
sg71
g67
sg64
(lp2341
g57
(g78
g59
NtRp2342
(dp2343
g62
(dp2344
g82
g83
ssg71
g2338
sg64
(lp2345
S'get_vars'
p2346
asbag57
(g78
g59
NtRp2347
(dp2348
g62
(dp2349
g89
g90
ssg71
g2338
sg64
(lp2350
S':'
asbag57
(g78
g59
NtRp2351
(dp2352
g62
(dp2353
sg71
g2338
sg64
(lp2354
g57
(g58
g59
NtRp2355
(dp2356
g62
(dp2357
g70
I5
ssg71
g2351
sg64
(lp2358
g57
(g66
g59
NtRp2359
(dp2360
g62
(dp2361
g70
I4
ssg71
Nsg64
(lp2362
sbasbasbasbag57
(g73
g59
NtRp2363
(dp2364
g62
(dp2365
sg71
g67
sg64
(lp2366
g57
(g78
g59
NtRp2367
(dp2368
g62
(dp2369
g82
g83
ssg71
g2363
sg64
(lp2370
S'global_settings'
p2371
asbag57
(g78
g59
NtRp2372
(dp2373
g62
(dp2374
g89
g90
ssg71
g2363
sg64
(lp2375
S':'
asbag57
(g78
g59
NtRp2376
(dp2377
g62
(dp2378
sg71
g2363
sg64
(lp2379
g57
(g58
g59
NtRp2380
(dp2381
g62
(dp2382
g70
I5
ssg71
g2376
sg64
(lp2383
g57
(g66
g59
NtRp2384
(dp2385
g62
(dp2386
g70
I4
ssg71
Nsg64
(lp2387
g57
(g73
g59
NtRp2388
(dp2389
g62
(dp2390
sg71
g2384
sg64
(lp2391
g57
(g78
g59
NtRp2392
(dp2393
g62
(dp2394
g82
g83
ssg71
g2388
sg64
(lp2395
g1229
asbag57
(g78
g59
NtRp2396
(dp2397
g62
(dp2398
g89
g90
ssg71
g2388
sg64
(lp2399
S':'
asbag57
(g78
g59
NtRp2400
(dp2401
g62
(dp2402
sg71
g2388
sg64
(lp2403
g57
(g58
g59
NtRp2404
(dp2405
g62
(dp2406
g70
I4
ssg71
g2400
sg64
(lp2407
S"set(['/home/emp2web/webcast/web2py/applications/examples/', '/home/emp2web/webcast/web2py/applications/welcome/', '/home/emp2web/webcast/web2py/applications/admin/', '/home/emp2web/webcast/web2py/applications/proyectos/'])"
p2408
asbasbasbag57
(g73
g59
NtRp2409
(dp2410
g62
(dp2411
sg71
g2384
sg64
(lp2412
g57
(g78
g59
NtRp2413
(dp2414
g62
(dp2415
g82
g83
ssg71
g2409
sg64
(lp2416
g1251
asbag57
(g78
g59
NtRp2417
(dp2418
g62
(dp2419
g89
g90
ssg71
g2409
sg64
(lp2420
S':'
asbag57
(g78
g59
NtRp2421
(dp2422
g62
(dp2423
sg71
g2409
sg64
(lp2424
g57
(g58
g59
NtRp2425
(dp2426
g62
(dp2427
g70
I4
ssg71
g2421
sg64
(lp2428
g1264
asbasbasbag57
(g73
g59
NtRp2429
(dp2430
g62
(dp2431
sg71
g2384
sg64
(lp2432
g57
(g78
g59
NtRp2433
(dp2434
g62
(dp2435
g82
g83
ssg71
g2429
sg64
(lp2436
g1273
asbag57
(g78
g59
NtRp2437
(dp2438
g62
(dp2439
g89
g90
ssg71
g2429
sg64
(lp2440
S':'
asbag57
(g78
g59
NtRp2441
(dp2442
g62
(dp2443
sg71
g2429
sg64
(lp2444
g57
(g58
g59
NtRp2445
(dp2446
g62
(dp2447
g70
I4
ssg71
g2441
sg64
(lp2448
g57
(g66
g59
NtRp2449
(dp2450
g62
(dp2451
g70
I3
ssg71
Nsg64
(lp2452
sbasbasbasbag57
(g73
g59
NtRp2453
(dp2454
g62
(dp2455
sg71
g2384
sg64
(lp2456
g57
(g78
g59
NtRp2457
(dp2458
g62
(dp2459
g82
g83
ssg71
g2453
sg64
(lp2460
g1298
asbag57
(g78
g59
NtRp2461
(dp2462
g62
(dp2463
g89
g90
ssg71
g2453
sg64
(lp2464
S':'
asbag57
(g78
g59
NtRp2465
(dp2466
g62
(dp2467
sg71
g2453
sg64
(lp2468
g57
(g58
g59
NtRp2469
(dp2470
g62
(dp2471
g70
I4
ssg71
g2465
sg64
(lp2472
S"<Values at 0xa03ad8c: {'verbose': False, 'ip': '127.0.0.1', 'with_scheduler': False, 'ips': ['127.0.1.1'], 'shutdown_timeout': 5, 'taskbar': False, 'port': 8000, 'maxthreads': None, 'softcron': False, 'server_name': 'emp2web-300E4A-300E5A-300E7A-3430EA-3530EA', 'bpython': False, 'nogui': False, 'nocron': False, 'extcron': False, 'run_system_tests': False, 'test': None, 'folder': '/home/emp2web/webcast/web2py', 'config': '', 'import_models': False, 'winservice': '', 'shell': None, 'run': '', 'log_filename': 'httpserver.log', 'debuglevel': 30, 'args': [''], 'socket_timeout': 5, 'ssl_ca_certificate': None, 'scheduler': None, 'profiler_filename': None, 'ssl_private_key': '', 'scheduler_groups': None, 'password': 'web2py', 'request_queue_size': 5, 'ssl_certificate': '', 'cronjob': False, 'numthreads': None, 'quiet': False, 'interfaces': None, 'minthreads': None, 'timeout': 10, 'plain': False, 'nobanner': False, 'pid_filename': 'httpserver.pid'}>"
p2473
asbasbasbag57
(g73
g59
NtRp2474
(dp2475
g62
(dp2476
sg71
g2384
sg64
(lp2477
g57
(g78
g59
NtRp2478
(dp2479
g62
(dp2480
g82
g83
ssg71
g2474
sg64
(lp2481
g1341
asbag57
(g78
g59
NtRp2482
(dp2483
g62
(dp2484
g89
g90
ssg71
g2474
sg64
(lp2485
S':'
asbag57
(g78
g59
NtRp2486
(dp2487
g62
(dp2488
sg71
g2474
sg64
(lp2489
g57
(g58
g59
NtRp2490
(dp2491
g62
(dp2492
g70
I4
ssg71
g2486
sg64
(lp2493
S'set([])'
p2494
asbasbasbag57
(g73
g59
NtRp2495
(dp2496
g62
(dp2497
sg71
g2384
sg64
(lp2498
g57
(g78
g59
NtRp2499
(dp2500
g62
(dp2501
g82
g83
ssg71
g2495
sg64
(lp2502
g1363
asbag57
(g78
g59
NtRp2503
(dp2504
g62
(dp2505
g89
g90
ssg71
g2495
sg64
(lp2506
S':'
asbag57
(g78
g59
NtRp2507
(dp2508
g62
(dp2509
sg71
g2495
sg64
(lp2510
g57
(g58
g59
NtRp2511
(dp2512
g62
(dp2513
g70
I4
ssg71
g2507
sg64
(lp2514
g1376
asbasbasbag57
(g73
g59
NtRp2515
(dp2516
g62
(dp2517
sg71
g2384
sg64
(lp2518
g57
(g78
g59
NtRp2519
(dp2520
g62
(dp2521
g82
g83
ssg71
g2515
sg64
(lp2522
g1385
asbag57
(g78
g59
NtRp2523
(dp2524
g62
(dp2525
g89
g90
ssg71
g2515
sg64
(lp2526
S':'
asbag57
(g78
g59
NtRp2527
(dp2528
g62
(dp2529
sg71
g2515
sg64
(lp2530
g57
(g58
g59
NtRp2531
(dp2532
g62
(dp2533
g70
I4
ssg71
g2527
sg64
(lp2534
g1398
asbasbasbag57
(g73
g59
NtRp2535
(dp2536
g62
(dp2537
sg71
g2384
sg64
(lp2538
g57
(g78
g59
NtRp2539
(dp2540
g62
(dp2541
g82
g83
ssg71
g2535
sg64
(lp2542
g1670
asbag57
(g78
g59
NtRp2543
(dp2544
g62
(dp2545
g89
g90
ssg71
g2535
sg64
(lp2546
S':'
asbag57
(g78
g59
NtRp2547
(dp2548
g62
(dp2549
sg71
g2535
sg64
(lp2550
g57
(g58
g59
NtRp2551
(dp2552
g62
(dp2553
g70
I4
ssg71
g2547
sg64
(lp2554
g1376
asbasbasbag57
(g73
g59
NtRp2555
(dp2556
g62
(dp2557
sg71
g2384
sg64
(lp2558
g57
(g78
g59
NtRp2559
(dp2560
g62
(dp2561
g82
g83
ssg71
g2555
sg64
(lp2562
g1691
asbag57
(g78
g59
NtRp2563
(dp2564
g62
(dp2565
g89
g90
ssg71
g2555
sg64
(lp2566
S':'
asbag57
(g78
g59
NtRp2567
(dp2568
g62
(dp2569
sg71
g2555
sg64
(lp2570
g57
(g58
g59
NtRp2571
(dp2572
g62
(dp2573
g70
I4
ssg71
g2567
sg64
(lp2574
g1376
asbasbasbag57
(g73
g59
NtRp2575
(dp2576
g62
(dp2577
sg71
g2384
sg64
(lp2578
g57
(g78
g59
NtRp2579
(dp2580
g62
(dp2581
g82
g83
ssg71
g2575
sg64
(lp2582
g1950
asbag57
(g78
g59
NtRp2583
(dp2584
g62
(dp2585
g89
g90
ssg71
g2575
sg64
(lp2586
S':'
asbag57
(g78
g59
NtRp2587
(dp2588
g62
(dp2589
sg71
g2575
sg64
(lp2590
g57
(g58
g59
NtRp2591
(dp2592
g62
(dp2593
g70
I4
ssg71
g2587
sg64
(lp2594
g1963
asbasbasbag57
(g73
g59
NtRp2595
(dp2596
g62
(dp2597
sg71
g2384
sg64
(lp2598
g57
(g78
g59
NtRp2599
(dp2600
g62
(dp2601
g82
g83
ssg71
g2595
sg64
(lp2602
g1993
asbag57
(g78
g59
NtRp2603
(dp2604
g62
(dp2605
g89
g90
ssg71
g2595
sg64
(lp2606
S':'
asbag57
(g78
g59
NtRp2607
(dp2608
g62
(dp2609
sg71
g2595
sg64
(lp2610
g57
(g58
g59
NtRp2611
(dp2612
g62
(dp2613
g70
I4
ssg71
g2607
sg64
(lp2614
g57
(g66
g59
NtRp2615
(dp2616
g62
(dp2617
g70
I3
ssg71
Nsg64
(lp2618
g57
(g73
g59
NtRp2619
(dp2620
g62
(dp2621
sg71
g2615
sg64
(lp2622
g57
(g78
g59
NtRp2623
(dp2624
g62
(dp2625
sg71
g2619
sg64
(lp2626
g57
(g58
g59
NtRp2627
(dp2628
g62
(dp2629
g70
I3
ssg71
g2623
sg64
(lp2630
S'2'
asbasbasbag57
(g73
g59
NtRp2631
(dp2632
g62
(dp2633
sg71
g2615
sg64
(lp2634
g57
(g78
g59
NtRp2635
(dp2636
g62
(dp2637
sg71
g2631
sg64
(lp2638
g57
(g58
g59
NtRp2639
(dp2640
g62
(dp2641
g70
I3
ssg71
g2635
sg64
(lp2642
S'0'
asbasbasbag57
(g73
g59
NtRp2643
(dp2644
g62
(dp2645
sg71
g2615
sg64
(lp2646
g57
(g78
g59
NtRp2647
(dp2648
g62
(dp2649
sg71
g2643
sg64
(lp2650
g57
(g58
g59
NtRp2651
(dp2652
g62
(dp2653
g70
I3
ssg71
g2647
sg64
(lp2654
S'6'
asbasbasbag57
(g73
g59
NtRp2655
(dp2656
g62
(dp2657
sg71
g2615
sg64
(lp2658
g57
(g78
g59
NtRp2659
(dp2660
g62
(dp2661
sg71
g2655
sg64
(lp2662
g57
(g58
g59
NtRp2663
(dp2664
g62
(dp2665
g70
I3
ssg71
g2659
sg64
(lp2666
S'datetime.datetime(2012, 9, 2, 4, 44, 23)'
p2667
asbasbasbag57
(g73
g59
NtRp2668
(dp2669
g62
(dp2670
sg71
g2615
sg64
(lp2671
g57
(g78
g59
NtRp2672
(dp2673
g62
(dp2674
sg71
g2668
sg64
(lp2675
g57
(g58
g59
NtRp2676
(dp2677
g62
(dp2678
g70
I3
ssg71
g2672
sg64
(lp2679
g2071
asbasbasbasbasbasbasbasbasbasbasbag57
(g73
g59
NtRp2680
(dp2681
g62
(dp2682
sg71
g67
sg64
(lp2683
g57
(g78
g59
NtRp2684
(dp2685
g62
(dp2686
g82
g83
ssg71
g2680
sg64
(lp2687
S'is_https'
p2688
asbag57
(g78
g59
NtRp2689
(dp2690
g62
(dp2691
g89
g90
ssg71
g2680
sg64
(lp2692
S':'
asbag57
(g78
g59
NtRp2693
(dp2694
g62
(dp2695
sg71
g2680
sg64
(lp2696
g57
(g58
g59
NtRp2697
(dp2698
g62
(dp2699
g70
I5
ssg71
g2693
sg64
(lp2700
g1376
asbasbasbag57
(g73
g59
NtRp2701
(dp2702
g62
(dp2703
sg71
g67
sg64
(lp2704
g57
(g78
g59
NtRp2705
(dp2706
g62
(dp2707
g82
g83
ssg71
g2701
sg64
(lp2708
S'is_local'
p2709
asbag57
(g78
g59
NtRp2710
(dp2711
g62
(dp2712
g89
g90
ssg71
g2701
sg64
(lp2713
S':'
asbag57
(g78
g59
NtRp2714
(dp2715
g62
(dp2716
sg71
g2701
sg64
(lp2717
g57
(g58
g59
NtRp2718
(dp2719
g62
(dp2720
g70
I5
ssg71
g2714
sg64
(lp2721
g100
asbasbasbag57
(g73
g59
NtRp2722
(dp2723
g62
(dp2724
sg71
g67
sg64
(lp2725
g57
(g78
g59
NtRp2726
(dp2727
g62
(dp2728
g82
g83
ssg71
g2722
sg64
(lp2729
S'is_restful'
p2730
asbag57
(g78
g59
NtRp2731
(dp2732
g62
(dp2733
g89
g90
ssg71
g2722
sg64
(lp2734
S':'
asbag57
(g78
g59
NtRp2735
(dp2736
g62
(dp2737
sg71
g2722
sg64
(lp2738
g57
(g58
g59
NtRp2739
(dp2740
g62
(dp2741
g70
I5
ssg71
g2735
sg64
(lp2742
g1376
asbasbasbag57
(g73
g59
NtRp2743
(dp2744
g62
(dp2745
sg71
g67
sg64
(lp2746
g57
(g78
g59
NtRp2747
(dp2748
g62
(dp2749
g82
g83
ssg71
g2743
sg64
(lp2750
S'now'
p2751
asbag57
(g78
g59
NtRp2752
(dp2753
g62
(dp2754
g89
g90
ssg71
g2743
sg64
(lp2755
S':'
asbag57
(g78
g59
NtRp2756
(dp2757
g62
(dp2758
sg71
g2743
sg64
(lp2759
g57
(g58
g59
NtRp2760
(dp2761
g62
(dp2762
g70
I5
ssg71
g2756
sg64
(lp2763
S'datetime.datetime(2012, 9, 6, 15, 46, 8, 402263)'
p2764
asbasbasbag57
(g73
g59
NtRp2765
(dp2766
g62
(dp2767
sg71
g67
sg64
(lp2768
g57
(g78
g59
NtRp2769
(dp2770
g62
(dp2771
g82
g83
ssg71
g2765
sg64
(lp2772
S'post_vars'
p2773
asbag57
(g78
g59
NtRp2774
(dp2775
g62
(dp2776
g89
g90
ssg71
g2765
sg64
(lp2777
S':'
asbag57
(g78
g59
NtRp2778
(dp2779
g62
(dp2780
sg71
g2765
sg64
(lp2781
g57
(g58
g59
NtRp2782
(dp2783
g62
(dp2784
g70
I5
ssg71
g2778
sg64
(lp2785
g57
(g66
g59
NtRp2786
(dp2787
g62
(dp2788
g70
I4
ssg71
Nsg64
(lp2789
sbasbasbasbag57
(g73
g59
NtRp2790
(dp2791
g62
(dp2792
sg71
g67
sg64
(lp2793
g57
(g78
g59
NtRp2794
(dp2795
g62
(dp2796
g82
g83
ssg71
g2790
sg64
(lp2797
S'raw_args'
p2798
asbag57
(g78
g59
NtRp2799
(dp2800
g62
(dp2801
g89
g90
ssg71
g2790
sg64
(lp2802
S':'
asbag57
(g78
g59
NtRp2803
(dp2804
g62
(dp2805
sg71
g2790
sg64
(lp2806
g57
(g58
g59
NtRp2807
(dp2808
g62
(dp2809
g70
I5
ssg71
g2803
sg64
(lp2810
S'None'
p2811
asbasbasbag57
(g73
g59
NtRp2812
(dp2813
g62
(dp2814
sg71
g67
sg64
(lp2815
g57
(g78
g59
NtRp2816
(dp2817
g62
(dp2818
g82
g83
ssg71
g2812
sg64
(lp2819
S'raw_extension'
p2820
asbag57
(g78
g59
NtRp2821
(dp2822
g62
(dp2823
g89
g90
ssg71
g2812
sg64
(lp2824
S':'
asbag57
(g78
g59
NtRp2825
(dp2826
g62
(dp2827
sg71
g2812
sg64
(lp2828
g57
(g58
g59
NtRp2829
(dp2830
g62
(dp2831
g70
I5
ssg71
g2825
sg64
(lp2832
S'None'
p2833
asbasbasbag57
(g73
g59
NtRp2834
(dp2835
g62
(dp2836
sg71
g67
sg64
(lp2837
g57
(g78
g59
NtRp2838
(dp2839
g62
(dp2840
g82
g83
ssg71
g2834
sg64
(lp2841
S'url'
p2842
asbag57
(g78
g59
NtRp2843
(dp2844
g62
(dp2845
g89
g90
ssg71
g2834
sg64
(lp2846
S':'
asbag57
(g78
g59
NtRp2847
(dp2848
g62
(dp2849
sg71
g2834
sg64
(lp2850
g57
(g58
g59
NtRp2851
(dp2852
g62
(dp2853
g70
I5
ssg71
g2847
sg64
(lp2854
S'/proyectos/default/_TEST'
p2855
asbasbasbag57
(g73
g59
NtRp2856
(dp2857
g62
(dp2858
sg71
g67
sg64
(lp2859
g57
(g78
g59
NtRp2860
(dp2861
g62
(dp2862
g82
g83
ssg71
g2856
sg64
(lp2863
S'utcnow'
p2864
asbag57
(g78
g59
NtRp2865
(dp2866
g62
(dp2867
g89
g90
ssg71
g2856
sg64
(lp2868
S':'
asbag57
(g78
g59
NtRp2869
(dp2870
g62
(dp2871
sg71
g2856
sg64
(lp2872
g57
(g58
g59
NtRp2873
(dp2874
g62
(dp2875
g70
I5
ssg71
g2869
sg64
(lp2876
S'datetime.datetime(2012, 9, 6, 20, 46, 8, 402298)'
p2877
asbasbasbag57
(g73
g59
NtRp2878
(dp2879
g62
(dp2880
sg71
g67
sg64
(lp2881
g57
(g78
g59
NtRp2882
(dp2883
g62
(dp2884
g82
g83
ssg71
g2878
sg64
(lp2885
S'uuid'
p2886
asbag57
(g78
g59
NtRp2887
(dp2888
g62
(dp2889
g89
g90
ssg71
g2878
sg64
(lp2890
S':'
asbag57
(g78
g59
NtRp2891
(dp2892
g62
(dp2893
sg71
g2878
sg64
(lp2894
g57
(g58
g59
NtRp2895
(dp2896
g62
(dp2897
g70
I5
ssg71
g2891
sg64
(lp2898
S'proyectos/127.0.0.1.2012-09-06.15-46-08.38c129a9-b2a2-41e7-8e69-e9ba20c0b3c5'
p2899
asbasbasbag57
(g73
g59
NtRp2900
(dp2901
g62
(dp2902
sg71
g67
sg64
(lp2903
g57
(g78
g59
NtRp2904
(dp2905
g62
(dp2906
g82
g83
ssg71
g2900
sg64
(lp2907
S'vars'
p2908
asbag57
(g78
g59
NtRp2909
(dp2910
g62
(dp2911
g89
g90
ssg71
g2900
sg64
(lp2912
S':'
asbag57
(g78
g59
NtRp2913
(dp2914
g62
(dp2915
sg71
g2900
sg64
(lp2916
g57
(g58
g59
NtRp2917
(dp2918
g62
(dp2919
g70
I5
ssg71
g2913
sg64
(lp2920
g57
(g66
g59
NtRp2921
(dp2922
g62
(dp2923
g70
I4
ssg71
Nsg64
(lp2924
sbasbasbasbag57
(g73
g59
NtRp2925
(dp2926
g62
(dp2927
sg71
g67
sg64
(lp2928
g57
(g78
g59
NtRp2929
(dp2930
g62
(dp2931
g82
g83
ssg71
g2925
sg64
(lp2932
S'wsgi'
p2933
asbag57
(g78
g59
NtRp2934
(dp2935
g62
(dp2936
g89
g90
ssg71
g2925
sg64
(lp2937
S':'
asbag57
(g78
g59
NtRp2938
(dp2939
g62
(dp2940
sg71
g2925
sg64
(lp2941
g57
(g58
g59
NtRp2942
(dp2943
g62
(dp2944
g70
I5
ssg71
g2938
sg64
(lp2945
g57
(g66
g59
NtRp2946
(dp2947
g62
(dp2948
g70
I4
ssg71
Nsg64
(lp2949
g57
(g73
g59
NtRp2950
(dp2951
g62
(dp2952
sg71
g2946
sg64
(lp2953
g57
(g78
g59
NtRp2954
(dp2955
g62
(dp2956
g82
g83
ssg71
g2950
sg64
(lp2957
S'environ'
p2958
asbag57
(g78
g59
NtRp2959
(dp2960
g62
(dp2961
g89
g90
ssg71
g2950
sg64
(lp2962
S':'
asbag57
(g78
g59
NtRp2963
(dp2964
g62
(dp2965
sg71
g2950
sg64
(lp2966
g57
(g58
g59
NtRp2967
(dp2968
g62
(dp2969
g70
I4
ssg71
g2963
sg64
(lp2970
g57
(g66
g59
NtRp2971
(dp2972
g62
(dp2973
g70
I3
ssg71
Nsg64
(lp2974
g57
(g73
g59
NtRp2975
(dp2976
g62
(dp2977
sg71
g2971
sg64
(lp2978
g57
(g78
g59
NtRp2979
(dp2980
g62
(dp2981
g82
g83
ssg71
g2975
sg64
(lp2982
S'CONTENT_LENGTH'
p2983
asbag57
(g78
g59
NtRp2984
(dp2985
g62
(dp2986
g89
g90
ssg71
g2975
sg64
(lp2987
S':'
asbag57
(g78
g59
NtRp2988
(dp2989
g62
(dp2990
sg71
g2975
sg64
(lp2991
g57
(g58
g59
NtRp2992
(dp2993
g62
(dp2994
g70
I3
ssg71
g2988
sg64
(lp2995
S'0'
asbasbasbag57
(g73
g59
NtRp2996
(dp2997
g62
(dp2998
sg71
g2971
sg64
(lp2999
g57
(g78
g59
NtRp3000
(dp3001
g62
(dp3002
g82
g83
ssg71
g2996
sg64
(lp3003
S'HTTP_ACCEPT'
p3004
asbag57
(g78
g59
NtRp3005
(dp3006
g62
(dp3007
g89
g90
ssg71
g2996
sg64
(lp3008
S':'
asbag57
(g78
g59
NtRp3009
(dp3010
g62
(dp3011
sg71
g2996
sg64
(lp3012
g57
(g58
g59
NtRp3013
(dp3014
g62
(dp3015
g70
I3
ssg71
g3009
sg64
(lp3016
g1420
asbasbasbag57
(g73
g59
NtRp3017
(dp3018
g62
(dp3019
sg71
g2971
sg64
(lp3020
g57
(g78
g59
NtRp3021
(dp3022
g62
(dp3023
g82
g83
ssg71
g3017
sg64
(lp3024
S'HTTP_ACCEPT_CHARSET'
p3025
asbag57
(g78
g59
NtRp3026
(dp3027
g62
(dp3028
g89
g90
ssg71
g3017
sg64
(lp3029
S':'
asbag57
(g78
g59
NtRp3030
(dp3031
g62
(dp3032
sg71
g3017
sg64
(lp3033
g57
(g58
g59
NtRp3034
(dp3035
g62
(dp3036
g70
I3
ssg71
g3030
sg64
(lp3037
g1442
asbasbasbag57
(g73
g59
NtRp3038
(dp3039
g62
(dp3040
sg71
g2971
sg64
(lp3041
g57
(g78
g59
NtRp3042
(dp3043
g62
(dp3044
g82
g83
ssg71
g3038
sg64
(lp3045
S'HTTP_ACCEPT_ENCODING'
p3046
asbag57
(g78
g59
NtRp3047
(dp3048
g62
(dp3049
g89
g90
ssg71
g3038
sg64
(lp3050
S':'
asbag57
(g78
g59
NtRp3051
(dp3052
g62
(dp3053
sg71
g3038
sg64
(lp3054
g57
(g58
g59
NtRp3055
(dp3056
g62
(dp3057
g70
I3
ssg71
g3051
sg64
(lp3058
g1464
asbasbasbag57
(g73
g59
NtRp3059
(dp3060
g62
(dp3061
sg71
g2971
sg64
(lp3062
g57
(g78
g59
NtRp3063
(dp3064
g62
(dp3065
g82
g83
ssg71
g3059
sg64
(lp3066
S'HTTP_ACCEPT_LANGUAGE'
p3067
asbag57
(g78
g59
NtRp3068
(dp3069
g62
(dp3070
g89
g90
ssg71
g3059
sg64
(lp3071
S':'
asbag57
(g78
g59
NtRp3072
(dp3073
g62
(dp3074
sg71
g3059
sg64
(lp3075
g57
(g58
g59
NtRp3076
(dp3077
g62
(dp3078
g70
I3
ssg71
g3072
sg64
(lp3079
g1486
asbasbasbag57
(g73
g59
NtRp3080
(dp3081
g62
(dp3082
sg71
g2971
sg64
(lp3083
g57
(g78
g59
NtRp3084
(dp3085
g62
(dp3086
g82
g83
ssg71
g3080
sg64
(lp3087
S'HTTP_CONNECTION'
p3088
asbag57
(g78
g59
NtRp3089
(dp3090
g62
(dp3091
g89
g90
ssg71
g3080
sg64
(lp3092
S':'
asbag57
(g78
g59
NtRp3093
(dp3094
g62
(dp3095
sg71
g3080
sg64
(lp3096
g57
(g58
g59
NtRp3097
(dp3098
g62
(dp3099
g70
I3
ssg71
g3093
sg64
(lp3100
g1508
asbasbasbag57
(g73
g59
NtRp3101
(dp3102
g62
(dp3103
sg71
g2971
sg64
(lp3104
g57
(g78
g59
NtRp3105
(dp3106
g62
(dp3107
g82
g83
ssg71
g3101
sg64
(lp3108
S'HTTP_CONTENT_LENGTH'
p3109
asbag57
(g78
g59
NtRp3110
(dp3111
g62
(dp3112
g89
g90
ssg71
g3101
sg64
(lp3113
S':'
asbag57
(g78
g59
NtRp3114
(dp3115
g62
(dp3116
sg71
g3101
sg64
(lp3117
g57
(g58
g59
NtRp3118
(dp3119
g62
(dp3120
g70
I3
ssg71
g3114
sg64
(lp3121
S'0'
asbasbasbag57
(g73
g59
NtRp3122
(dp3123
g62
(dp3124
sg71
g2971
sg64
(lp3125
g57
(g78
g59
NtRp3126
(dp3127
g62
(dp3128
g82
g83
ssg71
g3122
sg64
(lp3129
S'HTTP_COOKIE'
p3130
asbag57
(g78
g59
NtRp3131
(dp3132
g62
(dp3133
g89
g90
ssg71
g3122
sg64
(lp3134
S':'
asbag57
(g78
g59
NtRp3135
(dp3136
g62
(dp3137
sg71
g3122
sg64
(lp3138
g57
(g58
g59
NtRp3139
(dp3140
g62
(dp3141
g70
I3
ssg71
g3135
sg64
(lp3142
g1551
asbasbasbag57
(g73
g59
NtRp3143
(dp3144
g62
(dp3145
sg71
g2971
sg64
(lp3146
g57
(g78
g59
NtRp3147
(dp3148
g62
(dp3149
g82
g83
ssg71
g3143
sg64
(lp3150
S'HTTP_HOST'
p3151
asbag57
(g78
g59
NtRp3152
(dp3153
g62
(dp3154
g89
g90
ssg71
g3143
sg64
(lp3155
S':'
asbag57
(g78
g59
NtRp3156
(dp3157
g62
(dp3158
sg71
g3143
sg64
(lp3159
g57
(g58
g59
NtRp3160
(dp3161
g62
(dp3162
g70
I3
ssg71
g3156
sg64
(lp3163
g1573
asbasbasbag57
(g73
g59
NtRp3164
(dp3165
g62
(dp3166
sg71
g2971
sg64
(lp3167
g57
(g78
g59
NtRp3168
(dp3169
g62
(dp3170
g82
g83
ssg71
g3164
sg64
(lp3171
S'HTTP_ORIGIN'
p3172
asbag57
(g78
g59
NtRp3173
(dp3174
g62
(dp3175
g89
g90
ssg71
g3164
sg64
(lp3176
S':'
asbag57
(g78
g59
NtRp3177
(dp3178
g62
(dp3179
sg71
g3164
sg64
(lp3180
g57
(g58
g59
NtRp3181
(dp3182
g62
(dp3183
g70
I3
ssg71
g3177
sg64
(lp3184
g1595
asbasbasbag57
(g73
g59
NtRp3185
(dp3186
g62
(dp3187
sg71
g2971
sg64
(lp3188
g57
(g78
g59
NtRp3189
(dp3190
g62
(dp3191
g82
g83
ssg71
g3185
sg64
(lp3192
S'HTTP_REFERER'
p3193
asbag57
(g78
g59
NtRp3194
(dp3195
g62
(dp3196
g89
g90
ssg71
g3185
sg64
(lp3197
S':'
asbag57
(g78
g59
NtRp3198
(dp3199
g62
(dp3200
sg71
g3185
sg64
(lp3201
g57
(g58
g59
NtRp3202
(dp3203
g62
(dp3204
g70
I3
ssg71
g3198
sg64
(lp3205
g1617
asbasbasbag57
(g73
g59
NtRp3206
(dp3207
g62
(dp3208
sg71
g2971
sg64
(lp3209
g57
(g78
g59
NtRp3210
(dp3211
g62
(dp3212
g82
g83
ssg71
g3206
sg64
(lp3213
S'HTTP_USER_AGENT'
p3214
asbag57
(g78
g59
NtRp3215
(dp3216
g62
(dp3217
g89
g90
ssg71
g3206
sg64
(lp3218
S':'
asbag57
(g78
g59
NtRp3219
(dp3220
g62
(dp3221
sg71
g3206
sg64
(lp3222
g57
(g58
g59
NtRp3223
(dp3224
g62
(dp3225
g70
I3
ssg71
g3219
sg64
(lp3226
g1639
asbasbasbag57
(g73
g59
NtRp3227
(dp3228
g62
(dp3229
sg71
g2971
sg64
(lp3230
g57
(g78
g59
NtRp3231
(dp3232
g62
(dp3233
g82
g83
ssg71
g3227
sg64
(lp3234
S'HTTP_X_REQUESTED_WITH'
p3235
asbag57
(g78
g59
NtRp3236
(dp3237
g62
(dp3238
g89
g90
ssg71
g3227
sg64
(lp3239
S':'
asbag57
(g78
g59
NtRp3240
(dp3241
g62
(dp3242
sg71
g3227
sg64
(lp3243
g57
(g58
g59
NtRp3244
(dp3245
g62
(dp3246
g70
I3
ssg71
g3240
sg64
(lp3247
g1661
asbasbasbag57
(g73
g59
NtRp3248
(dp3249
g62
(dp3250
sg71
g2971
sg64
(lp3251
g57
(g78
g59
NtRp3252
(dp3253
g62
(dp3254
g82
g83
ssg71
g3248
sg64
(lp3255
S'PATH_INFO'
p3256
asbag57
(g78
g59
NtRp3257
(dp3258
g62
(dp3259
g89
g90
ssg71
g3248
sg64
(lp3260
S':'
asbag57
(g78
g59
NtRp3261
(dp3262
g62
(dp3263
sg71
g3248
sg64
(lp3264
g57
(g58
g59
NtRp3265
(dp3266
g62
(dp3267
g70
I3
ssg71
g3261
sg64
(lp3268
g1725
asbasbasbag57
(g73
g59
NtRp3269
(dp3270
g62
(dp3271
sg71
g2971
sg64
(lp3272
g57
(g78
g59
NtRp3273
(dp3274
g62
(dp3275
g82
g83
ssg71
g3269
sg64
(lp3276
S'QUERY_STRING'
p3277
asbag57
(g78
g59
NtRp3278
(dp3279
g62
(dp3280
g89
g90
ssg71
g3269
sg64
(lp3281
S':'
asbag57
(g78
g59
NtRp3282
(dp3283
g62
(dp3284
sg71
g3269
sg64
(lp3285
g57
(g58
g59
NtRp3286
(dp3287
g62
(dp3288
g70
I3
ssg71
g3282
sg64
(lp3289
S''
asbasbasbag57
(g73
g59
NtRp3290
(dp3291
g62
(dp3292
sg71
g2971
sg64
(lp3293
g57
(g78
g59
NtRp3294
(dp3295
g62
(dp3296
g82
g83
ssg71
g3290
sg64
(lp3297
S'REMOTE_ADDR'
p3298
asbag57
(g78
g59
NtRp3299
(dp3300
g62
(dp3301
g89
g90
ssg71
g3290
sg64
(lp3302
S':'
asbag57
(g78
g59
NtRp3303
(dp3304
g62
(dp3305
sg71
g3290
sg64
(lp3306
g57
(g58
g59
NtRp3307
(dp3308
g62
(dp3309
g70
I3
ssg71
g3303
sg64
(lp3310
g212
asbasbasbag57
(g73
g59
NtRp3311
(dp3312
g62
(dp3313
sg71
g2971
sg64
(lp3314
g57
(g78
g59
NtRp3315
(dp3316
g62
(dp3317
g82
g83
ssg71
g3311
sg64
(lp3318
S'REMOTE_PORT'
p3319
asbag57
(g78
g59
NtRp3320
(dp3321
g62
(dp3322
g89
g90
ssg71
g3311
sg64
(lp3323
S':'
asbag57
(g78
g59
NtRp3324
(dp3325
g62
(dp3326
sg71
g3311
sg64
(lp3327
g57
(g58
g59
NtRp3328
(dp3329
g62
(dp3330
g70
I3
ssg71
g3324
sg64
(lp3331
g1789
asbasbasbag57
(g73
g59
NtRp3332
(dp3333
g62
(dp3334
sg71
g2971
sg64
(lp3335
g57
(g78
g59
NtRp3336
(dp3337
g62
(dp3338
g82
g83
ssg71
g3332
sg64
(lp3339
S'REQUEST_METHOD'
p3340
asbag57
(g78
g59
NtRp3341
(dp3342
g62
(dp3343
g89
g90
ssg71
g3332
sg64
(lp3344
S':'
asbag57
(g78
g59
NtRp3345
(dp3346
g62
(dp3347
sg71
g3332
sg64
(lp3348
g57
(g58
g59
NtRp3349
(dp3350
g62
(dp3351
g70
I3
ssg71
g3345
sg64
(lp3352
g1811
asbasbasbag57
(g73
g59
NtRp3353
(dp3354
g62
(dp3355
sg71
g2971
sg64
(lp3356
g57
(g78
g59
NtRp3357
(dp3358
g62
(dp3359
g82
g83
ssg71
g3353
sg64
(lp3360
S'REQUEST_URI'
p3361
asbag57
(g78
g59
NtRp3362
(dp3363
g62
(dp3364
g89
g90
ssg71
g3353
sg64
(lp3365
S':'
asbag57
(g78
g59
NtRp3366
(dp3367
g62
(dp3368
sg71
g3353
sg64
(lp3369
g57
(g58
g59
NtRp3370
(dp3371
g62
(dp3372
g70
I3
ssg71
g3366
sg64
(lp3373
g1725
asbasbasbag57
(g73
g59
NtRp3374
(dp3375
g62
(dp3376
sg71
g2971
sg64
(lp3377
g57
(g78
g59
NtRp3378
(dp3379
g62
(dp3380
g82
g83
ssg71
g3374
sg64
(lp3381
S'SCRIPT_NAME'
p3382
asbag57
(g78
g59
NtRp3383
(dp3384
g62
(dp3385
g89
g90
ssg71
g3374
sg64
(lp3386
S':'
asbag57
(g78
g59
NtRp3387
(dp3388
g62
(dp3389
sg71
g3374
sg64
(lp3390
g57
(g58
g59
NtRp3391
(dp3392
g62
(dp3393
g70
I3
ssg71
g3387
sg64
(lp3394
S''
asbasbasbag57
(g73
g59
NtRp3395
(dp3396
g62
(dp3397
sg71
g2971
sg64
(lp3398
g57
(g78
g59
NtRp3399
(dp3400
g62
(dp3401
g82
g83
ssg71
g3395
sg64
(lp3402
S'SERVER_NAME'
p3403
asbag57
(g78
g59
NtRp3404
(dp3405
g62
(dp3406
g89
g90
ssg71
g3395
sg64
(lp3407
S':'
asbag57
(g78
g59
NtRp3408
(dp3409
g62
(dp3410
sg71
g3395
sg64
(lp3411
g57
(g58
g59
NtRp3412
(dp3413
g62
(dp3414
g70
I3
ssg71
g3408
sg64
(lp3415
g1875
asbasbasbag57
(g73
g59
NtRp3416
(dp3417
g62
(dp3418
sg71
g2971
sg64
(lp3419
g57
(g78
g59
NtRp3420
(dp3421
g62
(dp3422
g82
g83
ssg71
g3416
sg64
(lp3423
S'SERVER_PORT'
p3424
asbag57
(g78
g59
NtRp3425
(dp3426
g62
(dp3427
g89
g90
ssg71
g3416
sg64
(lp3428
S':'
asbag57
(g78
g59
NtRp3429
(dp3430
g62
(dp3431
sg71
g3416
sg64
(lp3432
g57
(g58
g59
NtRp3433
(dp3434
g62
(dp3435
g70
I3
ssg71
g3429
sg64
(lp3436
g1897
asbasbasbag57
(g73
g59
NtRp3437
(dp3438
g62
(dp3439
sg71
g2971
sg64
(lp3440
g57
(g78
g59
NtRp3441
(dp3442
g62
(dp3443
g82
g83
ssg71
g3437
sg64
(lp3444
S'SERVER_PROTOCOL'
p3445
asbag57
(g78
g59
NtRp3446
(dp3447
g62
(dp3448
g89
g90
ssg71
g3437
sg64
(lp3449
S':'
asbag57
(g78
g59
NtRp3450
(dp3451
g62
(dp3452
sg71
g3437
sg64
(lp3453
g57
(g58
g59
NtRp3454
(dp3455
g62
(dp3456
g70
I3
ssg71
g3450
sg64
(lp3457
g1919
asbasbasbag57
(g73
g59
NtRp3458
(dp3459
g62
(dp3460
sg71
g2971
sg64
(lp3461
g57
(g78
g59
NtRp3462
(dp3463
g62
(dp3464
g82
g83
ssg71
g3458
sg64
(lp3465
S'SERVER_SOFTWARE'
p3466
asbag57
(g78
g59
NtRp3467
(dp3468
g62
(dp3469
g89
g90
ssg71
g3458
sg64
(lp3470
S':'
asbag57
(g78
g59
NtRp3471
(dp3472
g62
(dp3473
sg71
g3458
sg64
(lp3474
g57
(g58
g59
NtRp3475
(dp3476
g62
(dp3477
g70
I3
ssg71
g3471
sg64
(lp3478
g1941
asbasbasbag57
(g73
g59
NtRp3479
(dp3480
g62
(dp3481
sg71
g2971
sg64
(lp3482
g57
(g78
g59
NtRp3483
(dp3484
g62
(dp3485
g82
g83
ssg71
g3479
sg64
(lp3486
S'wsgi.errors'
p3487
asbag57
(g78
g59
NtRp3488
(dp3489
g62
(dp3490
g89
g90
ssg71
g3479
sg64
(lp3491
S':'
asbag57
(g78
g59
NtRp3492
(dp3493
g62
(dp3494
sg71
g3479
sg64
(lp3495
g57
(g58
g59
NtRp3496
(dp3497
g62
(dp3498
g70
I3
ssg71
g3492
sg64
(lp3499
S"<open file '<stderr>', mode 'w' at 0xb72ca0d0>"
p3500
asbasbasbag57
(g73
g59
NtRp3501
(dp3502
g62
(dp3503
sg71
g2971
sg64
(lp3504
g57
(g78
g59
NtRp3505
(dp3506
g62
(dp3507
g82
g83
ssg71
g3501
sg64
(lp3508
S'wsgi.file_wrapper'
p3509
asbag57
(g78
g59
NtRp3510
(dp3511
g62
(dp3512
g89
g90
ssg71
g3501
sg64
(lp3513
S':'
asbag57
(g78
g59
NtRp3514
(dp3515
g62
(dp3516
sg71
g3501
sg64
(lp3517
g57
(g58
g59
NtRp3518
(dp3519
g62
(dp3520
g70
I3
ssg71
g3514
sg64
(lp3521
S'<class wsgiref.util.FileWrapper at 0xa00e02c>'
p3522
asbasbasbag57
(g73
g59
NtRp3523
(dp3524
g62
(dp3525
sg71
g2971
sg64
(lp3526
g57
(g78
g59
NtRp3527
(dp3528
g62
(dp3529
g82
g83
ssg71
g3523
sg64
(lp3530
S'wsgi.input'
p3531
asbag57
(g78
g59
NtRp3532
(dp3533
g62
(dp3534
g89
g90
ssg71
g3523
sg64
(lp3535
S':'
asbag57
(g78
g59
NtRp3536
(dp3537
g62
(dp3538
sg71
g3523
sg64
(lp3539
g57
(g58
g59
NtRp3540
(dp3541
g62
(dp3542
g70
I3
ssg71
g3536
sg64
(lp3543
S"<open file '<fdopen>', mode 'w+b' at 0xae60a808>"
p3544
asbasbasbag57
(g73
g59
NtRp3545
(dp3546
g62
(dp3547
sg71
g2971
sg64
(lp3548
g57
(g78
g59
NtRp3549
(dp3550
g62
(dp3551
g82
g83
ssg71
g3545
sg64
(lp3552
S'wsgi.multiprocess'
p3553
asbag57
(g78
g59
NtRp3554
(dp3555
g62
(dp3556
g89
g90
ssg71
g3545
sg64
(lp3557
S':'
asbag57
(g78
g59
NtRp3558
(dp3559
g62
(dp3560
sg71
g3545
sg64
(lp3561
g57
(g58
g59
NtRp3562
(dp3563
g62
(dp3564
g70
I3
ssg71
g3558
sg64
(lp3565
g1376
asbasbasbag57
(g73
g59
NtRp3566
(dp3567
g62
(dp3568
sg71
g2971
sg64
(lp3569
g57
(g78
g59
NtRp3570
(dp3571
g62
(dp3572
g82
g83
ssg71
g3566
sg64
(lp3573
S'wsgi.multithread'
p3574
asbag57
(g78
g59
NtRp3575
(dp3576
g62
(dp3577
g89
g90
ssg71
g3566
sg64
(lp3578
S':'
asbag57
(g78
g59
NtRp3579
(dp3580
g62
(dp3581
sg71
g3566
sg64
(lp3582
g57
(g58
g59
NtRp3583
(dp3584
g62
(dp3585
g70
I3
ssg71
g3579
sg64
(lp3586
g100
asbasbasbag57
(g73
g59
NtRp3587
(dp3588
g62
(dp3589
sg71
g2971
sg64
(lp3590
g57
(g78
g59
NtRp3591
(dp3592
g62
(dp3593
g82
g83
ssg71
g3587
sg64
(lp3594
S'wsgi.run_once'
p3595
asbag57
(g78
g59
NtRp3596
(dp3597
g62
(dp3598
g89
g90
ssg71
g3587
sg64
(lp3599
S':'
asbag57
(g78
g59
NtRp3600
(dp3601
g62
(dp3602
sg71
g3587
sg64
(lp3603
g57
(g58
g59
NtRp3604
(dp3605
g62
(dp3606
g70
I3
ssg71
g3600
sg64
(lp3607
g1376
asbasbasbag57
(g73
g59
NtRp3608
(dp3609
g62
(dp3610
sg71
g2971
sg64
(lp3611
g57
(g78
g59
NtRp3612
(dp3613
g62
(dp3614
g82
g83
ssg71
g3608
sg64
(lp3615
S'wsgi.url_scheme'
p3616
asbag57
(g78
g59
NtRp3617
(dp3618
g62
(dp3619
g89
g90
ssg71
g3608
sg64
(lp3620
S':'
asbag57
(g78
g59
NtRp3621
(dp3622
g62
(dp3623
sg71
g3608
sg64
(lp3624
g57
(g58
g59
NtRp3625
(dp3626
g62
(dp3627
g70
I3
ssg71
g3621
sg64
(lp3628
g2222
asbasbasbag57
(g73
g59
NtRp3629
(dp3630
g62
(dp3631
sg71
g2971
sg64
(lp3632
g57
(g78
g59
NtRp3633
(dp3634
g62
(dp3635
g82
g83
ssg71
g3629
sg64
(lp3636
S'wsgi.version'
p3637
asbag57
(g78
g59
NtRp3638
(dp3639
g62
(dp3640
g89
g90
ssg71
g3629
sg64
(lp3641
S':'
asbag57
(g78
g59
NtRp3642
(dp3643
g62
(dp3644
sg71
g3629
sg64
(lp3645
g57
(g58
g59
NtRp3646
(dp3647
g62
(dp3648
g70
I3
ssg71
g3642
sg64
(lp3649
S'1'
asbasbasbasbasbasbasbasbasbasbasbasbasbsS'frames'
p3650
(lp3651
(dp3652
S'file'
p3653
S'/home/emp2web/webcast/web2py/gluon/restricted.py'
p3654
sS'dump'
p3655
(dp3656
S'environment'
p3657
S"{'A': <class 'gluon.html.A'>, 'Auth': <class 'gluon.tools.Auth'>, 'B': <class 'gluon.html.B'>, 'BEAUTIFY': <class 'gluon.html.BEAUTIFY'>, 'BODY': <class 'gluon.html.BODY'>, 'BR': <class 'gluon.html.BR'>, 'BUTTON': <class 'gluon.html.BUTTON'>, 'CAT': <class 'gluon.html.CAT'>, 'CENTER': <class 'gluon.html.CENTER'>, 'CLEANUP': <class 'gluon.validators.CLEANUP'>, ...}"
p3658
sS'ccode'
p3659
S'<code object <module> at 0xae61ba40, file "/home...py/applications/proyectos/models/db.py", line 12>'
p3660
ssS'lnum'
p3661
I209
sS'lines'
p3662
(dp3663
I204
S'    try:'
p3664
sI205
S'        if type(code) == types.CodeType:'
p3665
sI206
S'            ccode = code'
p3666
sI207
S'        else:'
p3667
sI208
S'            ccode = compile2(code,layer)'
p3668
sI209
S'        exec ccode in environment'
p3669
sI210
S'    except HTTP:'
p3670
sI211
S'        raise'
p3671
sI212
S'    except RestrictedError:'
p3672
sI213
S'        # do not encapsulate (obfuscate) the original RestrictedError'
p3673
ssS'call'
p3674
S"(code='# -*- coding: utf-8 -*-\\n\\n#######################...ble auditing\\n# auth.enable_record_versioning(db)\\n', environment={'A': <class 'gluon.html.A'>, 'Auth': <class 'gluon.tools.Auth'>, 'B': <class 'gluon.html.B'>, 'BEAUTIFY': <class 'gluon.html.BEAUTIFY'>, 'BODY': <class 'gluon.html.BODY'>, 'BR': <class 'gluon.html.BR'>, 'BUTTON': <class 'gluon.html.BUTTON'>, 'CAT': <class 'gluon.html.CAT'>, 'CENTER': <class 'gluon.html.CENTER'>, 'CLEANUP': <class 'gluon.validators.CLEANUP'>, ...}, layer='/home/emp2web/webcast/web2py/applications/proyectos/models/db.py')"
p3675
sS'func'
p3676
S'restricted'
p3677
sa(dp3678
g3653
S'/home/emp2web/webcast/web2py/applications/proyectos/models/db.py'
p3679
sg3655
(dp3680
S'sfsdfds'
p3681
S'undefined'
p3682
ssg3661
I49
sg3662
(dp3683
I44
S'crud, service, plugins = Crud(db), Service(), PluginManager()'
p3684
sI45
S''
sI46
S'## create all tables needed by auth if not custom tables'
p3685
sI47
S'auth.define_tables(username=True, signature=False)'
p3686
sI48
S''
sI49
S'sfsdfds'
p3687
sI50
S''
sI51
S'## configure email'
p3688
sI52
S'mail=auth.settings.mailer'
p3689
sI53
S"mail.settings.server = 'logging' or 'smtp.gmail.com:587'"
p3690
ssg3674
S'()'
p3691
sg3676
S'<module>'
p3692
sasS'pyver'
p3693
S'Python 2.7.3: /usr/bin/python2.7'
p3694
sS'session'
p3695
g57
(g58
g59
NtRp3696
(dp3697
g62
(dp3698
sg64
(lp3699
g57
(g66
g59
NtRp3700
(dp3701
g62
(dp3702
g70
I5
ssg71
Nsg64
(lp3703
g57
(g73
g59
NtRp3704
(dp3705
g62
(dp3706
sg71
g3700
sg64
(lp3707
g57
(g78
g59
NtRp3708
(dp3709
g62
(dp3710
g82
g83
ssg71
g3704
sg64
(lp3711
S'auth'
p3712
asbag57
(g78
g59
NtRp3713
(dp3714
g62
(dp3715
g89
g90
ssg71
g3704
sg64
(lp3716
S':'
asbag57
(g78
g59
NtRp3717
(dp3718
g62
(dp3719
sg71
g3704
sg64
(lp3720
g57
(g58
g59
NtRp3721
(dp3722
g62
(dp3723
g70
I5
ssg71
g3717
sg64
(lp3724
S'None'
p3725
asbasbasbasbasbsS'etype'
p3726
S"<type 'exceptions.NameError'>"
p3727
sS'date'
p3728
S'Thu Sep  6 15:46:08 2012'
p3729
sS'response'
p3730
g57
(g58
g59
NtRp3731
(dp3732
g62
(dp3733
sg64
(lp3734
g57
(g66
g59
NtRp3735
(dp3736
g62
(dp3737
g70
I5
ssg71
Nsg64
(lp3738
g57
(g73
g59
NtRp3739
(dp3740
g62
(dp3741
sg71
g3735
sg64
(lp3742
g57
(g78
g59
NtRp3743
(dp3744
g62
(dp3745
g82
g83
ssg71
g3739
sg64
(lp3746
g155
asbag57
(g78
g59
NtRp3747
(dp3748
g62
(dp3749
g89
g90
ssg71
g3739
sg64
(lp3750
S':'
asbag57
(g78
g59
NtRp3751
(dp3752
g62
(dp3753
sg71
g3739
sg64
(lp3754
g57
(g58
g59
NtRp3755
(dp3756
g62
(dp3757
g70
I5
ssg71
g3751
sg64
(lp3758
S'<cStringIO.StringO object at 0xb49709c0>'
p3759
asbasbasbag57
(g73
g59
NtRp3760
(dp3761
g62
(dp3762
sg71
g3735
sg64
(lp3763
g57
(g78
g59
NtRp3764
(dp3765
g62
(dp3766
g82
g83
ssg71
g3760
sg64
(lp3767
g243
asbag57
(g78
g59
NtRp3768
(dp3769
g62
(dp3770
g89
g90
ssg71
g3760
sg64
(lp3771
S':'
asbag57
(g78
g59
NtRp3772
(dp3773
g62
(dp3774
sg71
g3760
sg64
(lp3775
g57
(g58
g59
NtRp3776
(dp3777
g62
(dp3778
g70
I5
ssg71
g3772
sg64
(lp3779
g57
(g66
g59
NtRp3780
(dp3781
g62
(dp3782
g70
I4
ssg71
Nsg64
(lp3783
g57
(g73
g59
NtRp3784
(dp3785
g62
(dp3786
sg71
g3780
sg64
(lp3787
g57
(g78
g59
NtRp3788
(dp3789
g62
(dp3790
g82
g83
ssg71
g3784
sg64
(lp3791
S'session_id_proyectos'
p3792
asbag57
(g78
g59
NtRp3793
(dp3794
g62
(dp3795
g89
g90
ssg71
g3784
sg64
(lp3796
S':'
asbag57
(g78
g59
NtRp3797
(dp3798
g62
(dp3799
sg71
g3784
sg64
(lp3800
g57
(g58
g59
NtRp3801
(dp3802
g62
(dp3803
g70
I4
ssg71
g3797
sg64
(lp3804
g660
ag57
(g66
g59
NtRp3805
(dp3806
g62
(dp3807
g70
I3
ssg71
Nsg64
(lp3808
g57
(g73
g59
NtRp3809
(dp3810
g62
(dp3811
sg71
g3805
sg64
(lp3812
g57
(g78
g59
NtRp3813
(dp3814
g62
(dp3815
g82
g83
ssg71
g3809
sg64
(lp3816
g293
asbag57
(g78
g59
NtRp3817
(dp3818
g62
(dp3819
g89
g90
ssg71
g3809
sg64
(lp3820
S':'
asbag57
(g78
g59
NtRp3821
(dp3822
g62
(dp3823
sg71
g3809
sg64
(lp3824
g57
(g58
g59
NtRp3825
(dp3826
g62
(dp3827
g70
I3
ssg71
g3821
sg64
(lp3828
S''
asbasbasbag57
(g73
g59
NtRp3829
(dp3830
g62
(dp3831
sg71
g3805
sg64
(lp3832
g57
(g78
g59
NtRp3833
(dp3834
g62
(dp3835
g82
g83
ssg71
g3829
sg64
(lp3836
g314
asbag57
(g78
g59
NtRp3837
(dp3838
g62
(dp3839
g89
g90
ssg71
g3829
sg64
(lp3840
S':'
asbag57
(g78
g59
NtRp3841
(dp3842
g62
(dp3843
sg71
g3829
sg64
(lp3844
g57
(g58
g59
NtRp3845
(dp3846
g62
(dp3847
g70
I3
ssg71
g3841
sg64
(lp3848
S''
asbasbasbag57
(g73
g59
NtRp3849
(dp3850
g62
(dp3851
sg71
g3805
sg64
(lp3852
g57
(g78
g59
NtRp3853
(dp3854
g62
(dp3855
g82
g83
ssg71
g3849
sg64
(lp3856
g335
asbag57
(g78
g59
NtRp3857
(dp3858
g62
(dp3859
g89
g90
ssg71
g3849
sg64
(lp3860
S':'
asbag57
(g78
g59
NtRp3861
(dp3862
g62
(dp3863
sg71
g3849
sg64
(lp3864
g57
(g58
g59
NtRp3865
(dp3866
g62
(dp3867
g70
I3
ssg71
g3861
sg64
(lp3868
S''
asbasbasbag57
(g73
g59
NtRp3869
(dp3870
g62
(dp3871
sg71
g3805
sg64
(lp3872
g57
(g78
g59
NtRp3873
(dp3874
g62
(dp3875
g82
g83
ssg71
g3869
sg64
(lp3876
g356
asbag57
(g78
g59
NtRp3877
(dp3878
g62
(dp3879
g89
g90
ssg71
g3869
sg64
(lp3880
S':'
asbag57
(g78
g59
NtRp3881
(dp3882
g62
(dp3883
sg71
g3869
sg64
(lp3884
g57
(g58
g59
NtRp3885
(dp3886
g62
(dp3887
g70
I3
ssg71
g3881
sg64
(lp3888
S''
asbasbasbag57
(g73
g59
NtRp3889
(dp3890
g62
(dp3891
sg71
g3805
sg64
(lp3892
g57
(g78
g59
NtRp3893
(dp3894
g62
(dp3895
g82
g83
ssg71
g3889
sg64
(lp3896
g377
asbag57
(g78
g59
NtRp3897
(dp3898
g62
(dp3899
g89
g90
ssg71
g3889
sg64
(lp3900
S':'
asbag57
(g78
g59
NtRp3901
(dp3902
g62
(dp3903
sg71
g3889
sg64
(lp3904
g57
(g58
g59
NtRp3905
(dp3906
g62
(dp3907
g70
I3
ssg71
g3901
sg64
(lp3908
S''
asbasbasbag57
(g73
g59
NtRp3909
(dp3910
g62
(dp3911
sg71
g3805
sg64
(lp3912
g57
(g78
g59
NtRp3913
(dp3914
g62
(dp3915
g82
g83
ssg71
g3909
sg64
(lp3916
g398
asbag57
(g78
g59
NtRp3917
(dp3918
g62
(dp3919
g89
g90
ssg71
g3909
sg64
(lp3920
S':'
asbag57
(g78
g59
NtRp3921
(dp3922
g62
(dp3923
sg71
g3909
sg64
(lp3924
g57
(g58
g59
NtRp3925
(dp3926
g62
(dp3927
g70
I3
ssg71
g3921
sg64
(lp3928
S'/'
asbasbasbag57
(g73
g59
NtRp3929
(dp3930
g62
(dp3931
sg71
g3805
sg64
(lp3932
g57
(g78
g59
NtRp3933
(dp3934
g62
(dp3935
g82
g83
ssg71
g3929
sg64
(lp3936
g419
asbag57
(g78
g59
NtRp3937
(dp3938
g62
(dp3939
g89
g90
ssg71
g3929
sg64
(lp3940
S':'
asbag57
(g78
g59
NtRp3941
(dp3942
g62
(dp3943
sg71
g3929
sg64
(lp3944
g57
(g58
g59
NtRp3945
(dp3946
g62
(dp3947
g70
I3
ssg71
g3941
sg64
(lp3948
S''
asbasbasbag57
(g73
g59
NtRp3949
(dp3950
g62
(dp3951
sg71
g3805
sg64
(lp3952
g57
(g78
g59
NtRp3953
(dp3954
g62
(dp3955
g82
g83
ssg71
g3949
sg64
(lp3956
g440
asbag57
(g78
g59
NtRp3957
(dp3958
g62
(dp3959
g89
g90
ssg71
g3949
sg64
(lp3960
S':'
asbag57
(g78
g59
NtRp3961
(dp3962
g62
(dp3963
sg71
g3949
sg64
(lp3964
g57
(g58
g59
NtRp3965
(dp3966
g62
(dp3967
g70
I3
ssg71
g3961
sg64
(lp3968
S''
asbasbasbasbasbasbasbasbasbasbasbag57
(g73
g59
NtRp3969
(dp3970
g62
(dp3971
sg71
g3735
sg64
(lp3972
g57
(g78
g59
NtRp3973
(dp3974
g62
(dp3975
g82
g83
ssg71
g3969
sg64
(lp3976
S'delimiters'
p3977
asbag57
(g78
g59
NtRp3978
(dp3979
g62
(dp3980
g89
g90
ssg71
g3969
sg64
(lp3981
S':'
asbag57
(g78
g59
NtRp3982
(dp3983
g62
(dp3984
sg71
g3969
sg64
(lp3985
g57
(g58
g59
NtRp3986
(dp3987
g62
(dp3988
g70
I5
ssg71
g3982
sg64
(lp3989
g57
(g66
g59
NtRp3990
(dp3991
g62
(dp3992
g70
I4
ssg71
Nsg64
(lp3993
g57
(g73
g59
NtRp3994
(dp3995
g62
(dp3996
sg71
g3990
sg64
(lp3997
g57
(g78
g59
NtRp3998
(dp3999
g62
(dp4000
sg71
g3994
sg64
(lp4001
g57
(g58
g59
NtRp4002
(dp4003
g62
(dp4004
g70
I4
ssg71
g3998
sg64
(lp4005
S'{{'
p4006
asbasbasbag57
(g73
g59
NtRp4007
(dp4008
g62
(dp4009
sg71
g3990
sg64
(lp4010
g57
(g78
g59
NtRp4011
(dp4012
g62
(dp4013
sg71
g4007
sg64
(lp4014
g57
(g58
g59
NtRp4015
(dp4016
g62
(dp4017
g70
I4
ssg71
g4011
sg64
(lp4018
S'}}'
p4019
asbasbasbasbasbasbasbag57
(g73
g59
NtRp4020
(dp4021
g62
(dp4022
sg71
g3735
sg64
(lp4023
g57
(g78
g59
NtRp4024
(dp4025
g62
(dp4026
g82
g83
ssg71
g4020
sg64
(lp4027
S'files'
p4028
asbag57
(g78
g59
NtRp4029
(dp4030
g62
(dp4031
g89
g90
ssg71
g4020
sg64
(lp4032
S':'
asbag57
(g78
g59
NtRp4033
(dp4034
g62
(dp4035
sg71
g4020
sg64
(lp4036
g57
(g58
g59
NtRp4037
(dp4038
g62
(dp4039
g70
I5
ssg71
g4033
sg64
(lp4040
g57
(g66
g59
NtRp4041
(dp4042
g62
(dp4043
g70
I4
ssg71
Nsg64
(lp4044
sbasbasbasbag57
(g73
g59
NtRp4045
(dp4046
g62
(dp4047
sg71
g3735
sg64
(lp4048
g57
(g78
g59
NtRp4049
(dp4050
g62
(dp4051
g82
g83
ssg71
g4045
sg64
(lp4052
S'flash'
p4053
asbag57
(g78
g59
NtRp4054
(dp4055
g62
(dp4056
g89
g90
ssg71
g4045
sg64
(lp4057
S':'
asbag57
(g78
g59
NtRp4058
(dp4059
g62
(dp4060
sg71
g4045
sg64
(lp4061
g57
(g58
g59
NtRp4062
(dp4063
g62
(dp4064
g70
I5
ssg71
g4058
sg64
(lp4065
S''
asbasbasbag57
(g73
g59
NtRp4066
(dp4067
g62
(dp4068
sg71
g3735
sg64
(lp4069
g57
(g78
g59
NtRp4070
(dp4071
g62
(dp4072
g82
g83
ssg71
g4066
sg64
(lp4073
S'generic_patterns'
p4074
asbag57
(g78
g59
NtRp4075
(dp4076
g62
(dp4077
g89
g90
ssg71
g4066
sg64
(lp4078
S':'
asbag57
(g78
g59
NtRp4079
(dp4080
g62
(dp4081
sg71
g4066
sg64
(lp4082
g57
(g58
g59
NtRp4083
(dp4084
g62
(dp4085
g70
I5
ssg71
g4079
sg64
(lp4086
g57
(g66
g59
NtRp4087
(dp4088
g62
(dp4089
g70
I4
ssg71
Nsg64
(lp4090
g57
(g73
g59
NtRp4091
(dp4092
g62
(dp4093
sg71
g4087
sg64
(lp4094
g57
(g78
g59
NtRp4095
(dp4096
g62
(dp4097
sg71
g4091
sg64
(lp4098
g57
(g58
g59
NtRp4099
(dp4100
g62
(dp4101
g70
I4
ssg71
g4095
sg64
(lp4102
S'*'
asbasbasbasbasbasbasbag57
(g73
g59
NtRp4103
(dp4104
g62
(dp4105
sg71
g3735
sg64
(lp4106
g57
(g78
g59
NtRp4107
(dp4108
g62
(dp4109
g82
g83
ssg71
g4103
sg64
(lp4110
S'headers'
p4111
asbag57
(g78
g59
NtRp4112
(dp4113
g62
(dp4114
g89
g90
ssg71
g4103
sg64
(lp4115
S':'
asbag57
(g78
g59
NtRp4116
(dp4117
g62
(dp4118
sg71
g4103
sg64
(lp4119
g57
(g58
g59
NtRp4120
(dp4121
g62
(dp4122
g70
I5
ssg71
g4116
sg64
(lp4123
g57
(g66
g59
NtRp4124
(dp4125
g62
(dp4126
g70
I4
ssg71
Nsg64
(lp4127
g57
(g73
g59
NtRp4128
(dp4129
g62
(dp4130
sg71
g4124
sg64
(lp4131
g57
(g78
g59
NtRp4132
(dp4133
g62
(dp4134
g82
g83
ssg71
g4128
sg64
(lp4135
S'Cache-Control'
p4136
asbag57
(g78
g59
NtRp4137
(dp4138
g62
(dp4139
g89
g90
ssg71
g4128
sg64
(lp4140
S':'
asbag57
(g78
g59
NtRp4141
(dp4142
g62
(dp4143
sg71
g4128
sg64
(lp4144
g57
(g58
g59
NtRp4145
(dp4146
g62
(dp4147
g70
I4
ssg71
g4141
sg64
(lp4148
S'no-store, no-cache, must-revalidate, post-check=0, pre-check=0'
p4149
asbasbasbag57
(g73
g59
NtRp4150
(dp4151
g62
(dp4152
sg71
g4124
sg64
(lp4153
g57
(g78
g59
NtRp4154
(dp4155
g62
(dp4156
g82
g83
ssg71
g4150
sg64
(lp4157
S'Content-Type'
p4158
asbag57
(g78
g59
NtRp4159
(dp4160
g62
(dp4161
g89
g90
ssg71
g4150
sg64
(lp4162
S':'
asbag57
(g78
g59
NtRp4163
(dp4164
g62
(dp4165
sg71
g4150
sg64
(lp4166
g57
(g58
g59
NtRp4167
(dp4168
g62
(dp4169
g70
I4
ssg71
g4163
sg64
(lp4170
S'text/html; charset=utf-8'
p4171
asbasbasbag57
(g73
g59
NtRp4172
(dp4173
g62
(dp4174
sg71
g4124
sg64
(lp4175
g57
(g78
g59
NtRp4176
(dp4177
g62
(dp4178
g82
g83
ssg71
g4172
sg64
(lp4179
S'Expires'
p4180
asbag57
(g78
g59
NtRp4181
(dp4182
g62
(dp4183
g89
g90
ssg71
g4172
sg64
(lp4184
S':'
asbag57
(g78
g59
NtRp4185
(dp4186
g62
(dp4187
sg71
g4172
sg64
(lp4188
g57
(g58
g59
NtRp4189
(dp4190
g62
(dp4191
g70
I4
ssg71
g4185
sg64
(lp4192
S'Thu, 06 Sep 2012 20:46:08 GMT'
p4193
asbasbasbag57
(g73
g59
NtRp4194
(dp4195
g62
(dp4196
sg71
g4124
sg64
(lp4197
g57
(g78
g59
NtRp4198
(dp4199
g62
(dp4200
g82
g83
ssg71
g4194
sg64
(lp4201
S'Pragma'
p4202
asbag57
(g78
g59
NtRp4203
(dp4204
g62
(dp4205
g89
g90
ssg71
g4194
sg64
(lp4206
S':'
asbag57
(g78
g59
NtRp4207
(dp4208
g62
(dp4209
sg71
g4194
sg64
(lp4210
g57
(g58
g59
NtRp4211
(dp4212
g62
(dp4213
g70
I4
ssg71
g4207
sg64
(lp4214
S'no-cache'
p4215
asbasbasbag57
(g73
g59
NtRp4216
(dp4217
g62
(dp4218
sg71
g4124
sg64
(lp4219
g57
(g78
g59
NtRp4220
(dp4221
g62
(dp4222
g82
g83
ssg71
g4216
sg64
(lp4223
S'X-Powered-By'
p4224
asbag57
(g78
g59
NtRp4225
(dp4226
g62
(dp4227
g89
g90
ssg71
g4216
sg64
(lp4228
S':'
asbag57
(g78
g59
NtRp4229
(dp4230
g62
(dp4231
sg71
g4216
sg64
(lp4232
g57
(g58
g59
NtRp4233
(dp4234
g62
(dp4235
g70
I4
ssg71
g4229
sg64
(lp4236
S'web2py'
p4237
asbasbasbasbasbasbasbag57
(g73
g59
NtRp4238
(dp4239
g62
(dp4240
sg71
g3735
sg64
(lp4241
g57
(g78
g59
NtRp4242
(dp4243
g62
(dp4244
g82
g83
ssg71
g4238
sg64
(lp4245
S'menu'
p4246
asbag57
(g78
g59
NtRp4247
(dp4248
g62
(dp4249
g89
g90
ssg71
g4238
sg64
(lp4250
S':'
asbag57
(g78
g59
NtRp4251
(dp4252
g62
(dp4253
sg71
g4238
sg64
(lp4254
g57
(g58
g59
NtRp4255
(dp4256
g62
(dp4257
g70
I5
ssg71
g4251
sg64
(lp4258
g57
(g66
g59
NtRp4259
(dp4260
g62
(dp4261
g70
I4
ssg71
Nsg64
(lp4262
sbasbasbasbag57
(g73
g59
NtRp4263
(dp4264
g62
(dp4265
sg71
g3735
sg64
(lp4266
g57
(g78
g59
NtRp4267
(dp4268
g62
(dp4269
g82
g83
ssg71
g4263
sg64
(lp4270
S'meta'
p4271
asbag57
(g78
g59
NtRp4272
(dp4273
g62
(dp4274
g89
g90
ssg71
g4263
sg64
(lp4275
S':'
asbag57
(g78
g59
NtRp4276
(dp4277
g62
(dp4278
sg71
g4263
sg64
(lp4279
g57
(g58
g59
NtRp4280
(dp4281
g62
(dp4282
g70
I5
ssg71
g4276
sg64
(lp4283
g57
(g66
g59
NtRp4284
(dp4285
g62
(dp4286
g70
I4
ssg71
Nsg64
(lp4287
sbasbasbasbag57
(g73
g59
NtRp4288
(dp4289
g62
(dp4290
sg71
g3735
sg64
(lp4291
g57
(g78
g59
NtRp4292
(dp4293
g62
(dp4294
g82
g83
ssg71
g4288
sg64
(lp4295
S'postprocessing'
p4296
asbag57
(g78
g59
NtRp4297
(dp4298
g62
(dp4299
g89
g90
ssg71
g4288
sg64
(lp4300
S':'
asbag57
(g78
g59
NtRp4301
(dp4302
g62
(dp4303
sg71
g4288
sg64
(lp4304
g57
(g58
g59
NtRp4305
(dp4306
g62
(dp4307
g70
I5
ssg71
g4301
sg64
(lp4308
g57
(g66
g59
NtRp4309
(dp4310
g62
(dp4311
g70
I4
ssg71
Nsg64
(lp4312
sbasbasbasbag57
(g73
g59
NtRp4313
(dp4314
g62
(dp4315
sg71
g3735
sg64
(lp4316
g57
(g78
g59
NtRp4317
(dp4318
g62
(dp4319
g82
g83
ssg71
g4313
sg64
(lp4320
S'session_file'
p4321
asbag57
(g78
g59
NtRp4322
(dp4323
g62
(dp4324
g89
g90
ssg71
g4313
sg64
(lp4325
S':'
asbag57
(g78
g59
NtRp4326
(dp4327
g62
(dp4328
sg71
g4313
sg64
(lp4329
g57
(g58
g59
NtRp4330
(dp4331
g62
(dp4332
g70
I5
ssg71
g4326
sg64
(lp4333
S"<open file '/home/emp2web/webcast/web2py/applications/proyectos/sessions/127.0.0.1-be82b3d9-4d64-4bfc-8d3a-c456e8044ba2', mode 'rb+' at 0xae60a650>"
p4334
asbasbasbag57
(g73
g59
NtRp4335
(dp4336
g62
(dp4337
sg71
g3735
sg64
(lp4338
g57
(g78
g59
NtRp4339
(dp4340
g62
(dp4341
g82
g83
ssg71
g4335
sg64
(lp4342
S'session_filename'
p4343
asbag57
(g78
g59
NtRp4344
(dp4345
g62
(dp4346
g89
g90
ssg71
g4335
sg64
(lp4347
S':'
asbag57
(g78
g59
NtRp4348
(dp4349
g62
(dp4350
sg71
g4335
sg64
(lp4351
g57
(g58
g59
NtRp4352
(dp4353
g62
(dp4354
g70
I5
ssg71
g4348
sg64
(lp4355
S'/home/emp2web/webcast/web2py/applications/proyectos/sessions/127.0.0.1-be82b3d9-4d64-4bfc-8d3a-c456e8044ba2'
p4356
asbasbasbag57
(g73
g59
NtRp4357
(dp4358
g62
(dp4359
sg71
g3735
sg64
(lp4360
g57
(g78
g59
NtRp4361
(dp4362
g62
(dp4363
g82
g83
ssg71
g4357
sg64
(lp4364
S'session_id'
p4365
asbag57
(g78
g59
NtRp4366
(dp4367
g62
(dp4368
g89
g90
ssg71
g4357
sg64
(lp4369
S':'
asbag57
(g78
g59
NtRp4370
(dp4371
g62
(dp4372
sg71
g4357
sg64
(lp4373
g57
(g58
g59
NtRp4374
(dp4375
g62
(dp4376
g70
I5
ssg71
g4370
sg64
(lp4377
g660
asbasbasbag57
(g73
g59
NtRp4378
(dp4379
g62
(dp4380
sg71
g3735
sg64
(lp4381
g57
(g78
g59
NtRp4382
(dp4383
g62
(dp4384
g82
g83
ssg71
g4378
sg64
(lp4385
S'session_id_name'
p4386
asbag57
(g78
g59
NtRp4387
(dp4388
g62
(dp4389
g89
g90
ssg71
g4378
sg64
(lp4390
S':'
asbag57
(g78
g59
NtRp4391
(dp4392
g62
(dp4393
sg71
g4378
sg64
(lp4394
g57
(g58
g59
NtRp4395
(dp4396
g62
(dp4397
g70
I5
ssg71
g4391
sg64
(lp4398
g3792
asbasbasbag57
(g73
g59
NtRp4399
(dp4400
g62
(dp4401
sg71
g3735
sg64
(lp4402
g57
(g78
g59
NtRp4403
(dp4404
g62
(dp4405
g82
g83
ssg71
g4399
sg64
(lp4406
S'session_locked'
p4407
asbag57
(g78
g59
NtRp4408
(dp4409
g62
(dp4410
g89
g90
ssg71
g4399
sg64
(lp4411
S':'
asbag57
(g78
g59
NtRp4412
(dp4413
g62
(dp4414
sg71
g4399
sg64
(lp4415
g57
(g58
g59
NtRp4416
(dp4417
g62
(dp4418
g70
I5
ssg71
g4412
sg64
(lp4419
g100
asbasbasbag57
(g73
g59
NtRp4420
(dp4421
g62
(dp4422
sg71
g3735
sg64
(lp4423
g57
(g78
g59
NtRp4424
(dp4425
g62
(dp4426
g82
g83
ssg71
g4420
sg64
(lp4427
S'session_new'
p4428
asbag57
(g78
g59
NtRp4429
(dp4430
g62
(dp4431
g89
g90
ssg71
g4420
sg64
(lp4432
S':'
asbag57
(g78
g59
NtRp4433
(dp4434
g62
(dp4435
sg71
g4420
sg64
(lp4436
g57
(g58
g59
NtRp4437
(dp4438
g62
(dp4439
g70
I5
ssg71
g4433
sg64
(lp4440
g1376
asbasbasbag57
(g73
g59
NtRp4441
(dp4442
g62
(dp4443
sg71
g3735
sg64
(lp4444
g57
(g78
g59
NtRp4445
(dp4446
g62
(dp4447
g82
g83
ssg71
g4441
sg64
(lp4448
S'status'
p4449
asbag57
(g78
g59
NtRp4450
(dp4451
g62
(dp4452
g89
g90
ssg71
g4441
sg64
(lp4453
S':'
asbag57
(g78
g59
NtRp4454
(dp4455
g62
(dp4456
sg71
g4441
sg64
(lp4457
g57
(g58
g59
NtRp4458
(dp4459
g62
(dp4460
g70
I5
ssg71
g4454
sg64
(lp4461
S'200'
p4462
asbasbasbag57
(g73
g59
NtRp4463
(dp4464
g62
(dp4465
sg71
g3735
sg64
(lp4466
g57
(g78
g59
NtRp4467
(dp4468
g62
(dp4469
g82
g83
ssg71
g4463
sg64
(lp4470
S'view'
p4471
asbag57
(g78
g59
NtRp4472
(dp4473
g62
(dp4474
g89
g90
ssg71
g4463
sg64
(lp4475
S':'
asbag57
(g78
g59
NtRp4476
(dp4477
g62
(dp4478
sg71
g4463
sg64
(lp4479
g57
(g58
g59
NtRp4480
(dp4481
g62
(dp4482
g70
I5
ssg71
g4476
sg64
(lp4483
S'default/_TEST.html'
p4484
asbasbasbasbasbsS'locals'
p4485
(dp4486
S'Service'
p4487
S"<class 'gluon.tools.Service'>"
p4488
sS'OBJECT'
p4489
S"<class 'gluon.html.OBJECT'>"
p4490
sS'SQLDB'
p4491
S"<class 'gluon.dal.DAL'>"
p4492
sg3695
S"<Storage {'_Session__hash': '\\xb8\\xec\\xbb\\xe8\\x1...{'version': '18.0.1025.151', 'name': 'Chrome'}}}>"
p4493
sS'LINK'
p4494
S"<class 'gluon.html.LINK'>"
p4495
sS'BR'
p4496
S"<class 'gluon.html.BR'>"
p4497
sS'local_import'
p4498
S'<function <lambda>>'
p4499
sS'OPTGROUP'
p4500
S"<class 'gluon.html.OPTGROUP'>"
p4501
sS'LI'
p4502
S"<class 'gluon.html.LI'>"
p4503
sS'PRE'
p4504
S"<class 'gluon.html.PRE'>"
p4505
sS'IS_INT_IN_RANGE'
p4506
S"<class 'gluon.validators.IS_INT_IN_RANGE'>"
p4507
sS'IS_LOWER'
p4508
S"<class 'gluon.validators.IS_LOWER'>"
p4509
sS'IS_STRONG'
p4510
S"<class 'gluon.validators.IS_STRONG'>"
p4511
sS'cache'
p4512
S'<gluon.cache.Cache object>'
p4513
sS'IS_IN_DB'
p4514
S"<class 'gluon.validators.IS_IN_DB'>"
p4515
sS'TAG'
p4516
S'<gluon.html.__TAG__ object>'
p4517
sS'SQLField'
p4518
S"<class 'gluon.dal.Field'>"
p4519
sS'BODY'
p4520
S"<class 'gluon.html.BODY'>"
p4521
sS'IS_DATE_IN_RANGE'
p4522
S"<class 'gluon.validators.IS_DATE_IN_RANGE'>"
p4523
sS'IFRAME'
p4524
S"<class 'gluon.html.IFRAME'>"
p4525
sS'URL'
p4526
S'<function URL>'
p4527
sS'__file__'
p4528
S"'/home/emp2web/webcast/web2py/applications/proyectos/models/db.py'"
p4529
sS'db'
p4530
S'<DAL sqlite://storage.sqlite>'
p4531
sS'auth'
p4532
S'<gluon.tools.Auth object>'
p4533
sS'P'
S"<class 'gluon.html.P'>"
p4534
sS'TFOOT'
p4535
S"<class 'gluon.html.TFOOT'>"
p4536
sS'XHTML'
p4537
S"<class 'gluon.html.XHTML'>"
p4538
sS'ON'
p4539
g100
sS'OL'
p4540
S"<class 'gluon.html.OL'>"
p4541
sS'TEXTAREA'
p4542
S"<class 'gluon.html.TEXTAREA'>"
p4543
sS'MENU'
p4544
S"<class 'gluon.html.MENU'>"
p4545
sS'EM'
p4546
S"<class 'gluon.html.EM'>"
p4547
sS'CODE'
p4548
S"<class 'gluon.html.CODE'>"
p4549
sS'HTTP'
p4550
S"<class 'gluon.http.HTTP'>"
p4551
sS'HR'
p4552
S"<class 'gluon.html.HR'>"
p4553
sS'IS_DATETIME'
p4554
S"<class 'gluon.validators.IS_DATETIME'>"
p4555
sS'STYLE'
p4556
S"<class 'gluon.html.STYLE'>"
p4557
sS'LABEL'
p4558
S"<class 'gluon.html.LABEL'>"
p4559
sS'META'
p4560
S"<class 'gluon.html.META'>"
p4561
sS'plugins'
p4562
S'<gluon.tools.PluginManager object>'
p4563
sS'SELECT'
p4564
S"<class 'gluon.html.SELECT'>"
p4565
sS'CENTER'
p4566
S"<class 'gluon.html.CENTER'>"
p4567
sS'prettydate'
p4568
S'<function prettydate>'
p4569
sS'Crud'
p4570
S"<class 'gluon.tools.Crud'>"
p4571
sS'Auth'
p4572
S"<class 'gluon.tools.Auth'>"
p4573
sS'__builtins__'
p4574
S"{'ArithmeticError': <type 'exceptions.ArithmeticError'>, 'AssertionError': <type 'exceptions.AssertionError'>, 'AttributeError': <type 'exceptions.AttributeError'>, 'BaseException': <type 'exceptions.BaseException'>, 'BufferError': <type 'exceptions.BufferError'>, 'BytesWarning': <type 'exceptions.BytesWarning'>, 'DeprecationWarning': <type 'exceptions.DeprecationWarning'>, 'EOFError': <type 'exceptions.EOFError'>, 'Ellipsis': Ellipsis, 'EnvironmentError': <type 'exceptions.EnvironmentError'>, ...}"
p4575
sS'HTML'
p4576
S"<class 'gluon.html.HTML'>"
p4577
sS'SQLFORM'
p4578
S"<class 'gluon.sqlhtml.SQLFORM'>"
p4579
sS'LOAD'
p4580
S'<function LOAD>'
p4581
sS'redirect'
p4582
S'<function redirect>'
p4583
sS'FIELDSET'
p4584
S"<class 'gluon.html.FIELDSET'>"
p4585
sS'IS_EQUAL_TO'
p4586
S"<class 'gluon.validators.IS_EQUAL_TO'>"
p4587
sS'embed64'
p4588
S'<function embed64>'
p4589
sS'IS_LIST_OF'
p4590
S"<class 'gluon.validators.IS_LIST_OF'>"
p4591
sS'INPUT'
p4592
S"<class 'gluon.html.INPUT'>"
p4593
sS'EMBED'
p4594
S"<class 'gluon.html.EMBED'>"
p4595
sS'FORM'
p4596
S"<class 'gluon.html.FORM'>"
p4597
sS'H2'
p4598
S"<class 'gluon.html.H2'>"
p4599
sS'H3'
p4600
S"<class 'gluon.html.H3'>"
p4601
sS'BUTTON'
p4602
S"<class 'gluon.html.BUTTON'>"
p4603
sS'H1'
p4604
S"<class 'gluon.html.H1'>"
p4605
sS'H6'
p4606
S"<class 'gluon.html.H6'>"
p4607
sS'H4'
p4608
S"<class 'gluon.html.H4'>"
p4609
sS'H5'
p4610
S"<class 'gluon.html.H5'>"
p4611
sS'UL'
p4612
S"<class 'gluon.html.UL'>"
p4613
sS'IS_UPPER'
p4614
S"<class 'gluon.validators.IS_UPPER'>"
p4615
sS'xmlescape'
p4616
S'<function xmlescape>'
p4617
sS'IS_TIME'
p4618
S"<class 'gluon.validators.IS_TIME'>"
p4619
sS'OPTION'
p4620
S"<class 'gluon.html.OPTION'>"
p4621
sS'TITLE'
p4622
S"<class 'gluon.html.TITLE'>"
p4623
sS'CRYPT'
p4624
S"<class 'gluon.validators.CRYPT'>"
p4625
sS'IS_EMPTY_OR'
p4626
S"<class 'gluon.validators.IS_EMPTY_OR'>"
p4627
sS'MARKMIN'
p4628
S"<class 'gluon.html.MARKMIN'>"
p4629
sS'__name__'
p4630
S"'__restricted__'"
p4631
sS'STRONG'
p4632
S"<class 'gluon.html.STRONG'>"
p4633
sS'COL'
p4634
S"<class 'gluon.html.COL'>"
p4635
sS'service'
p4636
S'<gluon.tools.Service object>'
p4637
sS'SCRIPT'
p4638
S"<class 'gluon.html.SCRIPT'>"
p4639
sS'TABLE'
p4640
S"<class 'gluon.html.TABLE'>"
p4641
sS'IS_IPV4'
p4642
S"<class 'gluon.validators.IS_IPV4'>"
p4643
sS'IS_LENGTH'
p4644
S"<class 'gluon.validators.IS_LENGTH'>"
p4645
sS'XML'
p4646
S"<class 'gluon.html.XML'>"
p4647
sS'B'
S"<class 'gluon.html.B'>"
p4648
sS'IMG'
p4649
S"<class 'gluon.html.IMG'>"
p4650
sS'SQLTABLE'
p4651
S"<class 'gluon.sqlhtml.SQLTABLE'>"
p4652
sS'IS_MATCH'
p4653
S"<class 'gluon.validators.IS_MATCH'>"
p4654
sS'IS_ALPHANUMERIC'
p4655
S"<class 'gluon.validators.IS_ALPHANUMERIC'>"
p4656
sS'SPAN'
p4657
S"<class 'gluon.html.SPAN'>"
p4658
sS'IS_SLUG'
p4659
S"<class 'gluon.validators.IS_SLUG'>"
p4660
sS'CLEANUP'
p4661
S"<class 'gluon.validators.CLEANUP'>"
p4662
sS'IS_DATE'
p4663
S"<class 'gluon.validators.IS_DATE'>"
p4664
sS'IS_EMAIL'
p4665
S"<class 'gluon.validators.IS_EMAIL'>"
p4666
sS'IS_NOT_EMPTY'
p4667
S"<class 'gluon.validators.IS_NOT_EMPTY'>"
p4668
sS'IS_FLOAT_IN_RANGE'
p4669
S"<class 'gluon.validators.IS_FLOAT_IN_RANGE'>"
p4670
sS'BEAUTIFY'
p4671
S"<class 'gluon.html.BEAUTIFY'>"
p4672
sS'TBODY'
p4673
S"<class 'gluon.html.TBODY'>"
p4674
sS'CAT'
p4675
S"<class 'gluon.html.CAT'>"
p4676
sS'Field'
p4677
S"<class 'gluon.dal.Field'>"
p4678
sS'DIV'
p4679
S"<class 'gluon.html.DIV'>"
p4680
sS'LEGEND'
p4681
S"<class 'gluon.html.LEGEND'>"
p4682
sS'COLGROUP'
p4683
S"<class 'gluon.html.COLGROUP'>"
p4684
sS'DAL'
p4685
S"<class 'gluon.dal.DAL'>"
p4686
sS'TT'
p4687
S"<class 'gluon.html.TT'>"
p4688
sS'TR'
p4689
S"<class 'gluon.html.TR'>"
p4690
sS'__package__'
p4691
S'None'
p4692
sS'TH'
p4693
S"<class 'gluon.html.TH'>"
p4694
sS'TD'
p4695
S"<class 'gluon.html.TD'>"
p4696
sS'PluginManager'
p4697
S"<class 'gluon.tools.PluginManager'>"
p4698
sS'IS_URL'
p4699
S"<class 'gluon.validators.IS_URL'>"
p4700
sS'A'
S"<class 'gluon.html.A'>"
p4701
sS'HEAD'
p4702
S"<class 'gluon.html.HEAD'>"
p4703
sS'IS_DATETIME_IN_RANGE'
p4704
S"<class 'gluon.validators.IS_DATETIME_IN_RANGE'>"
p4705
sS'IS_IMAGE'
p4706
S"<class 'gluon.validators.IS_IMAGE'>"
p4707
sS'I'
S"<class 'gluon.html.I'>"
p4708
sS'crud'
p4709
S'<gluon.tools.Crud object>'
p4710
sS'IS_NOT_IN_DB'
p4711
S"<class 'gluon.validators.IS_NOT_IN_DB'>"
p4712
sg3730
S"<Storage {'body': <cStringIO.StringO object at 0...da> at 0xa4b58b4>, 'view': 'default/_TEST.html'}>"
p4713
sS'THEAD'
p4714
S"<class 'gluon.html.THEAD'>"
p4715
sS'IS_NULL_OR'
p4716
S"<class 'gluon.validators.IS_EMPTY_OR'>"
p4717
sg56
S"<Storage {'function': '_TEST', 'body': <open fil...ications/proyectos/', 'post_vars': <Storage {}>}>"
p4718
sS'IS_EXPR'
p4719
S"<class 'gluon.validators.IS_EXPR'>"
p4720
sS'IS_IN_SET'
p4721
S"<class 'gluon.validators.IS_IN_SET'>"
p4722
sS'IS_UPLOAD_FILENAME'
p4723
S"<class 'gluon.validators.IS_UPLOAD_FILENAME'>"
p4724
sS'IS_DECIMAL_IN_RANGE'
p4725
S"<class 'gluon.validators.IS_DECIMAL_IN_RANGE'>"
p4726
sS'T'
S'<gluon.languages.translator object>'
p4727
sssS'traceback'
p4728
S'Traceback (most recent call last):\n  File "/home/emp2web/webcast/web2py/gluon/restricted.py", line 209, in restricted\n    exec ccode in environment\n  File "/home/emp2web/webcast/web2py/applications/proyectos/models/db.py", line 49, in <module>\n    sfsdfds\nNameError: name \'sfsdfds\' is not defined\n'
p4729
s.